pd:_glClearStencil
u1f:_Array_InternalArray__ICollection_Add_TisMark_t2724874473_m1613484179_gshared
_Tc:__ZN10SizeModule8TransferI18StreamedBinaryReadILb1EEEEvRT_
pve:__ZN5physx2Gu19gjkLocalPenetrationINS0_8CapsuleVENS0_17ShrunkConvexHullVEEEjRKT_RKT0_RKNS_6shdfnd3aos6FloatVERNSB_5Vec3VESG_SG_RSC_PhSI_Rhb
P6l:__ZL80Graphic_t2426225576_CustomAttributesCacheGenerator_Graphic_OnFillVBO_m1723985607P21CustomAttributesCache
Qwc:__ZNSt3__16vectorI17SubstanceEnumItemNS_9allocatorIS1_EEE7reserveEj
W9a:__ZN17PersistentManager13GetAllFileIDsERKNSt3__112basic_stringIcNS0_11char_traitsIcEENS0_9allocatorIcEEEER13dynamic_arrayIxLj8EE
f7k:__ZN6il2cpp2vm5Array13GetByteLengthEP11Il2CppArray
gzj:__Z76RuntimeInvoker_Void_t1841601450_Int32_t2071877448_KeyValuePair_2_t3716250094PK10MethodInfoPvPS2_
QKk:_TextGenerator_get_lineCount_m4287181941
vGf:__ZN15DownloadHandler7OnAbortEv
o$c:__ZN9b2Fixture14DestroyProxiesEP12b2BroadPhase
Vnm:__ZNSt3__17collateIwED0Ev
Z8i:_Comparison_1_Invoke_m353639462_gshared
BCk:_UInt64_System_IConvertible_ToDecimal_m4205696037
ijm:_mbrlen
cok:_GameObject_Internal_AddComponentWithType_m214735204
KOg:_GraphicRegistry_RegisterGraphicForCanvas_m2284226562
dUa:__Z21SourceMipLevelForBlitiiii
eka:__ZN31CanvasBatchIntermediateRenderer15AddAsRenderNodeER15RenderNodeQueueRK20DeprecatedSourceData
_Ue:__ZN5physx18RepXPropertyFilterINS_2Sn17RepXVisitorReaderINS_16PxVehicleDriveNWEEEEclILj632ENS_15PxVehicleWheelsENS_22PxVehicleWheelsSimDataES8_EEvRKNS_14PxPropertyInfoIXT_ET0_T1_T2_EEj
_zi:_GenericTypeParameterBuilder_GetEvent_m4210567427
czi:_EnumBuilder_GetCustomAttributes_m432109445
_mg:_Enumerator_get_Key_m2908810861
p0l:__ZL90GUIStyle_t1799908754_CustomAttributesCacheGenerator_GUIStyle_get_imagePosition_m1104201320P21CustomAttributesCache
L2i:_ReadOnlyCollection_1_System_Collections_Generic_IListU3CTU3E_Insert_m109972123_gshared
yAj:__Z55RuntimeInvoker_ILTokenInfo_t149559338_Int32_t2071877448PK10MethodInfoPvPS2_
Nbf:__ZN13RuntimeStaticINSt3__16vectorIN5physx25PxVehicleWheelQueryResultENS0_9allocatorIS3_EEEEE13StaticDestroyEPv
QW:__ZN4FMOD4DSPI9getBypassEPb
qsd:__ZNK5physx2Sc5Scene24getContactModifyCallbackEv
OX:__ZN4FMOD7SystemI17setSoftwareFormatEi17FMOD_SOUND_FORMATii18FMOD_DSP_RESAMPLER
Ikk:_UnityEventBase_ToString_m433343709
CC:__ZN11UnityEngine9Animation28GenericAnimationBindingCacheD2Ev
IQd:__ZN5physx2Sq10AABBPruner10addObjectsEPjPKNS_9PxBounds3EPKNS0_13PrunerPayloadEj
OEl:__ZL68RemotingSurrogateSelector_t2821375126_CustomAttributesCacheGeneratorP21CustomAttributesCache
aC:__ZN15AnimationBinder13SetFloatValueERK20BoundCurveDeprecatedf
jGh:_List_1_System_Collections_IList_IndexOf_m39706221_gshared
Ckb:__Z13IsFileCreatedRKNSt3__112basic_stringIcNS_11char_traitsIcEENS_9allocatorIcEEEE
Iuk:_U3CActivateU3Ec__Iterator6__ctor_m2445789644
mc:invoke_viiiifiiiiif
lha:__Z18RestoreRenderStateR20CameraRenderOldStateR17ShaderPassContext
Iig:_SynchronizedArrayListWrapper_get_Item_m3309425850
KIe:__ZL32GeomOverlapCallback_ConvexConvexRKN5physx10PxGeometryERKNS_11PxTransformES2_S5_PNS_2Gu12TriggerCacheE
DLd:__ZNK5physx20PxsParticleSystemSim24getExternalAccelerationVEv
Qyk:_TimeSpan_t3430258949_marshal_pinvoke_cleanup
eQi:_Dictionary_2__ctor_m2391180541_gshared
SIc:__ZN6IDList10BeginOnGUIEv
APg:_GraphicRaycaster_get_ignoreReversedGraphics_m2757724367
iDm:_emscripten_glDeleteBuffers__wrapper
ork:_VirtualInput_UnRegisterVirtualButton_m264302963
ixh:_TlsServerCertificateRequest_ProcessAsSsl3_m3017921864
wxf:__ZZN2UI23InitializeCanvasManagerEvEN56UIEventsCanvasmanagerEmitScreenSpaceCameraGeometrystruct7ForwardEv
ggk:_Collision_t2876846408_marshal_pinvoke_back
Cpd:__ZN5physx2Sc14ConstraintCore10breakApartEv
LAi:_GenericTypeParameterBuilder_GetHashCode_m867619899
tzj:__Z79RuntimeInvoker_Void_t1841601450_Int32_t2071877448_ParameterModifier_t1820634920PK10MethodInfoPvPS2_
och:_BinaryReader_ReadDecimal_m3164824427
JSi:_EqualityComparer_1__cctor_m3397254040_gshared
vLk:_Touch_t407273883_marshal_pinvoke
Mnj:__Z37RuntimeInvoker_ContentType_t859870085PK10MethodInfoPvPS2_
uXd:__ZN5physx7Cooking20loadTriangleMeshDescERKNS_18PxTriangleMeshDescERNS_19TriangleMeshBuilderE
HKk:_TextGenerator_get_verts_m3124035267
ikh:_MonoType_CheckMethodSecurity_m4116906190
Vbd:__ZN5physx9NpFactory21releaseConnectorArrayEPNS_16NpConnectorArrayE
RNk:_Vector2_get_one_m3174311904
ENe:__ZNK5physx2Gu29EPASupportMapPairRelativeImplINS0_9TriangleVENS0_4BoxVEE6getDirEv
S6f:_Array_Sort_TisVector2_t2243707579_m1307634946_gshared
iHc:__ZN13RuntimeStaticI18BackgroundJobQueueE13StaticDestroyEPv
HVc:__ZN13InitialModuleaSERKS_
Nvj:__Z37RuntimeInvoker_Enumerator_t1593300101PK10MethodInfoPvPS2_
pab:__ZN17PersistentManager22CheckInstanceIDsLoadedEPii
_Bb:__ZN7ApiGLES17CopyBufferSubDataEjjlll
fPd:__ZN5physx21PxcArticulationHelper22getImpulseSelfResponseERKNS_9PxcFsDataEjRKNS_14PxcSIMDSpatialERS4_jS6_S7_
ZEa:__ZN12MeshRenderer13RegisterClassEv
bJc:__Z32Event_Get_Custom_PropCommandNameP15ScriptingObject
qJ:__ZN7mecanim5human19MaskHasLeftFootGoalERKNS_6bitsetILj66EEE
aQk:_U3CCreateWhereIteratorU3Ec__Iterator1D_1_Reset_m1773515612_gshared
MSg:_InputField_get_caretPosition_m1005871812
Hjm:_wmemmove
LFk:_DeriveBytes_set_HashName_m2530261318
HNi:_Dictionary_2__ctor_m3111963761_gshared
m0:__ZN11AudioModule26SetDefaultMicrophoneDriverEPv
hDe:__ZNK5physx15NpActorTemplateINS_15PxParticleFluidEE22getClientBehaviorFlagsEv
tWk:_AesManaged_CreateEncryptor_m1729287824
Wqa:__ZN17PrePassRenderLoop14RenderBasePassEP13RenderTextureRK14LightingLayersR13dynamic_arrayI16RenderObjectDataLj4EERbR10MinMaxAABB
$4:__ZN9rapidjson6WriterINS_19GenericStringBufferINS_4UTF8IcEENS_12CrtAllocatorEEES3_S3_S4_E11WriteDoubleEd
Crk:_VirtualAxis__ctor_m3287801719
hda:__ZN17GlobalGameManager23VirtualRedirectTransferER17RemapPPtrTransfer
Inf:_sfnt_stream_close
Rbj:__Z67RuntimeInvoker_Void_t1841601450_Int32_t2071877448_Int16_t4041245914PK10MethodInfoPvPS2_
Qfg:_Char_System_IConvertible_ToInt16_m2741348777_AdjustorThunk
NIc:__ZN5IMGUI18RepaintModalWindowER8GUIState
zaa:__ZN33AssetBundleLoadFromAsyncOperation19IntegrateMainThreadEv
iOg:_FontData_get_verticalOverflow_m83665814
J1i:_ReadOnlyCollection_1_System_Collections_Generic_IListU3CTU3E_set_Item_m1547026160_gshared
hyl:__ZL61MarshalAsAttribute_t2900773360_CustomAttributesCacheGeneratorP21CustomAttributesCache
GTa:__ZN7Texture13SetFilterModeEi
IXb:__Z33BuildSerializationCommandQueueForI19StreamedBinaryWriteILb0EEEvRK34BuildSerializationCommandQueueArgsR32SerializationCommandQueueBuilderRP20AllowNameConversionsbPK18TransferField_Info
Uua:__Z14CreateJobQueuePKcS0_
Ggg:_Char_ToUpper_m109978609
v7k:__ZN6il2cpp8metadata13GenericMethod9GetMethodEPK19Il2CppGenericMethod
Uqg:_Convert_ToUInt16_m2130758075
NZh:_X509BasicConstraintsExtension_Encode_m3505127076
ZEb:__ZN13GfxDeviceGLES11SetViewportERK5RectTIiE
NSe:__ZN5physx3Pvd17PvdPropertyFilterINS_2Sn17RepXVisitorReaderINS_16PxVehicleNoDriveEEEE27handleExtendedIndexPropertyILj687ES4_fKjNS_18PxUnknownClassInfoEEEvjRKNS_29PxExtendedIndexedPropertyInfoIXT_ET0_T2_T1_EERKT3_
$Qg:_Image_get_pixelsPerUnit_m4104195799
NYj:_Toggle_InternalToggle_m2323729210
fwg:_Decimal_System_IConvertible_ToInt64_m2504363272
Oxb:__Z24Time_Get_Custom_PropTimev
MFh:_List_1_CheckIndex_m622843962_gshared
uKb:__ZN14dense_hash_mapIiN11AssetBundle18ClassCompatibilityE21InstanceIDHashFunctorNSt3__18equal_toIiEE13stl_allocatorINS3_4pairIKiS1_EEL18MemLabelIdentifier65ELi16EEEixERS8_
jbg:_Array_GetValue_m3182152438
sik:_CullingGroupEvent_t1057617917_marshal_pinvoke_cleanup
Pe:_emscripten_glDepthRange
Fbi:_DESTransform_CipherFunct_m3559419566
swj:__Z91RuntimeInvoker_Boolean_t3825574718_TouchScreenKeyboardTypeU26_t2194866306_Int32_t2071877448PK10MethodInfoPvPS2_
o1d:__ZN5physx2Gu24contactConvexHeightfieldERKNS0_13GeometryUnionES3_RKNS_11PxTransformES6_RKfRNS0_5CacheERNS0_13ContactBufferE
q5e:__ZN5physx6shdfnd5ArrayIPvNS0_19ReflectionAllocatorINS_2Cm5BlockIS2_Lj8EEEEEE15growAndPushBackERKS2_
rHg:_StandaloneInputModule_get_repeatDelay_m3025279
zei:_GUILayoutGroup_CalcWidth_m4107152934
_8h:_RuntimeFieldHandle_get_Value_m3963757144
q4h:_SerializationInfo_AddValue_m1781549036
yxh:_TlsServerKeyExchange_verifySignature_m3641534563
uZi:_Collection_1_Clear_m445145071_gshared
sV:__ZNK11SoundHandle8IsStreamEv
ZWj:_Slider_FindSelectableOnLeft_m3136767885
cej:__Z75RuntimeInvoker_Void_t1841601450_Il2CppObject_RuntimeFieldHandle_t2331729674PK10MethodInfoPvPS2_
KSb:__ZN4crndL20crnd_default_reallocEPvjPjbS0_
K_f:_Array_BinarySearch_TisInt32_t2071877448_m51233948_gshared
JTa:__ZN7Texture11SetWrapModeEi
xFd:__ZN5physx24PxsComputeAABBLocalSpaceERKNS_18PxcAABBDataDynamicERNS_9PxBounds3E
AVf:_UTF32Encoding_GetPreamble_m767706727
Asj:__Z115RuntimeInvoker_Void_t1841601450_Rect_t3681755626_Il2CppObject_Int32_t2071877448_Int32_t2071877448_Int32_t2071877448PK10MethodInfoPvPS2_
oSj:_RectMask2D_get_canvasRect_m176109918
_Ug:_LayoutGroup_get_preferredHeight_m3901163825
OFc:__ZN13RuntimeStaticINSt3__13mapIy8TFShaderNS0_4lessIyEENS0_9allocatorINS0_4pairIKyS2_EEEEEEE13StaticDestroyEPv
Mef:_UNITY_FT_Init_Class_ft_bitmap_glyph_class
$Dc:__ZN4PPtrI13RenderTextureE8TransferI18StreamedBinaryReadILb0EEEEvRT_
cI:__ZN7mecanim9animation8xformPowERKN4math4trsXEi
Trg:_DateTime_AbsoluteDays_m3061694073
Wwj:__Z56RuntimeInvoker_Boolean_t3825574718_LabelData_t3712112744PK10MethodInfoPvPS2_
vB:__ZNK9Animation25GetClassIDVirtualInternalEv
gNh:_List_1_CheckIndex_m4231572822_gshared
Uw:__ZN15NavMeshSettings17MainThreadCleanupEv
oim:__ZNSt3__114__split_bufferIN6il2cpp2os19SocketHandleWrapperERNS_9allocatorIS3_EEED2Ev
UJi:_Enumerator_System_Collections_IEnumerator_get_Current_m229223308_gshared
cPl:__ZL202U3CCreateWhereIteratorU3Ec__Iterator1D_1_t2523986802_CustomAttributesCacheGenerator_U3CCreateWhereIteratorU3Ec__Iterator1D_1_System_Collections_Generic_IEnumerableU3CTSourceU3E_GetEnumerator_m2392330777P21CustomAttributesCache
Sqe:__ZN5physx6shdfnd8internal8HashBaseINS0_4PairIKNS_2Sq13PrunerPayloadEjEES5_NS0_4HashIS5_EENS1_11HashMapBaseIS5_jS9_NS0_9AllocatorEE6GetKeyESB_Lb1EE5eraseERS6_
osf:__ZNK19TextRenderingModule8TMGenGetERK11UTF16StringPN13TextRendering4FontE10TextAnchor13TextAlignmentfffbb11ColorRGBA32fii
x$d:__ZN5physx13GuMeshFactory16createConvexMeshERNS_13PxInputStreamE
vPe:__ZN5physx6shdfnd8internal8HashBaseINS0_4PairIKPKcjEES5_NS0_4HashIS5_EENS1_11HashMapBaseIS5_jS9_NS_7profile26WrapperReflectionAllocatorIjEEE6GetKeyESD_Lb1EE6createERS6_Rb
gDl:__ZL55GCHandleType_t1970708122_CustomAttributesCacheGeneratorP21CustomAttributesCache
ijk:_Event_Init_m3901382626
vlk:_AnimationPlayableUtilities_SetInputsValidated_m2696856860
rai:_SByte_Parse_m1184250496
Ieb:__ZN10FileSystem12MountHandlerEP17FileSystemHandler
Mqc:__ZNSt3__16vectorIi13stl_allocatorIiL18MemLabelIdentifier12ELi16EEE6assignINS_11__wrap_iterIPiEEEENS_9enable_ifIXaasr21__is_forward_iteratorIT_EE5valuesr16is_constructibleIiNS_15iterator_traitsISA_E9referenceEEE5valueEvE4typeESA_SA_
w8f:_LayoutGroup_SetProperty_TisInt32_t2071877448_m899147140_gshared
Ahm:__ZN6il2cpp6icalls8mscorlib6SystemL8IsStaticEPK12PropertyInfo
rig:_FixedSizeArrayListWrapper_AddRange_m2071800418
Nzb:__Z9InitInputv
BDb:__ZN4gles10SetTextureER15DeviceStateGLESj16TextureDimensionj19BuiltinSamplerState
$Dh:_Enumerator_VerifyState_m2358705882_AdjustorThunk
Kif:_UNITY_tt_face_build_cmaps
boh:_U24ArrayTypeU2464_t2866209746_marshal_pinvoke
A$d:__ZNK5physx13GuMeshFactory15getConvexMeshesEPPNS_12PxConvexMeshEjj
VVj:_Selectable_Navigate_m915280351
p5g:_AppDomain_getCurDomain_m591611373
njb:__ZN16MemoryFileSystem6DeleteER13FileEntryDatab
xOk:_Vector3_get_normalized_m936072361
mcd:__ZN5physx10NpMaterial17setStaticFrictionEf
iBh:_TlsStream_set_Position_m378064217
rO:__ZN18StreamedBinaryReadILb0EE21TransferSTLStyleArrayI13dynamic_arrayIjLj4EEEEvRT_17TransferMetaFlags
Tfd:__ZNK5physx7NpScene19getFilterShaderDataEv
uWk:_AesManaged_get_IV_m560133634
c6:_UNITY_png_icc_set_sRGB
NU:__ZN20SoundChannelInstance15setChannelGroupEPN4FMOD12ChannelGroupE
Xud:__ZN5physx2Sc19ShapeInstancePairLL26onPoseChangedWhileSleepingEv
OTb:__ZL11init_sourceP22jpeg_decompress_struct
Ujm:__ZdlPv
oMf:_Evidence_Equals_m2325859915
ROd:__ZN5physx22PxcSweepCapsuleCapsuleERKNS_11PxsCCDShapeES2_PKNS_12PxsRigidBodyES5_RKNS_11PxTransformES8_S8_S8_fRNS_6PxVec3ESA_RNS_10PxcNpCacheERNS_18PxcNpThreadContextEf
AHl:__ZL93WindowsIdentity_t373339331_CustomAttributesCacheGenerator_WindowsIdentity_Dispose_m2649088337P21CustomAttributesCache
Pwi:_Default__ctor_m172834064
Zc:invoke_vifffii
l5l:__ZL77StandaloneInputModule_t70867863_CustomAttributesCacheGenerator_m_VerticalAxisP21CustomAttributesCache
yib:__ZN20ArchiveStorageReader17MakeStorageUnusedEv
u6j:_Regex_IsMatch_m2159202025
dTe:__ZN5physx3Pvd17PvdPropertyFilterINS_2Sn17RepXVisitorReaderINS_22PxVehicleWheelsSimDataEEEE27handleExtendedIndexPropertyILj614ES4_NS_6PxVec3EKjNS_18PxUnknownClassInfoEEEvjRKNS_29PxExtendedIndexedPropertyInfoIXT_ET0_T2_T1_EERKT3_
lze:__ZNK5physx3Cct17CapsuleController21getHalfHeightInternalEv
s2i:_ReadOnlyCollection_1_System_Collections_IList_IndexOf_m3466286536_gshared
tbl:_GC_add_ext_descriptor
EKe:__ZN5physx21PxQueryFilterCallbackD2Ev
Uca:__ZN17GlobalGameManager13RegisterClassEv
UUe:__ZN5physx3Pvd17PvdPropertyFilterINS_2Sn17RepXVisitorWriterINS_21PxVehicleDriveDynDataEEEE14handleAccessorILj649ENS_22PxRepXPropertyAccessorILj649ES4_jjEEEEvjRKT0_
kya:__Z10SetupLexerPKcj
A5h:_RemotingServices_GetMethodBaseFromName_m3271095947
cSe:__ZNK5physx30PxVehicleTireDataGeneratedInfo23visitInstancePropertiesINS_18RepXPropertyFilterINS_2Sn17RepXVisitorWriterINS_17PxVehicleTireDataEEEEEEEjT_j
Blj:__Z71RuntimeInvoker_TimeSpan_t3430258949_Double_t4078015681_Int64_t909078037PK10MethodInfoPvPS2_
bhb:__ZN17ArchiveFileSystem11CreateAsDirER13FileEntryData
GIe:__ZL30GeomOverlapCallback_CapsuleBoxRKN5physx10PxGeometryERKNS_11PxTransformES2_S5_PNS_2Gu12TriggerCacheE
xwm:dynCall_iiiiiiiiiiii
ZRf:_ASCIIEncoding_GetBytes_m3617160053
rum:__ZNSt3__16vectorIPNS_6locale5facetENS_15__sso_allocatorIS3_Lj28EEEEC2Ej
RMj:_InternalEnumerator_1_MoveNext_m2289229080_AdjustorThunk
Pkj:__Z104RuntimeInvoker_Il2CppObject_Int16_t4041245914_Il2CppObject_BooleanU26_t3168250738_BooleanU26_t3168250738PK10MethodInfoPvPS2_
Lth:_CipherSuiteCollection_System_Collections_IList_RemoveAt_m143866082
G0j:_Context_get_HasGlobalDynamicSinks_m3205328884
z6b:__ZN22VertexDeclarationCacheD0Ev
Ayc:__ZN6prcoreL17RemapGenericFloatI16TexFormatRGFloat17TexFormatRGBAHalfEEvPKNS_9InnerInfoE
x9b:__ZNK21AssetBundleFileSystem8PositionERK13FileEntryData
_R:__ZN12AudioManager22CreateFMODSoundFromWWWEP10IWWWStream15FMOD_SOUND_TYPE17FMOD_SOUND_FORMATjjbbP10SampleClip
Ckk:_UnityEventBase_UnityEngine_ISerializationCallbackReceiver_OnBeforeSerialize_m1773826808
zg:_uselocale
IRb:__Z26TransformVerticesInnerLoopILb0ELb0ELb0EEvPhRK10Matrix4x4fRK10Matrix3x3fjPKhiiiS8_ii25GfxTransformVerticesFlags
Ugh:_StreamWriter_Flush_m3426120024
f9b:__ZN17FileSystemHandler10AtomicMoveER13FileEntryDataS1_
nb:invoke_iiiiiifffiiifii
cNf:_SecurityElement_IsValidTag_m64902195
WJi:_Enumerator_System_Collections_IEnumerator_get_Current_m229223308_AdjustorThunk
_Gi:_PropertyInfo_SetValue_m2961483868
Oog:_Decimal_op_Implicit_m2971610317
Odi:_GUILayoutEntry_set_style_m70917293
QKh:_List_1_System_Collections_IList_Contains_m4193366963_gshared
_Tk:_UnityEvent_3_FindMethod_Impl_m1889846153_gshared
F3j:_DictionaryEnumerator_get_Value_m1915638953
lxi:_ConstructorInfo_Invoke_m2144827141
wUl:__ZL82Object_t1021602117_CustomAttributesCacheGenerator_Object_get_hideFlags_m4158950869P21CustomAttributesCache
Lxb:__Z48Register_UnityEngine_Transform_SetAsFirstSiblingv
dxj:__Z56RuntimeInvoker_Boolean_t3825574718_UriScheme_t1876590943PK10MethodInfoPvPS2_
Pfm:__ZNSt3__114__split_bufferIN6il2cpp2vm17TypeNameParseInfoERNS_9allocatorIS3_EEEC2EjjS6_
efc:__ZN12NativeBufferI27Converter_SimpleNativeClassI10RectOffsetEE19ProcessAfterReadingER9ArrayInfoP14ScriptingClass
cGi:_MonoProperty_get_CanWrite_m2124922514
Tsb:__Z48Register_UnityEngine_Application_get_absoluteURLv
G6c:__ZN5physx3Cct10Controller6setPosERKNS_14PxExtendedVec3E
xTa:__ZN7Texture15InitializeClassEv
swe:__ZN5physx2GuL14testFaceNormalERKNS0_13PolygonalDataES3_PNS0_12SupportLocalES5_RKNS_6shdfnd3aos15PsMatTransformVESA_RKNS7_6FloatVERSB_RjRNS7_5Vec3VENS0_13FeatureStatusERSI_
Ovj:__Z36RuntimeInvoker_Enumerator_t132208513PK10MethodInfoPvPS2_
qxj:__Z112RuntimeInvoker_Int32_t2071877448_Il2CppObject_Int32_t2071877448_Int32_t2071877448_Int32_t2071877448_Il2CppObjectPK10MethodInfoPvPS2_
Xg:_poll
Ydh:_Stream_BeginRead_m1985960185
qPg:_Graphic_UnregisterDirtyVerticesCallback_m1526739224
Rjl:__ZN16VirtFuncInvoker1IP21BigInteger_t925946152iE6InvokeEjPvi
D5l:__ZL88TweenRunner_1_t2584777480_CustomAttributesCacheGenerator_TweenRunner_1_Start_m2640577060P21CustomAttributesCache
_qh:_MD4Managed_GG_m1462438360
qWa:__ZN9Transform23SetSiblingIndexInternalEib
YUj:_ScrollRect_get_minWidth_m3151814267
zqk:_RigidbodyFirstPersonController_GetInput_m4234604334
dch:_BinaryReader_CheckBuffer_m1059275266
n0b:__ZN15dense_hashtableINSt3__14pairIKNS0_12basic_stringIcNS0_11char_traitsIcEE13stl_allocatorIcL18MemLabelIdentifier54ELi16EEEEP20ArchiveStorageReaderEES8_11djb2_hash_tIS8_EN14dense_hash_mapIS8_SB_SE_NS0_8equal_toIS8_EES5_ISC_LS6_54ELi16EEE9SelectKeyESH_SI_E12resize_deltaEjj
MOg:_Graphic_get_canvasRenderer_m2902370808
FJ:__ZN7mecanim5human12HumanPoseSubERNS0_9HumanPoseERKS1_S4_
nAc:__ZN14qsort_internal8_QSortMTIP15RODataDepthPassi17ROSorterDepthPassE12ThreadedSortEPNS4_9JobHeaderE
Nqh:_MD4_Create_m2582504069
PUi:_HashSet_1_System_Collections_IEnumerable_GetEnumerator_m2498631708_gshared
c5k:__ZN6il2cpp8metadata15GenericMetadata15GetGenericClassEiPK17Il2CppGenericInst
rD:__ZN14AnimationState4InitERK8UnityStrP13AnimationClipdib
ydg:_Boolean_System_IConvertible_ToInt16_m977801621
_ra:__Z24GetFixedBehaviourManagerv
lrg:_Convert_ToUInt64_m1691869628
aZk:__ZN6il2cpp2vm10ThreadPool4WaitEP17Il2CppAsyncResultPPv
Uid:__Z21NpGetNxParticleSystemRN5physx2Sc18ParticleSystemCoreE
ph:_vfprintf
z4a:__ZN13MonoBehaviour26HandleCoroutineReturnValueE21ScriptingMethodIl2CppP15ScriptingObject
u6h:_SerializationException__ctor_m1019897788
Gqj:__Z67RuntimeInvoker_Playable_t3667545548_GenericMixerPlayable_t788733994PK10MethodInfoPvPS2_
Fik:_Debug_get_logger_m4173808038
FIl:__ZL97CompressedStack_t1568001503_CustomAttributesCacheGenerator_CompressedStack_CreateCopy_m3321727874P21CustomAttributesCache
s5:__ZNSt3__119basic_ostringstreamIcNS_11char_traitsIcEENS_9allocatorIcEEED0Ev
brk:_CrossPlatformInputManager__cctor_m1805217372
MBc:__ZN20DynamicPropertySheetD0Ev
S8a:__ZN14SafeBinaryRead17RegisterConverterEPKcS1_PFbPvRS_E
nnb:__ZN35RegisterRuntimeInitializeAndCleanup8RegisterEPFvPvES2_iS0_
iCe:__ZNK5physx19NpRigidBodyTemplateINS_14PxRigidDynamicEE17getRigidBodyFlagsEv
ZAj:__Z36RuntimeInvoker_LabelData_t3712112744PK10MethodInfoPvPS2_
Fcg:_AsyncCallback__ctor_m3071689932
uxe:__ZN14PhysicMaterial8TransferI18StreamedBinaryReadILb0EEEEvRT_
q7i:_ReadOnlyCollection_1_System_Collections_IList_Clear_m2600246370_gshared
fvm:__ZNSt3__16vectorIPNS_6locale5facetENS_15__sso_allocatorIS3_Lj28EEEE26__swap_out_circular_bufferERNS_14__split_bufferIS3_RS5_EE
A2c:__ZN4PPtrI17PhysicsMaterial2DE8TransferI18StreamedBinaryReadILb0EEEEvRT_
O6:_UNITY_png_create_read_struct
LFh:_List_1_Shift_m950637711_gshared
Pnj:__Z41RuntimeInvoker_CursorLockMode_t3372615096PK10MethodInfoPvPS2_
YOd:__ZN5physx25PxcSweepConvexHeightfieldERKNS_11PxsCCDShapeES2_PKNS_12PxsRigidBodyES5_RKNS_11PxTransformES8_S8_S8_fRNS_6PxVec3ESA_RNS_10PxcNpCacheERNS_18PxcNpThreadContextEf
ksj:__Z41RuntimeInvoker_EventModifiers_t2690251474PK10MethodInfoPvPS2_
n0g:_DSAManaged_NormalizeArray_m2287089393
ABd:__ZN5physx5cloth7SwCloth4pushERNS0_13SwConstraintsE
KNj:_InternalEnumerator_1_System_Collections_IEnumerator_get_Current_m2389982234_AdjustorThunk
Iwc:__ZN4PPtrI17ProceduralTextureE8TransferI18StreamedBinaryReadILb1EEEEvRT_
xVj:_Selectable_get_interactable_m1725029500
Tjf:_UNITY_TT_Get_MM_Var
ia:invoke_diddi
REg:_ExecuteEvents__cctor_m288775360
Utf:__ZNK2UI6Canvas13GetRenderModeEv
jzg:_Double_TryParseStringConstant_m2585405703
VEi:_MonoField_get_Attributes_m4138688533
JYk:__ZN6il2cpp2vm13MetadataCache30GetPropertyDefinitionFromIndexEi
GHf:_RijndaelTransform_Clear_m1652144089
Edd:__ZN5physx14NpRigidDynamic7releaseEv
f8f:_BaseInvokableCall_ThrowOnInvalidArg_TisIl2CppObject_m1349548392_gshared
O9i:__Z57RuntimeInvoker_Void_t1841601450_Il2CppObject_Il2CppObjectPK10MethodInfoPvPS2_
vnm:__ZNSt3__113basic_ostreamIcNS_11char_traitsIcEEE6sentryD2Ev
_lh:_NumberFormatter_get_IsZero_m1325357749
aoe:__ZN5physx6shdfnd8PoolBaseINS_21PxsBodyTransformVault13PxsBody2WorldENS0_19ReflectionAllocatorIS3_EEE15disposeElementsEv
Pba:__ZN6Object13RegisterClassEv
$zg:_Enum_ToObject_m322320225
tLf:_X509Certificate__ctor_m3860837120
tnc:__Z16Transfer_BuiltinIf18StreamedBinaryReadILb0EELb1EEvRK29SerializationCommandArgumentsR31RuntimeSerializationCommandInfo
VJb:_alloc_sarray
Jof:_gray_raster_reset
Pnk:_GameObject_Internal_CreateGameObject_m3428198595
Qgc:__ZNSt3__16vectorIj13stl_allocatorIjL18MemLabelIdentifier1ELi16EEE6assignINS_11__wrap_iterIPjEEEENS_9enable_ifIXaasr21__is_forward_iteratorIT_EE5valuesr16is_constructibleIjNS_15iterator_traitsISA_E9referenceEEE5valueEvE4typeESA_SA_
vek:_Camera_RaycastTry2D_m755036866
l7i:_ReadOnlyCollection_1_System_Collections_Generic_IListU3CTU3E_set_Item_m3663361643_gshared
ei:_catgets
jpc:__Z16Transfer_BuiltinIf19StreamedBinaryWriteILb0EELb1EEvRK29SerializationCommandArgumentsR31RuntimeSerializationCommandInfo
HEg:_EventTrigger_OnScroll_m626934407
h1:__ZN19CloudServiceHandler17InitServiceFolderEv
fQi:_Dictionary_2__ctor_m1206668798_gshared
pQa:__ZN2UI13RectTransform16UpdateCachedRectEb
bjf:_UNITY_tt_face_load_pclt
Qhb:__ZN21ArchiveStorageCreator14StoreDirectoryEv
vYb:__ZL34GetComponentsImplementationRecurseILb1ELi0ELi2EEbR10GameObjectbRK17CompareParametersRK39GetComponentsImplementation_ReturnValue
_dl:__ZN6il2cpp6icalls8mscorlib6System9Threading5Mutex20CreateMutex_internalEbP12Il2CppStringPb
sIb:__GLOBAL__sub_I_MeshVertexFormat_cpp
l$a:__ZNK17AnimationCurveTplI8Vector3fE13EvaluateClampEf
Djj:__Z50RuntimeInvoker_Int16_t4041245914_Int16_t4041245914PK10MethodInfoPvPS2_
$hg:_ArrayListWrapper_Remove_m1105489978
Dha:__ZNK6Camera18WorldToScreenPointERK8Vector3fPb
d0e:__ZN5physx2Cm12DelegateTaskINS_10PxsContextEXadL_ZNS2_28mergeCMDiscreteUpdateResultsEPNS_10PxBaseTaskEEEE11runInternalEv
huh:_TlsClientSettings_set_TargetHost_m3421266913
YXd:__ZN5physx19TriangleMeshBuilder10importMeshERKNS_18PxTriangleMeshDescERKNS_15PxCookingParamsEb
iyb:__Z45Playable_CUSTOM_INTERNAL_CALL_IsValidInternalR9HPlayable
I4l:__ZL109PointerEventData_t1599784723_CustomAttributesCacheGenerator_PointerEventData_get_eligibleForClick_m2497780621P21CustomAttributesCache
f9f:_Array_InternalArray__get_Item_TisILTokenInfo_t149559338_m2004750537_gshared
wF:__ZN7mecanim9animation19AdjustPoseForMotionERKNS0_14AvatarConstantERKNS0_14SkeletonTQSMapERKN4math4trsXERNS_10ValueArrayERNS_8skeleton13SkeletonPoseTIS8_EESG_
VIj:_InternalEnumerator_1_Dispose_m549215360_AdjustorThunk
Yfg:_Convert_ToSByte_m2665932200
qej:__Z111RuntimeInvoker_Void_t1841601450_Il2CppObject_Int32_t2071877448_Int32_t2071877448_Il2CppObject_Int32_t2071877448PK10MethodInfoPvPS2_
OFk:_PKCS12_Encrypt_m2154408631
Eyi:_ILGenerator_label_fixup_m1325994348
mNi:_ValueCollection_System_Collections_ICollection_get_IsSynchronized_m45572582_gshared
r_f:_Array_InternalArray__IEnumerable_GetEnumerator_TisContactPoint2D_t3659330976_m478005999_gshared
LRj:_Navigation_Equals_m4214630671_AdjustorThunk
M0l:__ZL88GUIStyle_t1799908754_CustomAttributesCacheGenerator_GUIStyle_GetFontInternal_m3509743324P21CustomAttributesCache
S7e:__ZN5physx6shdfnd5ArrayINS_18PxClothFabricPhaseENS0_19ReflectionAllocatorIS2_EEE8recreateEj
Gtc:__ZN26EnlightenSystemInformation8TransferI14SafeBinaryReadEEvRT_
S8f:_Array_InternalArray__get_Item_TisLink_t2723257478_m2281261655_gshared
$Hb:__GLOBAL__sub_I_RenderSettings_cpp
ZRd:__ZN5physx2Sq17SceneQueryManager11shiftOriginERKNS_6PxVec3E
M4b:__ZN12MeshRendererD0Ev
g$:__ZN4PPtrI15AudioMixerGroupE8TransferI18StreamedBinaryReadILb1EEEEvRT_
a8j:_ExpressionAssertion_IsComplex_m783019628
Pkg:_Hashtable__ctor_m2702360557
Dqa:__Z31GetInterpolatedLightAttenuationRK17LightProbeContextRK29LightProbeSamplingCoordinatesPK15SharedLightData
i0d:__ZN5physx10writeChunkEaaaaRNS_14PxOutputStreamE
Ntg:_DateTimeFormatInfo_get_RawAbbreviatedDayNames_m3998113647
TMb:__ZNSt3__16__treeINS_12__value_typeIi17ShadowCachingDataEENS_19__map_value_compareIiS3_NS_4lessIiEELb1EEE13stl_allocatorIS3_L18MemLabelIdentifier64ELi16EEE7destroyEPNS_11__tree_nodeIS3_PvEE
LRi:_DefaultComparer_GetHashCode_m2596628120_gshared
Mgl:__ZN16VirtFuncInvoker0IP8String_tE6InvokeEjPv
zph:_PrimalityTest_Invoke_m4058801829
k5h:_RemotingConfiguration_SetCustomErrorsMode_m1844153208
Fp:FUNCTION_TABLE_viiiiii
yrd:__ZN5physx2Sc9RigidCore13onShapeChangeERNS0_9ShapeCoreENS_7PxFlagsINS0_21ShapeChangeNotifyFlag4EnumEjEENS4_INS_11PxShapeFlag4EnumEhEE
MAf:__ZN11UnityEngine7Connect13ConnectConfig11ResetValuesEv
cH:__ZN7mecanim9animation22DestroyAvatarWorkspaceEPNS0_15AvatarWorkspaceERNS_6memory9AllocatorE
gs:__ZN12NavMeshAgent12AddToManagerEv
BIk:_ScriptableObject_CreateInstance_m3271154163
w9l:__ZL75ToggleGroup_t1030026315_CustomAttributesCacheGenerator_U3CU3Ef__amU24cache2P21CustomAttributesCache
n1h:_FactoryCache__ctor_m254400436
y5e:__ZN5physx6shdfnd5ArrayIPvNS0_15InlineAllocatorILj256ENS0_19ReflectionAllocatorINS_2Sc19ParticlePacketShapeEEEEEE15growAndPushBackERKS2_
rec:__ZN27Converter_SimpleNativeClassI17AnimationCurveTplIfEE17NativeToScriptingERKS1_RP15ScriptingObject
GMd:__ZN5physx17solveContactBlockEPKNS_23PxcSolverConstraintDescEjRNS_16PxcSolverContextE
vZd:__ZN5physx6shdfnd10FoundationD2Ev
vqa:__ZN15LightmapSTCacheC2ER13BatchRendererR15RenderLoopStats
uLl:__ZL79Convert_t2607082565_CustomAttributesCacheGenerator_Convert_ToUInt64_m1896191125P21CustomAttributesCache
oKl:__ZL76Convert_t2607082565_CustomAttributesCacheGenerator_Convert_ToInt64_m44696721P21CustomAttributesCache
P5h:_TrackingServices__cctor_m3639412334
Rxa:__ZN9ShaderLab11shaderprops9GetVectorEPK19ShaderPropertySheetS3_NS_16FastPropertyNameERNS0_16PropertyLocationE
tnm:__ZTv0_n12_NSt3__113basic_ostreamIcNS_11char_traitsIcEEED0Ev
RH:__ZN7mecanim9animation29MotionOutputGetDeltaTransformEPKNS0_12MotionOutputE
wuk:_SimpleMouseRotator__ctor_m841363956
puh:_ClientRecordProtocol_createClientHandshakeMessage_m811708715
gda:__ZN17GlobalGameManager23VirtualRedirectTransferER19StreamedBinaryWriteILb0EE
qji:_Hash128_op_Equality_m4074554660
VD:__ZN8Animator14OnAddComponentEPN5Unity9ComponentE
Oji:_Input_GetAxis_m2098048324
JRh:_List_1_CheckMatch_m1184924052_gshared
Gqd:__ZN5physx2Sc10NPhaseCoreD2Ev
qpd:__ZN5physx2Sc7BodySim18onConstraintDetachEv
oLk:_Touch_get_fingerId_m4109475843_AdjustorThunk
bqk:_FOVKick_FOVKickUp_m3822355423
o0k:__ZN6il2cpp2os4File9SetLengthEPNS0_10FileHandleExPi
pBm:_glGetShaderInfoLog__wrapper
Lj:_emscripten_glGetTexParameteriv
_fd:__ZN5physx7NpScene8simulateEfPNS_10PxBaseTaskEPvjb
BKh:_List_1_ToArray_m3752387798_gshared
yqd:__ZThn8_N5physx2Sc24ElementInteractionMarker10onActivateEj
Wrh:_RSAManaged_ImportParameters_m3060955884
e3g:_DeriveBytes__ctor_m3089550878
nlh:_NotImplementedException__ctor_m1305569814
Stm:__ZNKSt3__17num_getIcNS_19istreambuf_iteratorIcNS_11char_traitsIcEEEEE17__do_get_unsignedIjEES4_S4_S4_RNS_8ios_baseERjRT_
yTe:__ZN5physx18RepXPropertyFilterINS_2Sn17RepXVisitorReaderINS_17PxVehicleTireDataEEEEclILj597ES3_ffEEvRKNS_14PxPropertyInfoIXT_ET0_T1_T2_EEj
b$j:_ChannelData_CopyFrom_m4049054607
b4l:__ZL94AxisEventData_t1524870173_CustomAttributesCacheGenerator_AxisEventData_get_moveDir_m3968662359P21CustomAttributesCache
e$f:_Array_FindLastIndex_TisIl2CppObject_m869210470_gshared
TBa:__ZN8PlayableD0Ev
cee:__Z34Joint_Set_Custom_PropConnectedBodyP15ScriptingObjectS0_
gde:__ZN9Rigidbody5SleepEv
W_:__ZN12AudioManager8TransferI19StreamedBinaryWriteILb0EEEEvRT_
SL:__ZN4PPtrI25RuntimeAnimatorControllerE8TransferI18StreamedBinaryReadILb1EEEEvRT_
Ceh:_WriteDelegate_Invoke_m2103848735
zLh:_List_1_get_Capacity_m4262042666_gshared
YTf:_Encoding_get_HeaderName_m3876347551
axl:__ZL72Il2CppArray_CustomAttributesCacheGenerator_Array_LastIndexOf_m4096535198P21CustomAttributesCache
ILi:_Transform_1_EndInvoke_m687617772_gshared
yzj:__Z66RuntimeInvoker_Void_t1841601450_Int32_t2071877448_Mark_t2724874473PK10MethodInfoPvPS2_
EUk:_U3CStartU3Ec__Iterator0_Reset_m2580847683_gshared
msc:__ZNK32RendererMaterialAnimationBinding12GetPPtrValueERKN11UnityEngine9Animation10BoundCurveE
WWe:__ZN5physx3Pvd17PvdPropertyFilterINS_2Sn17RepXVisitorWriterINS_30PxVehicleAckermannGeometryDataEEEE14handleAccessorILj550ENS_22PxRepXPropertyAccessorILj550ES4_ffEEEEvRKT0_
yad:__ZN5physx18NpArticulationLink10clearForceENS_11PxForceMode4EnumE
U4h:_RemotingConfiguration_get_ProcessId_m3870172209
$Vc:__ZN12ParticleSort12CompareValueERKS_S1_
h2d:__ZN5physx2Gu30distanceSegmentTriangleSquaredERKNS_6PxVec3ES3_S3_S3_S3_PfS4_S4_
stf:__ZN2UI11CanvasGroup12CleanupClassEv
qIk:_SceneManager_LoadScene_m1386820036
f7g:_SortKey_ToString_m2406913228
Kfb:__ZN22LocalFileSystemHandler9MakeLocalER13FileEntryDatab
JMf:_String_op_Inequality_m304203149
w8k:__ZN6il2cpp2vm8Profiler10AllocationEP12Il2CppObjectP11Il2CppClass
Jog:_Convert_ToDateTime_m1020507389
Qu:__Z18dtDistancePtSegSqrPKfS0_S0_Rf
pLg:_ColorTween_AddOnChangedCallback_m3190875685
Afm:__ZN13dynamic_arrayIP12Il2CppObjectLj4EE10reallocateEPS1_j
Ofh:_Path_IsPathRooted_m1347207448
$7h:_ObjectManager_RegisterObjectInternal_m879109503
WWf:_Array_get_swapper_TisVector4_t2243707581_m97441823_gshared
qFe:__ZNK5physx15NpActorTemplateINS_7PxClothEE12getAggregateEv
DW:__ZN4FMOD8ChannelI15setChannelGroupEPNS_12ChannelGroupE
kDa:__ZN14CompressedMesh10GetQualityE15MeshCompression
sBc:__ZN25DeferredRenderLoopScratchD0Ev
qIl:__ZL90UTF7Encoding_t741406939_CustomAttributesCacheGenerator_UTF7Encoding_GetHashCode_m359766848P21CustomAttributesCache
Mcj:__Z52RuntimeInvoker_Decimal_t724701077_Single_t2076509932PK10MethodInfoPvPS2_
t0e:__ZNK5physx2Cm12DelegateTaskINS_13PxsCCDContextEXadL_ZNS2_14postCCDAdvanceEPNS_10PxBaseTaskEEEE7getNameEv
qGf:__ZN21DownloadHandlerBufferD0Ev
QOb:__ZNSt3__16vectorI4PPtrI17ProceduralTextureE13stl_allocatorIS3_L18MemLabelIdentifier77ELi16EEE6assignIPS3_EENS_9enable_ifIXaasr21__is_forward_iteratorIT_EE5valuesr16is_constructibleIS3_NS_15iterator_traitsISB_E9referenceEEE5valueEvE4typeESB_SB_
o8b:__ZN15ResourceManagerD0Ev
PZh:_X509BasicConstraintsExtension_get_HasPathLengthConstraint_m3788532759
l7l:__ZL65InputField_t1631627530_CustomAttributesCacheGenerator_m_InputTypeP21CustomAttributesCache
Amc:__Z22Transfer_Builtin_AlignIa18StreamedBinaryReadILb0EELb0EEvRK29SerializationCommandArgumentsR31RuntimeSerializationCommandInfo
iKa:__ZN22CreateGpuProgramOutputD2Ev
Shl:__ZN21InterfaceFuncInvoker1Ii38CustomAttributeNamedArgument_t94157543E6InvokeEjP11Il2CppClassPvS0_
S6c:__ZNK5physx3Cct15ObstacleContext14getNbObstaclesEv
xsa:__ZNK18DelayedCallManager25GetClassIDVirtualInternalEv
ZMb:__ZNSt3__16__sortIR23CompareReflectionProbesP31RuntimeReflectionProbeBlendInfoEEvT0_S5_T_
TIf:_RSACryptoServiceProvider_EncryptValue_m802714447
b4k:__ZN6il2cpp6icalls8mscorlib6System2IO6MonoIO9SetLengthE12Il2CppIntPtrxPi
Foi:_UnityWebRequest_Post_m3438227921
NJl:__ZL76Convert_t2607082565_CustomAttributesCacheGenerator_Convert_ToByte_m932798552P21CustomAttributesCache
Vid:__ZN5physx16NpParticleSystem23setParticleReadDataFlagENS_22PxParticleReadDataFlag4EnumEb
mgd:__ZN5physx7NpScene26removeFromParticleBaseListERNS_14PxParticleBaseE
ttg:_DateTimeFormatInfo_GetInstance_m3133223810
oph:_ModulusRing_BarrettReduction_m2802101099
pej:__Z57RuntimeInvoker_ExtenderType_t1556892101_Int32_t2071877448PK10MethodInfoPvPS2_
NJe:__ZN5physx23NpParticleFluidReadData18getDataAccessFlagsEv
kgb:__ZN12HandlerChain4OpenER13FileEntryData14FilePermission16FileAutoBehavior
RCj:__Z76RuntimeInvoker_Il2CppObject_UILineInfo_t3621277874_Il2CppObject_Il2CppObjectPK10MethodInfoPvPS2_
jEi:_MonoMethodInfo_GetParametersInfo_m3456861922
qBj:__Z37RuntimeInvoker_UILineInfo_t3621277874PK10MethodInfoPvPS2_
TVe:__ZN5physx3Pvd17PvdPropertyFilterINS_2Sn17RepXVisitorReaderINS_21PxVehicleDriveDynDataEEEE27handleExtendedIndexPropertyILj636ES4_fKjNS_18PxUnknownClassInfoEEEvjRKNS_29PxExtendedIndexedPropertyInfoIXT_ET0_T2_T1_EERKT3_
qig:_FixedSizeArrayListWrapper_Add_m1263586472
_va:__ZN14FileCacherReadD2Ev
lJf:_RSAPKCS1SignatureDeformatter_VerifySignature_m1825067195
oUd:__ZN5physx22PxVehicleWheelsSimData26setTireForceAppPointOffsetEjRKNS_6PxVec3E
cqb:__Z50Register_UnityEngine_CullingGroup_FinalizerFailurev
jCh:_KeyValuePair_2_ToString_m2613351884_gshared
bEd:__ZN5physx5cloth8SwSolverC2EPNS_13PxProfileZoneEPNS_13PxTaskManagerE
E8b:__ZN27UnloadUnusedAssetsOperationD0Ev
qga:__ZN6Camera15ThreadedCleanupEv
lO:__ZN26AnimatorControllerPlayable6MemoryD2Ev
NIj:_InternalEnumerator_1_MoveNext_m2904932349_AdjustorThunk
Y5l:__ZL69ColorBlock_t2652774230_CustomAttributesCacheGenerator_m_DisabledColorP21CustomAttributesCache
UVi:_Collection_1_System_Collections_IList_IndexOf_m1667133881_gshared
wSj:_Scrollbar__ctor_m2244981801
Z3k:__ZN6il2cpp6icalls8mscorlib6System2IO6MonoIO9GetLengthE12Il2CppIntPtrPi
a8h:_ObjectRecord_get_HasPendingFixups_m670959802
YOi:_Dictionary_2_Resize_m2807616086_gshared
$2e:__ZThn4_NK5physx5cloth9ClothImplINS0_7SwClothEE14getNumCapsulesEv
Pze:__ZNK5physx3Ext5JointINS_15PxDistanceJointENS_30PxDistanceJointGeneratedValuesEE16getInvMassScale1Ev
QJf:_SHA256Managed_HashCore_m4111458495
bQb:__ZNSt3__16vectorIN9ShaderLab16ParserSubProgram14ConstantBufferENS_9allocatorIS3_EEE21__push_back_slow_pathIKS3_EEvRT_
Zpl:__ZNSt3__16__treeINS_12__value_typeIP11Il2CppClassS3_EENS_19__map_value_compareIS3_S4_NS_4lessIS3_EELb1EEENS_9allocatorIS4_EEE4findIS3_EENS_15__tree_iteratorIS4_PNS_11__tree_nodeIS4_PvEEiEERKT_
Z7h:_ObjectManager_RecordDelayedFixup_m1895730844
Ibg:_ArrayTypeMismatchException__ctor_m1898555879
LNh:_List_1_System_Collections_IList_get_IsFixedSize_m3522184224_gshared
YQ:__ZN9AudioClip23VirtualRedirectTransferER18StreamedBinaryReadILb0EE
Wgc:__Z14resize_trimmedINSt3__16vectorIs13stl_allocatorIsL18MemLabelIdentifier1ELi16EEEEEvRT_j
tai:_SByte_Parse_m2544167007
OOf:_Single_CompareTo_m2081476257
cyg:_StackFrame_GetILOffset_m115192054
vzd:__ZN5physx2Sc9ClothCore22removeCollisionCapsuleEj
F9h:_RuntimeTypeHandle_GetHashCode_m3697629454_AdjustorThunk
DZg:_BigInteger__ctor_m2945783161
Hwh:_TlsClientHello_Update_m1723542631
XEl:__ZL96ProxyAttribute_t4031752430_CustomAttributesCacheGenerator_ProxyAttribute_IsContextOK_m2391079277P21CustomAttributesCache
Zxe:__ZNSt3__16vectorIN5physx10PxSweepHitENS_9allocatorIS2_EEE8__appendEj
RJd:__ZN5physx16PxsFluidDynamics15schedulePacketsENS_16PxsSphUpdateTypeERNS_10PxBaseTaskE
gKd:__ZN5physx16PxsIslandManager25setArticulationLinkHandleEjPvRKNS_20PxsIslandManagerHookIjLj4294967295EEE
V5i:_ReadOnlyCollection_1_CopyTo_m1652036789_gshared
sl:_glCopyTexSubImage2D
J4h:_RealProxy_InternalGetTransparentProxy_m3415358600
psc:__ZNK24RendererAnimationBinding13GetFloatValueERKN11UnityEngine9Animation10BoundCurveE
UV:__ZN4FMOD6SoundIC2EPNS_7SystemIE
qGm:_glActiveTexture__wrapper
AVi:_Collection_1_Insert_m3594407958_gshared
A8:_UNITY_png_write_zTXt
cAb:__ZN18ScreenManagerWebGL13SetShowCursorEb
z8k:__ZN6il2cpp6icalls8mscorlib6System7Convert24InternalFromBase64StringEP12Il2CppStringb
UKf:_SymmetricAlgorithm_CreateDecryptor_m4240570785
lYj:_Text_get_preferredWidth_m3352156860
Zej:__Z86RuntimeInvoker_Boolean_t3825574718_Il2CppObject_Il2CppObject_Il2CppObject_Il2CppObjectPK10MethodInfoPvPS2_
mwi:_AssemblyCompanyAttribute__ctor_m1217508649
upa:__ZN10GUIElement12AddToManagerEv
D8e:__ZN5physx6shdfnd5ArrayIPNS_3Scb5ShapeENS0_15InlineAllocatorILj16ENS0_19ReflectionAllocatorIS4_EEEEE15growAndPushBackERKS4_
Cwd:__ZNK5physx2Sc18ParticleSystemCore15getParticleMassEv
YHd:__ZN5physx37UpdateAtomProgressesWithArticulationsEPNS_23PxcSolverConstraintDescEjjjPjj
B5i:_ReadOnlyCollection_1_System_Collections_Generic_IListU3CTU3E_RemoveAt_m878653284_gshared
PCg:_DateTimeFormatInfo_GetFormat_m3676195179
zDm:_emscripten_glGenVertexArrays__wrapper
WKb:__ZN11GameManager7PRODUCEE18MemLabelIdentifier18ObjectCreationMode
dqj:__Z36RuntimeInvoker_HideFlags_t1434274199PK10MethodInfoPvPS2_
HOb:__ZN6prcoreL21CreateRemapAnyBlitterE13TextureFormatS0_
lfl:__ZN6il2cpp2os5Event4WaitEjb
c$a:__ZN17AnimationCurveTplIfE16StripInvalidKeysEv
Com:__ZNSt3__19__num_getIcE19__stage2_float_loopEcRbRcPcRS4_ccRKNS_12basic_stringIcNS_11char_traitsIcEENS_9allocatorIcEEEEPjRSE_RjS4_
WWb:__ZN15dense_hashtableINSt3__14pairIKiiEEi21InstanceIDHashFunctorN14dense_hash_mapIiiS4_NS0_8equal_toIiEE13stl_allocatorIS3_L18MemLabelIdentifier1ELi16EEE9SelectKeyES7_SA_E12maybe_shrinkEv
ZBf:__ZN20UnityWebRequestProtoI19TransportJavaScript16AtomicRefCounter14RedirectHelper14ResponseHelper15DownloadHandler13UploadHandler12HeaderHelper14AsyncOperationE19Job_InvokeCoroutineEPv
bBa:__ZNK18PlayableController7GetTimeEv
X0f:_Array_InternalArray__ICollection_Add_TisKeyValuePair_2_t3716250094_m2381539361_gshared
j4g:_X509Extension_WriteLine_m2850991173
buf:__ZNK2UI6Canvas17GetSortingLayerIDEv
Vvl:__ZL40UIntPtr_t_CustomAttributesCacheGeneratorP21CustomAttributesCache
N2c:__ZN14Raycast2DQuery8RunQueryEb
T9l:__ZL70GridLayoutGroup_t1515633077_CustomAttributesCacheGenerator_m_StartAxisP21CustomAttributesCache
o$k:_il2cpp_type_get_class_or_element_class
sYf:_Array_InternalArray__ICollection_Remove_TisInt64_t909078037_m2653583130_gshared
mYa:__Z26RegisterClass_InputManagerv
Svk:_Thread_get_ExecutionContext_m922067206
y4:__ZN11UnityEngine15CloudWebService13WWWRestClient18GetEditableHeadersEv
Fcc:__ZN14SafeBinaryRead19TransferSTLStyleMapINSt3__13mapIN9ShaderLab16FastPropertyNameEfNS1_4lessIS4_EENS1_9allocatorINS1_4pairIKS4_fEEEEEEEEvRT_17TransferMetaFlags
Mcc:__ZN4PPtrI7TextureE8TransferI14SafeBinaryReadEEvRT_
mBd:__ZN5physx2Sc8ClothSim16addCollisionMeshEPKNS0_8ShapeSimE
z1j:_SynchronizedClientContextSink__ctor_m978504596
PNd:__ZN5physx21solveExtFrictionBlockEPKNS_23PxcSolverConstraintDescEjRNS_16PxcSolverContextE
RRe:__ZN5physx6shdfnd5ArrayINS_12PxFilterDataENS0_15InlineAllocatorILj80ENS0_19ReflectionAllocatorIS2_EEEEE6resizeEjRKS2_
JUa:__Z23RegisterClass_Texture2Dv
UTj:_ScrollRect_get_viewport_m3177057249
Ap:FUNCTION_TABLE_iiiiiiiiiiiiii
xoe:__ZN5physx6shdfnd5ArrayIPKNS_10PxsCCDBodyENS0_19ReflectionAllocatorIS4_EEE8recreateEj
Xac:__ZN14DrawBufferGLESI12VertexBuffer27VertexBufferUsageMapperGLESED2Ev
aFi:_MonoField_IsDefined_m1871511958
K3e:__ZThn4_N5physx5cloth9ClothImplINS0_7SwClothEE16setRestPositionsENS0_5RangeIKNS_6PxVec4EEE
Hyf:__ZN19UnityConnectService18OnPlayerQuitStaticEPS_
$uj:__Z35RuntimeInvoker_ScaleMode_t987318053PK10MethodInfoPvPS2_
G0e:__ZN5physx6shdfnd5ArrayINS_5cloth13MovingAverage7ElementENS0_9AllocatorEE8recreateEj
IDf:__ZNK26DownloadHandlerAssetBundle11GetProgressEv
WTb:__ZN16LightmapSettings8TransferI18StreamedBinaryReadILb0EEEEvRT_
Lif:_UNITY_tt_get_cmap_info
J_h:_X509Certificate2Enumerator_get_Current_m2016493949
vSf:_DecoderExceptionFallback_GetHashCode_m2972426052
cma:__ZN16ReflectionProbes8ScheduleEN18ReflectionProbeJob7JobTypeEP15ReflectionProbei
h7f:_Array_swap_TisCustomAttributeTypedArgument_t1498197914_m885124357_gshared
v_i:_Collection_1_IsFixedSize_m3675221982_gshared
sXe:__ZN5physx2Sn21RepXVisitorReaderBaseINS_23PxVehicleDriveSimData4WEE8pushNameEPKc
xKl:__ZL77Convert_t2607082565_CustomAttributesCacheGenerator_Convert_ToSByte_m883113940P21CustomAttributesCache
cfa:__ZN16MessageForwarder13HandleMessageEPviR11MessageData
cFh:_Enumerator_MoveNext_m3293920409_AdjustorThunk
y$k:__ZN6il2cpp2vm7Runtime6InvokeEPK10MethodInfoPvPS5_PP15Il2CppException
nBc:__ZN14qsort_internal31_FindAndMovePivotToLastPositionIP16RenderObjectDatai26RenderDeferredObjectSorterEEvT_S4_T0_T1_
bhm:__ZN6il2cpp2gc9AllocatorINSt3__111__hash_nodeINS2_17__hash_value_typeINS2_4pairIPK9FieldInfoP11Il2CppClassEEP21Il2CppReflectionFieldEEPvEEE10deallocateESF_j
eCe:__ZN5physx19NpRigidBodyTemplateINS_14PxRigidDynamicEE20setRigidDynamicFlagsENS_7PxFlagsINS_15PxRigidBodyFlag4EnumEhEE
zAi:_GenericTypeParameterBuilder_get_DeclaringType_m1652924692
Gka:__ZN5Light23VirtualRedirectTransferER18StreamedBinaryReadILb1EE
aQj:_Comparer_1__cctor_m3112251759_gshared
ES:__ZN12AudioManager23VirtualRedirectTransferER13ProxyTransfer
nxb:__Z34Transform_CUSTOM_SetAsFirstSiblingP15ScriptingObject
bZh:_X509KeyUsageExtension_ToString_m1992050580
Hef:_UNITY_FT_GlyphLoader_Done
r4i:_ReadOnlyCollection_1_System_Collections_Generic_ICollectionU3CTU3E_Add_m2975080319_gshared
N_j:_ConstructionCall__ctor_m1143766850
Lii:_GUIStyleState_Init_m2434147050
s8d:__ZN19CharacterController12SetIsTriggerEb
bQj:_Comparer_1_System_Collections_IComparer_Compare_m3203078743_gshared
TEe:__ZN5physx22NpParticleBaseTemplateINS_16PxParticleSystemENS_16NpParticleSystemEE20setMaxMotionDistanceEf
Nvh:_Context_get_RandomSC_m1687420621
JFb:__ZN13GfxDeviceGLES17UploadTextureCubeE9TextureIDPKhiii13TextureFormatij17TextureColorSpace
O$l:__ZL67GUISkin_t1436893342_CustomAttributesCacheGenerator_m_verticalSliderP21CustomAttributesCache
rRb:__Z18SkinGenericMathLibILi2ELb1ELb0EEvR12SkinMeshInfo
hfg:_Byte_CompareTo_m1850579028
AHd:__ZN5physx18ComputeSortedListsEPNS_2Cm10BitMapBaseINS_6shdfnd9AllocatorEEEjjPKjPPNS_8SapBox1DES7_PjSB_jRKNS_2Gu4AxesESB_RjSB_SG_RbSH_
dTc:__ZN37RotationBySpeedModulePropertyBindings13AddPropertiesER10vector_mapIi22ParticleModulePropertyNSt3__14lessIiEENS2_9allocatorINS2_4pairIiS1_EEEEE
gka:__ZNK21IntermediateRenderers16GetBoundingBoxesEv
xxe:__ZL28VehicleWheelRaycastPreFilterN5physx12PxFilterDataES0_PKvjRNS_7PxFlagsINS_9PxHitFlag4EnumEtEE
zof:_tt_cmap14_char_var_index
pse:__Z48setPxVehicleTireLoadFilterDataMMaxNormalisedLoadPN5physx27PxVehicleTireLoadFilterDataEf
lek:_Camera_INTERNAL_CALL_ScreenPointToRay_m2752248646
Clj:__Z77RuntimeInvoker_TimeSpan_t3430258949_TimeSpan_t3430258949_TimeSpan_t3430258949PK10MethodInfoPvPS2_
Mpf:_psh_globals_new
qeh:_FileStream_Seek_m950719389
mHg:_StandaloneInputModule_set_allowActivationOnMobileDevice_m2631121618
Wwg:_Decimal_stripStyles_m294582157
Bek:_Canvas_remove_willRenderCanvases_m1070419298
$xl:__ZL61RuntimeFieldHandle_t2331729674_CustomAttributesCacheGeneratorP21CustomAttributesCache
yoj:__Z73RuntimeInvoker_Single_t2076509932_Vector3_t2243707580_Vector3_t2243707580PK10MethodInfoPvPS2_
X4b:__ZN9GfxDevice20SetMaxBufferedFramesEi
sLh:_List_1_RemoveAll_m4125997475_gshared
Hpm:__ZNKSt3__18time_getIwNS_19istreambuf_iteratorIwNS_11char_traitsIwEEEEE13do_date_orderEv
ipm:__ZNKSt3__18time_getIcNS_19istreambuf_iteratorIcNS_11char_traitsIcEEEEE13do_date_orderEv
$T:__ZN24AudioScriptBufferManagerD2Ev
Pwm:dynCall_vdd
cVe:__ZN5physx2Sn21RepXVisitorReaderBaseINS_16PxVehicleDriveNWEE8pushNameEPKc
VXi:_Collection_1_System_Collections_IList_Insert_m3083278457_gshared
Bqj:__Z71RuntimeInvoker_Boolean_t3825574718_Int32_t2071877448_Single_t2076509932PK10MethodInfoPvPS2_
h1c:__ZN12b2MouseJoint11ShiftOriginERK6b2Vec2
$6h:_ObjectReader_ReadObjectGraph_m1994105549
ITd:__ZN5physx15computeTankDiffEffjPKbPfS2_S2_
t9c:__ZNK5physx14NpArticulation17releaseDriveCacheERNS_24PxArticulationDriveCacheE
Noh:_BigInteger_Incr2_m505983313
Vck:_PCMReaderCallback_BeginInvoke_m3119095492
hwa:__ZN22MemoryCacherReadBlocksD2Ev
bhg:_ArrayList_get_Count_m523955479
Bxj:__Z85RuntimeInvoker_Int32_t2071877448_Vector3_t2243707580_Vector3_t2243707580_Il2CppObjectPK10MethodInfoPvPS2_
vig:_FixedSizeArrayListWrapper_Remove_m1359458911
Pqb:__Z46Mesh_CUSTOM_PrintErrorBadSubmeshIndexTrianglesP15ScriptingObject
hpe:__ZN5physx18collideWithCapsuleERNS_19PxsParticleCollDataERKNS_17PxCapsuleGeometryEf
eEa:__ZN4Mesh24UpdateSubMeshVertexRangeEi
Bnm:__ZThn8_NSt3__114basic_iostreamIcNS_11char_traitsIcEEED1Ev
Yzd:__ZNK5physx2Sc9ClothCore25getSelfCollisionStiffnessEv
Oka:__Z20AddActiveLocalLightsRK27LocalLightCullingParametersRK14ShadowCullDataPK8Vector4fPPK5LightRK9IndexListPfRSC_R12ActiveLightsP15LightScreenInfo
ys:__ZN15NavMeshObstacle11UpdateStateEv
wel:__ZN6il2cpp2os9FastMutex4LockEv
Rlj:__Z47RuntimeInvoker_SecurityProtocolType_t3099771628PK10MethodInfoPvPS2_
Wcm:__ZL70U3CDeactivateU3Ec__Iterator7_t707185159_CustomAttributesCacheGeneratorP21CustomAttributesCache
Gna:__ZNK14RenderSettings19GetFlatAmbientColorEv
LOb:__ZN6prcoreL10inner_flipILj4EEEvPhS1_j
QG:__ZNK27StateMachineBehaviourPlayer15IsSenderEnabledEv
TGa:__Z19CalculateVertexSizejRK20VertexChannelsLayoutPj
oHc:__ZN13RuntimeStaticIN11AssetBundle26ClassCompatibilityRegistryEE13StaticDestroyEPv
NIi:_Enumerator_VerifyState_m2118679243_gshared
_rb:__Z39SortingLayer_CUSTOM_GetLayerValueFromIDi
fRf:_String_Concat_m56707527
Cxb:__Z40Register_UnityEngine_Transform_SetParentv
adk:_AudioConfigurationChangeHandler_Invoke_m635374412
Jzh:_SslClientStream_get_HaveRemoteValidation2Callback_m3555576758
mVa:__ZN14Texture2DArray17UploadToGfxDeviceEv
X4i:_ReadOnlyCollection_1_System_Collections_Generic_IListU3CTU3E_Insert_m4216310986_gshared
f1i:_ReadOnlyCollection_1_System_Collections_Generic_IListU3CTU3E_set_Item_m1532495847_gshared
FR:__Z14FMODMemoryFreePvjPKc
NEj:_InternalEnumerator_1_System_Collections_IEnumerator_Reset_m3731327620_AdjustorThunk
Y6b:__ZThn28_N8RendererD0Ev
vZe:__ZN5physx6shdfnd4sortIPvNS0_4LessIS2_EENS0_19ReflectionAllocatorIN17PxcPoolMallocData9PoolData8EEEEEvPT_jRKT0_RKT1_
Y_e:__ZN5physx2Cm12DelegateTaskINS_17PxsFluidCollisionEXadL_ZNS2_12mergeResultsEPNS_10PxBaseTaskEEEED0Ev
Ur:__ZN12NavMeshAgent10SmartResetEv
Qnf:_tt_cmap0_validate
U4l:__ZL104PointerEventData_t1599784723_CustomAttributesCacheGenerator_PointerEventData_get_worldNormal_m1704987468P21CustomAttributesCache
KPk:_YieldInstruction_t3462875981_marshal_pinvoke_cleanup
jMf:_Evidence_get_IsSynchronized_m1427392003
jif:_cf2_glyphpath_moveTo
Fwl:__ZL69Il2CppArray_CustomAttributesCacheGenerator_Array_GetValue_m3182152438P21CustomAttributesCache
TXg:_MSCompatUnicodeTable_Level3_m260824928
cDc:__ZN19LightProbeOcclusion8TransferI13ProxyTransferEEvRT_
wIg:_AnimationTriggers_set_disabledTrigger_m609579531
rAl:__ZL47File_t1930543328_CustomAttributesCacheGeneratorP21CustomAttributesCache
pug:_DateTimeOffset__ctor_m1796624924
Cei:_GUILayoutUtility_get_spaceStyle_m1918520192
wGe:__ZN5physx20SingleAABBUpdateTaskD0Ev
ULd:__ZN5physx12PxsRigidBody23updatePoseDependenciesVERNS_10PxsContextE
TDg:_BaseRaycaster_OnDisable_m1716508791
iYf:_Array_InternalArray__ICollection_Remove_TisKeyValuePair_2_t3716250094_m2566517826_gshared
Zph:_ASN1Convert_ToInt32_m2121135414
OKj:_InternalEnumerator_1_MoveNext_m1741571735_gshared
PIc:__ZN5IMGUI14GUIWindowStateD2Ev
fwl:__ZL82Enum_t2459695545_CustomAttributesCacheGenerator_Enum_GetUnderlyingType_m3513899012P21CustomAttributesCache
ixc:__Z32TransferEnumWithNameForceIntSizeI14SafeBinaryRead25ProceduralLoadingBehaviorEvRT_RT0_PKc17TransferMetaFlags
Dbl:_GC_is_heap_ptr
JXi:_Collection_1_IsValidItem_m429993695_gshared
Vfl:__GLOBAL__sub_I_Assembly_cpp
hxh:_TlsServerSettings_set_CertificateRequest_m3419519893
Bql:__ZN6il2cpp6icalls8mscorlib6SystemL16GetFieldFromTypeINS_5utils10functional6FilterINSt3__112basic_stringIcNS7_11char_traitsIcEENS7_9allocatorIcEEEENS4_11StringUtils23CaseInsensitiveComparerEEEEEP21Il2CppReflectionFieldP11Il2CppClassSK_iRKT_
rji:_Hash128_Equals_m758095853_AdjustorThunk
r1a:__Z21PlayerStartFirstSceneb
SJ:__ZN7mecanim5human10RetargetToEPKNS0_5HumanEPKNS0_9HumanPoseES6_RKN4math4trsXEPS4_PNS_8skeleton13SkeletonPoseTIS8_EESF_
EI:__ZN7mecanim9animation8SeekClipERKNS0_12StreamedClipERNS0_18StreamedClipMemoryEf
QYe:__ZN5physx18RepXSerializerImplINS_16PxVehicleDriveNWEE11getTypeNameEv
mRe:__ZN5physx21PxConstraintConnectorD2Ev
hBi:_MethodBuilder_get_Attributes_m3678061338
go:_emscripten_glIsTexture
Xli:_Mathf_Clamp_m3542052159
cig:_ArrayListWrapper_CopyTo_m793444109
LKl:__ZL79Convert_t2607082565_CustomAttributesCacheGenerator_Convert_ToUInt16_m3265369225P21CustomAttributesCache
Qm:_emscripten_glHint
fpf:_ft_var_readpackeddeltas
Xba:__ZN6Object15ClassIDToStringEi
_sg:_DateTime_AddMilliseconds_m1813199744_AdjustorThunk
$9h:_SByte_System_IConvertible_ToSByte_m108774324_AdjustorThunk
Uck:_DelegatePInvokeWrapper_PCMReaderCallback_t3007145346
NCi:_TypeBuilder_IsValueTypeImpl_m1499671481
kOg:_FontData_get_lineSpacing_m4145828566
Hpa:__Z14DrawGUITextureRK5RectTIfEP7Texture11ColorRGBA32P8Material
alg:_Hashtable_get_IsSynchronized_m836780937
q0h:_X509ChainStatus_t4278378721_marshal_pinvoke
Mrh:_RSAManaged__ctor_m1680944437
vxm:dynCall_fiffifi
zn:_SDL_UpperBlit
K5e:__ZN5physx2Cm12DelegateTaskINS_2Sc5SceneEXadL_ZNS3_13ccdBroadPhaseEPNS_10PxBaseTaskEEEED0Ev
Gii:_GUIStyle_op_Implicit_m781448948
gfg:_Byte_GetHashCode_m2885528842_AdjustorThunk
Fhd:__ZNK5physx7NpShape16getContactOffsetEv
sse:__Z28getPxVehicleWheelDataMRadiusPKN5physx18PxVehicleWheelDataE
oFd:__ZN5physx14PxsAABBManager21processAggregatePairsEPKNS_19AggregateSortedDataE
mOi:_Dictionary_2_OnDeserialization_m2092139626_gshared
d1c:__ZNK12b2MouseJoint10GetAnchorAEv
X8a:__ZN14SafeBinaryRead20OverrideRootTypeNameEPKc
Iem:__ZNSt3__114__split_bufferIN6il2cpp2os10ThreadImpl10APCRequestERNS_9allocatorIS4_EEED2Ev
dwa:__ZN14FileCacherRead16UnlockCacheBlockEj
oDk:_UIntPtr_get_Size_m537421489
O3g:_X509Certificate_GetUnsignedBigInteger_m3491353542
d$l:__ZL90Event_t3028476042_CustomAttributesCacheGenerator_Event_Internal_GetMousePosition_m38523489P21CustomAttributesCache
gdm:__ZL70WaypointCircuit_t2375210762_CustomAttributesCacheGenerator_smoothRouteP21CustomAttributesCache
Tad:__ZNK5physx12NpBatchQuery23getFilterShaderDataSizeEv
vha:__ZN6Camera6RenderER11CullResultsR17ShaderPassContextPK21CameraRenderingParamsNS_10RenderFlagE
lBl:__ZL57StackBehaviour_t1390406961_CustomAttributesCacheGeneratorP21CustomAttributesCache
cf:_emscripten_glUniform1f
CQe:__ZN5physx7profile11EventBufferINS_24PxDefaultContextProviderENS_6shdfnd6MutexTINS0_26WrapperReflectionAllocatorIhEEEENS0_14ScopedLockImplIS7_EENS_24PxProfileNullEventFilterEE10doAddEventINS0_17RelativeStopEventEEEvhtRKT_
bfm:__ZNSt3__16vectorIPK10Il2CppTypeNS_9allocatorIS3_EEE26__swap_out_circular_bufferERNS_14__split_bufferIS3_RS5_EE
Rdf:__Z20ParseImageParametersR11UTF16StringRiRN20TextRenderingPrivate16TextFormatChangeE
Gd:_emscripten_glUniform1i
jJj:_InternalEnumerator_1_System_Collections_IEnumerator_Reset_m651165750_AdjustorThunk
M4a:__ZN13MonoBehaviour9CallAwakeEv
Zud:__ZN5physx2Sc19ShapeInstancePairLL23postIslandGenSecondPassEv
g6c:__ZN5physx3Cct26CharacterControllerManager16createControllerERKNS_16PxControllerDescE
Tej:__Z66RuntimeInvoker_Void_t1841601450_Int32_t2071877448_SByte_t454417549PK10MethodInfoPvPS2_
gfj:__Z75RuntimeInvoker_Void_t1841601450_Il2CppObject_Int32_t2071877448_Il2CppObjectPK10MethodInfoPvPS2_
W9e:__ZN5physx26PxPhysicsInsertionCallbackD2Ev
kcb:__ZN8Material28ApplyMaterialPropertyDrawersEv
mRd:__ZN5physx2Sq16BucketPrunerCore12updateObjectERKNS_9PxBounds3ERKNS0_13PrunerPayloadE
hJd:__ZN5physx18PxsDynamicsContext23atomIntegrationParallelEfPKPNS_11PxsBodyCoreEPKPNS_12PxsRigidBodyEjPKNS_2Cm13SpatialVectorEPNS_13PxcSolverBodyEPNS_17PxcSolverBodyDataEPSA_RjSI_RNS_10PxBaseTaskE
iC:__ZN11UnityEngine9Animation27CreateAvatarBindingConstantER9TransformPKN7mecanim9animation14AvatarConstantERNS3_6memory9AllocatorE
ZDk:_UnitySerializationHolder_GetObjectData_m2280028722
c5j:_PatternCompiler_EmitFalse_m1188949782
zCk:_UInt64_System_IConvertible_ToDateTime_m2412118561
wbb:__ZN9BlobWriteC2ER13dynamic_arrayIhLj16EE24TransferInstructionFlags19BuildTargetPlatform
ds:__ZN12NavMeshAgent14OnNavMeshAddedEv
QXl:__ZL93Physics_t634932869_CustomAttributesCacheGenerator_Physics_RaycastAll_m410413656____layerMask2P21CustomAttributesCache
bgi:_GUISkin_set_verticalScrollbarThumb_m2647835739
Sd:_emscripten_glAttachShader
k3i:_ReadOnlyCollection_1__ctor_m1539890895_gshared
Lmb:__Z40DebugStringToFilePostprocessedStacktraceRK21DebugStringToFileData
DDh:_Enumerator_System_Collections_IEnumerator_get_Current_m3079057684_AdjustorThunk
GYf:_Array_InternalArray__ICollection_Remove_TisSingle_t2076509932_m2568053761_gshared
cRh:_List_1_set_Capacity_m1734764639_gshared
H0g:_KeyPairPersistence_get_UserPath_m3433052783
Y$d:__ZN5physx2Gu19GetRaycastFuncTableEv
uRe:__ZN5physx2Sn21RepXVisitorWriterBaseINS_16PxVehicleNoDriveEE23extendedIndexedPropertyINS_3Pvd36PxPvdExtendedIndexedPropertyAccessorILj687ES2_KjfEEKNS_18PxUnknownClassInfoEEEvPjRKT_RT0_
NWi:_Collection_1_ClearItems_m1410275009_gshared
fYl:__ZL96Rigidbody_t4233889191_CustomAttributesCacheGenerator_Rigidbody_INTERNAL_set_velocity_m3384354677P21CustomAttributesCache
YDa:__ZNK4Mesh25GetClassIDVirtualInternalEv
u_f:_Array_InternalArray__IEnumerable_GetEnumerator_TisKeyframe_t1449471340_m3949799719_gshared
Gzb:__ZNK13EmscriptenWWW6GetUrlEv
DKd:__ZN5physx17EdgeChangeManager23cleanupBrokenEdgeEventsEPKNS_4EdgeE
hId:__ZN5physx17PxsContactManager16resetCachedStateEv
JTl:__ZL99MonoBehaviour_t1158329972_CustomAttributesCacheGenerator_MonoBehaviour_set_useGUILayout_m2666356651P21CustomAttributesCache
uSg:_InputField_get_inputType_m2187991661
zAb:_tlsf_walk_heap
O2g:_PKCS12_Decode_m731190390
EEf:__Z46DownloadHandler_CUSTOM_InternalCreateAudioClipP15ScriptingObjectP15ScriptingStringi
m0b:__ZN15dense_hashtableINSt3__14pairIKNS0_12basic_stringIcNS0_11char_traitsIcEE13stl_allocatorIcL18MemLabelIdentifier54ELi16EEEEP20ArchiveStorageReaderEES8_11djb2_hash_tIS8_EN14dense_hash_mapIS8_SB_SE_NS0_8equal_toIS8_EES5_ISC_LS6_54ELi16EEE9SelectKeyESH_SI_ED2Ev
rKj:_InternalEnumerator_1_get_Current_m1550231132_gshared
Bzf:__ZN11UnityEngine15PlatformWrapper17IsUnityAdsEnabledEv
m7j:_Reference_get_IgnoreCase_m2810892634
TTg:_InputField_ForceLabelUpdate_m1432314039
Ib:invoke_vif
BGa:__ZN14VertexDataInfo13UpdateStreamsEjjjRK19VertexStreamsLayoutRK20VertexChannelsLayout
Jb:invoke_vid
QHl:__ZL67UnverifiableCodeAttribute_t765455733_CustomAttributesCacheGeneratorP21CustomAttributesCache
Kb:invoke_vii
lVl:__ZL86Component_t3819376471_CustomAttributesCacheGenerator_Component_SendMessage_m3615678587P21CustomAttributesCache
lid:__ZN5physx13NpVolumeCacheD2Ev
I8l:__ZL82ScrollRect_t1199013257_CustomAttributesCacheGenerator_m_HorizontalScrollbarSpacingP21CustomAttributesCache
F8g:_Int16_System_IConvertible_ToUInt32_m883204517_AdjustorThunk
jAa:__ZN12TLSAllocatorI14StackAllocatorE16ThreadInitializeEP13BaseAllocator
Ahg:_ArrayList_Sort_m2778059513
CZc:__ZN17Physics2DSettings23VirtualRedirectTransferER18StreamedBinaryReadILb1EE
R2l:__ZL107StackTraceUtility_t1881293839_CustomAttributesCacheGenerator_StackTraceUtility_SetProjectFolder_m2154926761P21CustomAttributesCache
dwd:__ZThn8_N5physx2Sc35ParticleElementRbElementInteraction12onDeactivateEj
jQg:_LayoutGroup_SetChildAlongAxis_m2732017156
dFc:__ZN15SerializeTraitsINSt3__14pairIiiEEE8TransferI14SafeBinaryReadEEvRS2_RT_
Bmg:_SortedList_get_SyncRoot_m3299704254
GAa:__ZNK14DirectorPlayer7GetTimeEv
jNj:_InternalEnumerator_1_MoveNext_m1799288398_AdjustorThunk
VNd:__ZN5physx16PxsThreadContextC2EPNS_10PxsContextE
cng:_Slot_t2267560602_marshal_pinvoke
$jj:__Z51RuntimeInvoker_UInt16_t986882611_Single_t2076509932PK10MethodInfoPvPS2_
J7l:__ZL174U3CCaretBlinkU3Ec__Iterator3_t503613599_CustomAttributesCacheGenerator_U3CCaretBlinkU3Ec__Iterator3_System_Collections_Generic_IEnumeratorU3CobjectU3E_get_Current_m3339081927P21CustomAttributesCache
C3h:_SoapAttribute_get_XmlNamespace_m1436066016
jkb:__ZN25SingleBlockMemoryFileDataD0Ev
R5c:__ZN5physx3Cct10Controller4moveERNS0_11SweptVolumeERKNS_6PxVec3EffRKNS_19PxControllerFiltersEPKNS_17PxObstacleContextEb
jpl:__ZL24il2cpp_codegen_no_returnv24657
Ldd:__ZN5physx14NpRigidDynamic17setAngularDampingEf
M6i:_ReadOnlyCollection_1_System_Collections_IEnumerable_GetEnumerator_m1734360860_gshared
DMk:_Transform_RotateAroundInternal_m2303097692
T1k:__ZN6il2cpp6icalls8mscorlib6System9Threading6Thread27GetSerializedCurrentCultureEP12Il2CppThread
eYk:__ZN6il2cpp2vm13MetadataCache14AddPointerTypeEP11Il2CppClassS3_
i0f:_Array_InternalArray__IndexOf_TisUInt32_t2149682021_m3231515987_gshared
jVk:_ListPool_1__cctor_m709904475_gshared
Qoj:__Z83RuntimeInvoker_Void_t1841601450_QuaternionU26_t4187826802_QuaternionU26_t4187826802PK10MethodInfoPvPS2_
F2e:__ZThn4_NK5physx5cloth9ClothImplINS0_7SwClothEE10getGravityEv
KXa:__Z31CalculateHierarchyTransformType23TransformAccessReadOnly
eTa:__ZN6Sprite23VirtualRedirectTransferER13ProxyTransfer
JW:__ZN4FMOD8ChannelI11setPositionEjj
I2:__ZN11UnityEngine15CloudWebService16SessionContainer27GetDeleteErrorJsonDataBlockERK8UnityStrS4_RS2_
bre:__ZN5physx2Sn18writeAllPropertiesINS_18PxVehicleDriveTankEEEvPKT_RNS_9XmlWriterERNS_12MemoryBufferERNS_12PxCollectionE
HBe:__ZN5physx15NpActorTemplateINS_14PxRigidDynamicEE17setDominanceGroupEh
lal:_GC_set_fl_marks
Oie:__ZN5physx6shdfnd8PoolBaseINS_2Sc12SimStateDataENS0_19ReflectionAllocatorIS3_EEE17releaseEmptySlabsEv
tba:__ZN17BaseObjectManager13StaticDestroyEPv
qqj:__Z70RuntimeInvoker_Void_t1841601450_Playable_t3667545548_Int32_t2071877448PK10MethodInfoPvPS2_
gKk:_TextGenerationSettings_CompareVector2_m592645251
S2l:__ZL108StackTraceUtility_t1881293839_CustomAttributesCacheGenerator_StackTraceUtility_ExtractStackTrace_m1593581205P21CustomAttributesCache
lBa:__ZN18PlayableController18DoesPlayableExistsEPK8Playable
lvg:_DBNull_System_IConvertible_ToChar_m3344298044
Y3g:_X509Certificate_GetObjectData_m3888130484
Fva:__ZN12CachedReader8InitReadER15CacheReaderBasejj
Cik:_CustomYieldInstruction_Reset_m3409422382
p4j:_LinkStack_Push_m2660199875
nZ:__ZN4FMOD6Reverb13setPropertiesEPK22FMOD_REVERB_PROPERTIES
ADe:__ZNK5physx22NpParticleBaseTemplateINS_15PxParticleFluidENS_15NpParticleFluidEE14getRestitutionEv
_Ic:__Z38Event_CUSTOM_Internal_GetMousePositionP15ScriptingObjectP13Vector2fIcall
NGd:__ZN5physx16PxsBroadPhaseMBP6updateEjjRKNS_23PxcBroadPhaseUpdateDataEPNS_10PxBaseTaskE
Kcd:__ZN5physx9NpPhysics18createRigidDynamicERKNS_11PxTransformE
C7e:__ZN5physx6shdfnd5ArrayIPvNS0_19ReflectionAllocatorINS_2Sc18TriggerInteractionEEEE15growAndPushBackERKS2_
EFk:_X509CertificateCollection_Add_m4008705157
P3j:_MonoMethodMessage_set_Uri_m3218581120
M0a:__Z18ExtractTagThrowingR11ICallString
hPb:__ZN4PPtrI6ShaderE8TransferI19StreamedBinaryWriteILb0EEEEvRT_
dXi:_Collection_1_IsFixedSize_m1816795498_gshared
k3d:__ZN5physx2Gu17intersectRayAABB2ERKNS_6shdfnd3aos5Vec3VES5_S5_S5_RKNS2_6FloatVERS6_S9_
b1b:__ZN4core20StringStorageDefaultIcE6assignEPKcj
mhd:__ZNK5physx7NpShape17getSphereGeometryERNS_16PxSphereGeometryE
Wve:__ZL18intersectAnyVsMeshILi1EEbPKN5physx2Gu6SphereEPKNS1_7CapsuleEPKNS1_3BoxERKNS1_13RTreeMidphaseERKNS0_11PxTransformERKNS0_11PxMeshScaleEP14LimitedResults
WGg:_MouseButtonEventData_ReleasedThisFrame_m482758300
aRl:__ZL77Mathf_t2336485820_CustomAttributesCacheGenerator_Mathf_SmoothDamp_m1166236953P21CustomAttributesCache
Ogl:__ZN16VirtFuncInvoker1IbP26X509Certificate_t283079845E6InvokeEjPvS1_
c6e:__ZN5physx6shdfnd5ArrayIPvNS0_15InlineAllocatorILj256ENS0_19ReflectionAllocatorINS_2Cm5BlockIhLj128EEEEEEEE15growAndPushBackERKS2_
Aig:_ReadOnlyArrayListWrapper_set_Item_m2199017141
Wha:__ZN6Camera6SetFarEf
NFk:_DeriveBytes_DeriveIV_m3343375195
LLf:_X509Certificate_ToString_m1582581274
xIf:_RNGCryptoServiceProvider_GetBytes_m167497991
gyc:__ZN6prcoreL12RemapGenericI17TexFormatABGR888817TexFormatARGB8888EEvPKNS_9InnerInfoE
Ica:__ZN11GameManager17MainThreadCleanupEv
WWc:__Z26CalculateCollisionResponseRK27ParticleSystemReadOnlyStateR19ParticleSystemStateR23ParticleSystemParticlesjRK33ParticleSystemCollisionParametersRK8Vector3fSB_RK20BatchedRaycastResultR4Rand
Vok:_GameController_BarrelDestroyed_m3772956138
Iyi:_TypeBuilder_get_Assembly_m492491492
BZi:_Collection_1_InsertItem_m1225429801_gshared
bth:_CipherSuite_set_Context_m4127897124
C3:__ZN11UnityEngine15CloudWebService17CloudServiceEvent12ToJsonStringER8UnityStrjPKc
lwm:dynCall_viiiiiifi
xkd:__ZNK5physx7NpCloth24getParticleAccelerationsEPNS_6PxVec4E
Fjf:_UNITY_tt_slot_init
edi:_HMACSHA512__cctor_m1167457383
qEe:__ZN5physx22NpParticleBaseTemplateINS_16PxParticleSystemENS_16NpParticleSystemEE20lockParticleReadDataEv
SIa:__ZN9GfxDevice20DestroyRenderSurfaceER12ObjectHandleI17RenderSurface_TagP17RenderSurfaceBaseE
Tsl:__ZNSt3__16vectorIN6il2cpp2vm5Image20EmbeddedResourceDataENS_9allocatorIS4_EEE21__push_back_slow_pathIS4_EEvOT_
n6b:__ZN9GfxDevice22UpdateComputeResourcesEjPK9TextureIDPK16TextureDimensionPKijPKjjPK15ComputeBufferIDS7_PK20ComputeBufferCounterjSC_S2_S5_S9_SF_
Hrc:__ZN12_GLOBAL__N_15qAsinEff
F7f:_Dictionary_2_Do_ICollectionCopyTo_TisKeyValuePair_2_t3749587448_m2536766696_gshared
kAa:__ZN12TLSAllocatorI14StackAllocatorE13ThreadCleanupEv
Kql:__ZN6il2cpp6icalls8mscorlib6System18CollectTypeMethodsINS_5utils10functional10TrueFilterEEEvP11Il2CppClassPKS7_jRKT_RNSt3__16vectorIPK10MethodInfoNSE_9allocatorISI_EEEERA65535_b
yS:__Z18GetAudioManagerPtrv
Fvi:_Rigidbody_Sleep_m416287251
Tmj:__Z67RuntimeInvoker_Void_t1841601450_Int16_t4041245914_Int16_t4041245914PK10MethodInfoPvPS2_
GDa:__ZN4Mesh27SwizzleVertexColorsIfNeededEb
xXa:__Z27FindActiveTransformWithPathPKc
ffj:__Z63RuntimeInvoker_DSAParameters_t1872138834_BooleanU26_t3168250738PK10MethodInfoPvPS2_
$ek:_CanvasGroup_get_alpha_m1304564441
kKd:__ZN5physx16PxsIslandManager14setEdgeRigidCMERKNS_20PxsIslandManagerHookIjLj4294967295EEEPNS_17PxsContactManagerE
bga:__ZN12BaseRendererD0Ev
_ff:_UNITY_FT_Stream_GetChar
I_b:__Z29StdTemplateConversionFunctionIbyEbPvR14SafeBinaryRead
wlj:__Z56RuntimeInvoker_TimeSpan_t3430258949_TimeSpan_t3430258949PK10MethodInfoPvPS2_
c9c:__ZN5physx14NpArticulation25setStabilizationThresholdEf
r6l:__ZL207U3CDelayedDestroyDropdownListU3Ec__Iterator2_t2299200057_CustomAttributesCacheGenerator_U3CDelayedDestroyDropdownListU3Ec__Iterator2_System_Collections_Generic_IEnumeratorU3CobjectU3E_get_Current_m2307483849P21CustomAttributesCache
Hwg:_Decimal_Floor_m1662853963
H4d:__ZN5physx2Gu11HeightField7releaseEv
Vha:__ZNK6Camera7GetNearEv
Fuf:__ZN2UI13CanvasManager8SortListEv
YBb:__ZN7ApiGLES11UnmapBufferEjN2gl12BufferTargetE
gtl:__ZN6il2cpp5utilsL24Utf32CharToSurrogatePairEjRA2_Ds
fUa:__Z25GetNextAllowedTextureSizeib13TextureFormat
Flb:__ZN20LocalFileSystemWebGL4CopyER13FileEntryDataS1_
Ffi:_GUISkin_set_button_m412653849
$mk:_Playable_set_duration_m3772907818_AdjustorThunk
rhc:__Z22Transfer_Builtin_AlignIh14SafeBinaryReadLb0EEvRK29SerializationCommandArgumentsR31RuntimeSerializationCommandInfo
Lel:__ZN6il2cpp2os9Semaphore4WaitEb
H3c:__ZN15b2FrictionJointD0Ev
IMf:_StrongName_Equals_m67226644
grl:__ZNSt3__112__hash_tableINS_17__hash_value_typeINS_4pairIPK14Il2CppAssemblyP11Il2CppClassEEP24Il2CppReflectionAssemblyEENS_22__unordered_map_hasherIS8_SB_17ReflectionMapHashIS8_ELb1EEENS_21__unordered_map_equalIS8_SB_19ReflectionMapEqualsIS8_ELb1EEEN6il2cpp2gc9AllocatorISB_EEE15__insert_uniqueINS2_IKS8_SA_EEEENS2_INS_15__hash_iteratorIPNS_11__hash_nodeISB_PvEEEEbEEOT_
iga:__ZN12BaseRenderer20FlattenToRenderQueueER15RenderNodeQueueRK20DeprecatedSourceData
Fzi:_FieldBuilder_get_Attributes_m2174064290
oBd:__ZN5physx2Sc8ClothSim23addCollisionHeightfieldEPKNS0_8ShapeSimE
iZa:__ZN11TimeManager23VirtualRedirectTransferER18StreamedBinaryReadILb1EE
lMa:__Z34scripting_liveness_calculation_endPv
Isc:__ZNSt3__16vectorIN15QualitySettings14QualitySettingENS_9allocatorIS2_EEE7reserveEj
QNf:_SecurityFrame_InitFromRuntimeFrame_m45195821
LAl:__ZL53TextReader_t1561828458_CustomAttributesCacheGeneratorP21CustomAttributesCache
veb:__Z35UnityPropertySheet_MakeSortedColorsRKNSt3__13mapIN9ShaderLab16FastPropertyNameE10ColorRGBAfNS_4lessIS2_EENS_9allocatorINS_4pairIKS2_S3_EEEEEER10vector_mapIS2_S3_S5_NS6_INS7_IS2_S3_EEEEE
N$h:_X509Chain_IsSignedWith_m292245392
iwl:__ZL72Enum_t2459695545_CustomAttributesCacheGenerator_Enum_ToString_m662345249P21CustomAttributesCache
nYf:_Array_InternalArray__ICollection_Remove_TisDateTime_t693205669_m1275668216_gshared
xOi:_Dictionary_2__ctor_m871840915_gshared
o3i:_ReadOnlyCollection_1_System_Collections_Generic_ICollectionU3CTU3E_Remove_m3751131234_gshared
f$j:_ChannelServices__cctor_m3534779830
L2k:__ZN6il2cpp2vm6Thread6DetachEP12Il2CppThread
CDa:__Z27ConvertSubMeshesToTrianglesRNSt3__16vectorI7SubMesh13stl_allocatorIS1_L18MemLabelIdentifier16ELi16EEEER13dynamic_arrayItLj2EE
qqf:_Render_Single_Pass
YP:__ZNK14AudioBehaviour25GetClassIDVirtualInternalEv
eC:__ZN11UnityEngine9Animation31CreateControllerBindingConstantEPKN7mecanim9animation18ControllerConstantEPKNS2_12AnimationSetEPNS1_18ValueArrayConstantEjPKNS2_14AvatarConstantERNS1_6memory9AllocatorE
FTi:_EqualityComparer_1__cctor_m2666196678_gshared
jUd:__ZNK5physx22PxVehicleWheelsSimData11getTireDataEj
c_k:_il2cpp_class_get_name
Bgi:_GUIStyle_Init_m3872198731
Fmc:__Z16Transfer_BuiltinIx18StreamedBinaryReadILb0EELb0EEvRK29SerializationCommandArgumentsR31RuntimeSerializationCommandInfo
hK:__ZN7mecanim8skeleton30SkeletonBuildReverseIndexArrayEPiPKiPKNS0_8SkeletonES6_
t6k:__ZN6il2cpp2os10ThreadImpl5SleepEjb
xHd:__ZN5physx14SapPairManager12shrinkMemoryEv
PHk:_X509ExtensionCollection_System_Collections_IEnumerable_GetEnumerator_m2600902401
$yf:__ZN22BaseUnityConnectClient12IsNewSessionEv
nfb:__ZN15FileSystemEntry4MoveERS_23FileSystemCopyMoveFlags
DPi:_Dictionary_2_System_Collections_Generic_IEnumerableU3CSystem_Collections_Generic_KeyValuePairU3CTKeyU2CTValueU3EU3E_GetEnumerator_m3968773920_gshared
ZUh:_ListDictionary_FindEntry_m432748847
$Cm:_glBindSampler__wrapper
Ise:__Z30getPxVehicleWheelDataMToeAnglePKN5physx18PxVehicleWheelDataE
nSk:_UnityAction_1_Invoke_m3523417209_gshared
_g:_emscripten_set_mouseup_callback
uhm:__ZNK6il2cpp5utils10functional6FilterINSt3__112basic_stringIcNS3_11char_traitsIcEENS3_9allocatorIcEEEENS0_11StringUtils23CaseInsensitiveComparerEEclIPKcEEbRKT_
Hog:_Convert_ToDateTime_m1251728572
a6b:__ZN9GfxDevice27SetRandomWriteTargetTextureEi9TextureID
cmk:_CustomAnimationPlayable_get_time_m2832957799
Ijj:__Z48RuntimeInvoker_Int64_t909078037_SByte_t454417549PK10MethodInfoPvPS2_
E1g:_PrivateKeyInfo_Normalize_m3959595934
mXe:__ZN5physx18RepXPropertyFilterINS_2Sn17RepXVisitorReaderINS_23PxVehicleDriveSimData4WEEEEclILj656ENS_21PxVehicleDriveSimDataERKNS_19PxVehicleEngineDataES8_EEvRKNS_14PxPropertyInfoIXT_ET0_T1_T2_EEj
Sfd:__ZN5physx7NpScene22removeBroadPhaseRegionEj
FIe:__ZL34GeomOverlapCallback_CapsuleCapsuleRKN5physx10PxGeometryERKNS_11PxTransformES2_S5_PNS_2Gu12TriggerCacheE
S4a:__ZN13MonoBehaviour19RebuildMonoInstanceEP14ScriptingClassP15ScriptingObjectP10MonoScript
Yzb:__ZNK18ScreenManagerWebGL8GetWidthEv
Ufd:__ZNK5physx7NpScene23getFilterShaderDataSizeEv
vil:__ZN21InterfaceFuncInvoker1IyP12Il2CppObjectE6InvokeEjP11Il2CppClassPvS1_
EYk:__ZN6il2cpp2vm13MetadataCache33GetFieldDefaultValueDataFromIndexEi
RPg:_GridLayoutGroup_set_startAxis_m1635162426
D$:__ZN10SampleClipD2Ev
E1j:_SynchronizationAttribute_EnterContext_m2984912761
qwl:__ZL73Enum_t2459695545_CustomAttributesCacheGenerator_Enum_ToObject_m2601523252P21CustomAttributesCache
HCg:_CultureInfo_construct_internal_locale_from_name_m971766383
Aol:__ZN16VirtFuncInvoker0IP21WaitHandle_t677569169E6InvokeEjPv
s6k:__ZN6il2cpp2os10ThreadImpl13SetWaitObjectEPNS0_5posix15PosixWaitObjectE
kfg:_Byte_Equals_m368616327_AdjustorThunk
oWg:_U24ArrayTypeU24120_t116038562_marshal_pinvoke_cleanup
N1f:_Array_InternalArray__ICollection_Add_TisUIVertex_t1204258818_m3869382594_gshared
RTa:__ZN7Texture23VirtualRedirectTransferER13ProxyTransfer
jnf:_cff_cmap_unicode_init
Qzg:_Enum_ToObject_m2460371738
hDd:__ZThn4_N5physx5cloth8SwFabric18scaleTetherLengthsEf
k_g:_PrimalityTests_Test_m1088386156
Q3b:__ZN14FileCacherRead13GetFileLengthEv
Yta:__ZN15LODGroupManager21CalculateLODDataArrayERK17CullingParametersPK6Cameraf
yh:_readlink
_5f:_Array_Resize_TisVector3_t2243707580_m893658391_gshared
IGj:_InternalEnumerator_1_System_Collections_IEnumerator_get_Current_m4259662004_AdjustorThunk
y9f:_Array_InternalArray__get_Item_TisKeyframe_t1449471340_m1003508933_gshared
qJb:_consume_markers
ROc:__Z36RegisterClass_ParticleSystemRendererv
tTa:__ZNK6Sprite9GetBoundsE8Vector2fbb
TTd:__ZN5physx15PxVehicleUpdate13updateNoDriveEfRKNS_6PxVec3EffRKNS_43PxVehicleDrivableSurfaceToTireFrictionPairsEPNS_16PxVehicleNoDriveEPNS_25PxVehicleWheelQueryResultEPNS_29PxVehicleConcurrentUpdateDataE
azb:__ZN11ContextGLES6CreateEi
nfe:__ZN5physx6shdfnd5ArrayINS_10PxTriangleENS0_19ReflectionAllocatorIS2_EEE15growAndPushBackERKS2_
$bh:_BinaryReader_Dispose_m4249456877
EZh:_X500DistinguishedName_Decode_m3070515374
DHk:_X509CrlEntry_get_Extensions_m1330698752
Nvg:_Double_ToString_m1085043609
Nnc:__Z19TransferField_ArrayI18StreamedBinaryReadILb0EE27Converter_SimpleNativeClassI17AnimationCurveTplIfEEEvRK23StaticTransferFieldInfoR31RuntimeSerializationCommandInfoRT0_
fth:_CipherSuite_createEncryptionCipher_m1926075645
Vza:__ZN14StackAllocator16FrameMaintenanceEb
xbf:__ZL11SweepBoxBoxPKN5physx3Cct9SweepTestEPKNS0_11SweptVolumeEPKNS0_11TouchedGeomERKNS_14PxExtendedVec3ERKNS_6PxVec3ERNS0_12SweptContactE
OW:__ZN4FMOD4DSPI13disconnectAllEbb
qYj:_Text_get_layoutPriority_m1088242691
TEh:_Enumerator_MoveNext_m1367380970_AdjustorThunk
VBi:_OpCode_GetHashCode_m2974727122
o9:_jpeg_mem_available
mMb:__ZN16GraphicsSettings8TransferI18StreamedBinaryReadILb1EEEEvRT_
MDf:__ZN26DownloadHandlerAssetBundle13OnReceiveDataEPKvj
gth:_CipherSuite_createDecryptionCipher_m1118350455
GDd:__ZThn4_NK5physx5cloth9SwFactory20extractCollisionDataERKNS0_5ClothENS0_5RangeINS_6PxVec4EEENS5_IjEES7_S8_NS5_INS_6PxVec3EEE
p8a:__ZN9Scripting28CreateEngineScriptableObjectEP15ScriptingObject
Jyg:_Double_System_IConvertible_ToInt16_m4200640326
Zmb:__ZN11MessageLoopC2Ev
vbm:__ZL81FirstPersonController_t2575113653_CustomAttributesCacheGenerator_m_FootstepSoundsP21CustomAttributesCache
aTa:__ZN11TextureData5ResetEv
Kwb:__Z53Register_UnityEngine_GameObject_get_activeInHierarchyv
HAi:_GenericTypeParameterBuilder_get_IsGenericType_m1883522222
ppj:__Z90RuntimeInvoker_Single_t2076509932_Single_t2076509932_Single_t2076509932_Single_t2076509932PK10MethodInfoPvPS2_
e1b:__ZL30InitializeCoreScriptingClassesv
hc:invoke_iii
Yqj:__Z49RuntimeInvoker_Void_t1841601450_Scene_t1684909666PK10MethodInfoPvPS2_
t_i:_Collection_1_CheckWritable_m3938993573_gshared
Zh:_glBlitFramebuffer
khb:__ZN17ArchiveFileSystem5TouchER13FileEntryData
EQd:__ZN5physx2Sq10AABBPrunerC2Eb
sxh:_SecurityParameters_set_Cipher_m3888132335
M$k:__ZN6il2cpp2vm10Reflection15GetMethodObjectEPK10MethodInfoP11Il2CppClass
l_g:_BigInteger_GeneratePseudoPrime_m2606361440
Uug:_DateTimeFormatInfo_get_ShortTimePattern_m20923983
OJf:_SHA256_Create_m896954069
HAj:__Z57RuntimeInvoker_ContactPoint_t1376425630_Int32_t2071877448PK10MethodInfoPvPS2_
i$l:__ZL90Event_t3028476042_CustomAttributesCacheGenerator_Event_Internal_SetNativeEvent_m1899228752P21CustomAttributesCache
Nql:__ZNSt3__113__vector_baseIN6il2cpp6icalls8mscorlib6System12PropertyPairENS_9allocatorIS5_EEED2Ev
pDe:__ZN5physx22NpParticleBaseTemplateINS_15PxParticleFluidENS_15NpParticleFluidEE13setVelocitiesEjRKNS_16PxStrideIteratorIKjEERKNS4_IKNS_6PxVec3EEE
Oyf:__ZN22BaseUnityConnectClientC2ERN11UnityEngine7Connect20BasePersistentValuesE
Jfj:__Z129RuntimeInvoker_Int32_t2071877448_Il2CppObject_Int32_t2071877448_Int32_t2071877448_Il2CppObject_Int32_t2071877448_SByte_t454417549PK10MethodInfoPvPS2_
v1g:_EncryptedPrivateKeyInfo_get_Algorithm_m2779196942
z3h:_RemotingServices_GetRealProxy_m620317996
EBc:__ZN13dynamic_arrayI11CulledLightLj4EE6insertEPS0_PKS0_S4_
Gem:__ZNSt3__114__split_bufferIN6il2cpp2os10ThreadImpl10APCRequestERNS_9allocatorIS4_EEEC2EjjS7_
GEm:_munmap__wrapper
tDd:__ZN5physx5cloth9SwFactory5cloneERKNS0_5ClothE
pEj:_ArrayReadOnlyList_1_RemoveAt_m2270349795_gshared
dgc:__ZNSt3__16vectorI8Vector3f13stl_allocatorIS1_L18MemLabelIdentifier1ELi16EEE6assignINS_11__wrap_iterIPS1_EEEENS_9enable_ifIXaasr21__is_forward_iteratorIT_EE5valuesr16is_constructibleIS1_NS_15iterator_traitsISB_E9referenceEEE5valueEvE4typeESB_SB_
GQk:_Predicate_1_Invoke_m2060780095_gshared
Xfa:__ZN10TagManager23VirtualRedirectTransferER18StreamedBinaryReadILb1EE
LCc:__ZN11Tetrahedron8TransferI18StreamedBinaryReadILb0EEEEvRT_
bq:FUNCTION_TABLE_vif
cq:FUNCTION_TABLE_vid
wQj:_Comparer_1_get_Default_m1078895976_gshared
dq:FUNCTION_TABLE_vii
f8:_UNITY_png_create_write_struct
IVc:__ZN13InitialModuleD2Ev
Hej:__Z149RuntimeInvoker_Boolean_t3825574718_Int32_t2071877448_Il2CppObject_Int32_t2071877448_Int32_t2071877448_Il2CppObject_Int32_t2071877448_SByte_t454417549PK10MethodInfoPvPS2_
jvd:__ZN5physx2Sc8ShapeSim20createLowLevelVolumeEjRKNS_9PxBounds3EjNS_9AABBMgrIdE
_ef:_UNITY_FT_Set_Transform
lsc:__ZNK32RendererMaterialAnimationBinding12SetPPtrValueERKN11UnityEngine9Animation10BoundCurveEi
g5k:__ZN6il2cpp8metadata15GenericMetadata20RegisterGenericClassEP18Il2CppGenericClass
HCm:_glDeleteFramebuffers__wrapper
EQg:_Image_get_overrideSprite_m706080347
ypb:__Z36Register_UnityEngine_RectOffset_Initv
Goh:_BigInteger_ModInverse_m1881894572
mam:__ZL79LayoutRebuilder_t2155218138_CustomAttributesCacheGenerator_U3CU3Ef__amU24cache4P21CustomAttributesCache
KBe:__ZNK5physx15NpActorTemplateINS_14PxRigidDynamicEE14getOwnerClientEv
lRe:__ZN5physx25PxVehicleConstraintShader15getSerializableEv
dpk:_FPS_BulletImpacts__ctor_m1761445490
L6a:__ZN18ScriptingArguments9AddStructEPv
dY:__ZN10ObjectPoolIN4FMOD3DSPENS0_4DSPIEE8ValidateEPS1_
F0l:__ZL89GUIStyle_t1799908754_CustomAttributesCacheGenerator_GUIStyle_get_stretchWidth_m1223411161P21CustomAttributesCache
oPi:_Dictionary_2__ctor_m2231057096_gshared
Htc:__ZN28EnlightenRendererInformation8TransferI14SafeBinaryReadEEvRT_
oa:invoke_viiiiiifi
PCl:__ZL69DefaultDependencyAttribute_t3858269114_CustomAttributesCacheGeneratorP21CustomAttributesCache
Kad:__ZN5physx12NpBatchQuery13getUserMemoryEv
XAb:__ZN7ApiGLES12DrawIndirectE16GfxPrimitiveTypej
Plb:__ZNK15Lz4Decompressor16DecompressMemoryEPKvPjPvS2_
YFf:__Z67Register_UnityEngine_Networking_UnityWebRequest_get_downloadHandlerv
tdc:__ZNSt3__16vectorI14ConstantStringNS_9allocatorIS1_EEE6assignINS_11__wrap_iterIPS1_EEEENS_9enable_ifIXaasr21__is_forward_iteratorIT_EE5valuesr16is_constructibleIS1_NS_15iterator_traitsISA_E9referenceEEE5valueEvE4typeESA_SA_
zsi:_Ray_ToString_m2019179238
u6i:_ReadOnlyCollection_1_System_Collections_IList_get_Item_m887129009_gshared
I9j:_Uri_GetOpaqueWiseSchemeDelimiter_m3686606461
AKb:__ZNSt3__16__treeINS_12__value_typeINS_12basic_stringIcNS_11char_traitsIcEE13stl_allocatorIcL18MemLabelIdentifier54ELi16EEEEP11AssetBundleEENS_19__map_value_compareIS8_SB_NS_4lessIS8_EELb1EEES5_ISB_LS6_54ELi16EEE12__find_equalISB_EERPNS_16__tree_node_baseIPvEESN_RKT_
Qp:FUNCTION_TABLE_iiiiiiffiiiiiiiiiffffiii
$Bd:__ZN5physx5cloth9ClothImplINS0_7SwClothEE24getParticleAccelerationsEv
$if:_UNITY_tt_face_load_os2
fCe:__ZN5physx19NpRigidBodyTemplateINS_14PxRigidDynamicEE16setRigidBodyFlagENS_15PxRigidBodyFlag4EnumEb
uqh:_HMAC_get_Key_m2528863640
c$i:_Collection_1_IsSynchronized_m1366278230_gshared
hIl:__ZL93StringBuilder_t1221177846_CustomAttributesCacheGenerator_StringBuilder_AppendLine_m1686706871P21CustomAttributesCache
Tie:__ZN5physx6shdfnd8PoolBaseINS_2Sc19ConstraintGroupNodeENS0_19ReflectionAllocatorIS3_EEE17releaseEmptySlabsEv
KWf:_Array_get_swapper_TisInt32_t2071877448_m2837069166_gshared
hui:_RectTransform_INTERNAL_get_rect_m1177342209
qGg:_PointerEventData_IsScrolling_m1971908975
kjl:__ZN16VirtFuncInvoker1IP22MouseState_t3572864619iE6InvokeEjPvi
rse:__Z56setPxVehicleTireLoadFilterDataMMaxFilteredNormalisedLoadPN5physx27PxVehicleTireLoadFilterDataEf
hgl:__GLOBAL__sub_I_RCW_cpp
Z6c:__ZN5physx3Cct8SweptBoxD2Ev
b_l:__ZL53UILineInfo_t3621277874_CustomAttributesCacheGeneratorP21CustomAttributesCache
v0e:__ZN5physx2Cm12DelegateTaskINS_13PxsCCDContextEXadL_ZNS2_12postCCDSweepEPNS_10PxBaseTaskEEEED0Ev
bwg:_Decimal_System_IConvertible_ToInt16_m3159038792
GOa:__ZN11JpegDecoderC2Ev
BI:__ZN7mecanim9animation12EvaluateClipEPKNS0_4ClipEPKNS0_9ClipInputEPNS0_10ClipMemoryEPNS0_10ClipOutputE
H5c:__ZN5physx3Cct9SweepTest15onObstacleAddedEjPKNS_17PxObstacleContextERKNS_6PxVec3ES7_f
Cdf:__ZN20TextRenderingPrivate7GUIText18GetFontAndMaterialEv
ONe:__ZN5physx2Gu10SupportMapD2Ev
ntc:__ZN4PPtrI11LightProbesE8TransferI18StreamedBinaryReadILb0EEEEvRT_
GZj:_ComVisibleAttribute__ctor_m1789587486
JAe:__ZNK5physx15NpActorTemplateINS_18PxArticulationLinkEE22getClientBehaviorFlagsEv
W7a:__ZN9TextAsset8TransferI18StreamedBinaryReadILb1EEEEvRT_
yj:_JS_WebRequest_Release
cdh:_DirectoryNotFoundException__ctor_m2242202556
qPd:__ZN5physx21PxcArticulationHelper18computeJointDrivesERNS_9PxcFsDataEPNS_6shdfnd3aos5Vec3VEPKNS_19PxsArticulationLinkEPKNS_11PxTransformEPKNS_30PxcArticulationJointTransformsEPKNS4_6Mat33VEf
KAe:__ZNK5physx15NpActorTemplateINS_18PxArticulationLinkEE12getAggregateEv
ARf:_String_CreateString_m2448464375
L0h:_X509SubjectKeyIdentifierExtension__ctor_m2959112706
j2l:__ZL105UnityWebRequest_t254341728_CustomAttributesCacheGenerator_UnityWebRequest_get_downloadHandler_m2794451840P21CustomAttributesCache
Ggd:__ZNK5physx7NpScene18getStaticStructureEv
WLl:__ZL68Math_t2022911894_CustomAttributesCacheGenerator_Math_Max_m2671311541P21CustomAttributesCache
SHd:__ZN5physx13PxsCCDContext12postCCDSweepEPNS_10PxBaseTaskE
e5k:__ZN6il2cpp8metadata15GenericMetadata7InflateEPK19Il2CppGenericMethodPK20Il2CppGenericContext
Wuk:_U3CReloadLevelU3Ec__Iterator8_System_Collections_IEnumerator_get_Current_m673782768
qhm:__ZNSt3__114__split_bufferIP11Il2CppClassRNS_9allocatorIS2_EEEC2EjjS5_
nFi:_MonoGenericCMethod_get_ReflectedType_m2689239043
oza:__ZN22PerThreadPageAllocatorC2Ev
d$i:_Collection_1_IsFixedSize_m499196375_gshared
bLg:_ColorTween_set_startColor_m3546206870_AdjustorThunk
oia:__Z15LoadPixelMatrixRK5RectTIfER9GfxDevicebb
eWl:__ZL96Transform_t3275118058_CustomAttributesCacheGenerator_Transform_INTERNAL_set_rotation_m3703763817P21CustomAttributesCache
WHe:__ZN5physx6shdfnd10Foundation19AlignCheckAllocator28deregisterAllocationListenerERNS_20PxAllocationListenerE
xnd:__ZN5physx2Sc21ArticulationJointCore12setChildPoseERKNS_11PxTransformE
vJj:_InternalEnumerator_1_get_Current_m4083613828_gshared
UHc:__ZN8GUIState8EndOnGUIEv
hVf:_UnicodeEncoding_GetString_m542738941
lag:_Mesh_GetAllocArrayFromChannel_TisVector2_t2243707579_m3884092534_gshared
Qjf:_UNITY_TT_Get_VMetrics
Rfh:_Path_InsecureGetFullPath_m2635272425
nYl:__ZL92Rigidbody_t4233889191_CustomAttributesCacheGenerator_Rigidbody_AddForce_m3219459786____mode1P21CustomAttributesCache
ung:_Enumerator_Clone_m1124749523
aOb:__ZN14qsort_internal6_QSortIP14RenderPassDataiN23ForwardShaderRenderLoop18RenderObjectSorterILb0EEEEEvR8JobFenceT_S8_T0_T1_RKS6_P19ProfilerInformation
zNd:__ZN5physx33solveContactCoulombBlockWriteBackEPKNS_23PxcSolverConstraintDescEjRNS_16PxcSolverContextEPNS_25PxcThresholdStreamElementEjPi
fAj:__Z78RuntimeInvoker_Void_t1841601450_Vector3U5BU5DU26_t3129387507_Int32_t2071877448PK10MethodInfoPvPS2_
j9h:_RuntimeMethodHandle__ctor_m1162528746
B0a:__Z16CreateGameObjectRKNSt3__112basic_stringIcNS_11char_traitsIcEENS_9allocatorIcEEEEPKcz
MPh:_List_1_AsReadOnly_m4108578222_gshared
gZd:__ZN5physx9PxTaskMgr17submitUnnamedTaskERNS_6PxTaskENS_10PxTaskType4EnumE
ryl:__ZL65DebuggerHiddenAttribute_t638884887_CustomAttributesCacheGeneratorP21CustomAttributesCache
Kbi:_DSA__ctor_m613430209
QWf:_Array_get_swapper_TisPlayable_t3667545548_m4216505466_gshared
Wrl:__ZNSt3__113__vector_baseIN6il2cpp2vm17TypeNameParseInfoENS_9allocatorIS3_EEED2Ev
LTa:__ZN7Texture21GetMasterTextureLimitEv
a0k:__ZN6il2cpp2vm10Reflection12HasAttributeEP12Il2CppObjectP11Il2CppClass
s8:_UNITY_png_write_sRGB
ELf:_X509Certificate_GetExpirationDateString_m2351894475
URk:_InvokableCall_1__ctor_m121193486_gshared
WGc:__ZN9ShaderLabL25StaticInitializeShaderLabEPv
_Pi:_Dictionary_2_ContainsKeyValuePair_m3818021458_gshared
BRd:__ZNK5physx2Sq12BucketPruner5sweepERKNS0_9ShapeDataERKNS_6PxVec3ERfRNS0_14PrunerCallbackE
rkh:_MonoType_GetMethodsByName_m1854415088
l$i:_Collection_1_System_Collections_IList_Insert_m1511106741_gshared
pbc:__ZN15dense_hashtableINSt3__14pairIKy9PlaneDataEEyN32PlaneColliderCache_dense_hashmap17UInt64HashFunctorEN14dense_hash_mapIyS3_S6_NS0_8equal_toIyEE13stl_allocatorIS4_L18MemLabelIdentifier65ELi16EEE9SelectKeyES9_SC_E9copy_fromERKSF_j
b_k:_il2cpp_class_get_methods
Ufh:_Path_CanonicalizePath_m383914732
dd:invoke_viiiiiffii
yIi:_Enumerator_System_Collections_IEnumerator_get_Current_m1631145297_gshared
dfa:__ZN16MessageForwarder23RegisterMessageCallbackEiPFvPviR11MessageDataEi
Fhg:_ArrayList_Synchronized_m2395071980
B7k:__ZN6il2cpp2os6Thread16GetCurrentThreadEv
kue:__ZN5physx6shdfnd8internal8HashBaseINS0_4PairIKPKNS0_14NamedAllocatorEPKcEES6_NS0_4HashIS6_EENS1_11HashMapBaseIS6_S9_SC_NS0_20NonTrackingAllocatorEE6GetKeyESE_Lb1EE15reserveInternalEj
jih:_UnexceptionalStreamWriter_Write_m3206913035
R4b:__ZThn28_N14SpriteRendererD1Ev
NLb:__ZN10TagManager8TransferI19StreamedBinaryWriteILb0EEEEvRT_
c6a:__ZN11PreloadData23VirtualRedirectTransferER18StreamedBinaryReadILb0EE
a8a:__ZN9Scripting12LogExceptionEP18ScriptingExceptioniPKc
K:tempRet5
d2b:__Z15FindOrAddByNameI15ComputeShaderCBERT_RNSt3__16vectorIS1_NS3_9allocatorIS1_EEEERKS1_
Mqb:__Z29Mesh_Get_Custom_PropCanAccessP15ScriptingObject
I8g:_Int16_CompareTo_m3493496879
Quj:__Z36RuntimeInvoker_Direction_t1525323322PK10MethodInfoPvPS2_
moi:_UnityWebRequest__ctor_m1187779891
smk:_FrameData_t1120735295_marshal_pinvoke_cleanup
H2l:__ZL56ColorWriteMask_t926634530_CustomAttributesCacheGeneratorP21CustomAttributesCache
kTa:__ZN6Sprite17MainThreadCleanupEv
Clf:__ZNSt3__16__treeINS_12__value_typeIN20TextRenderingPrivate7FontRefEP11FT_FaceRec_EENS_19__map_value_compareIS3_S6_NS_4lessIS3_EELb1EEENS_9allocatorIS6_EEE7destroyEPNS_11__tree_nodeIS6_PvEE
fHl:__ZL61SignatureDescription_t89145500_CustomAttributesCacheGeneratorP21CustomAttributesCache
XIj:_InternalEnumerator_1_MoveNext_m3389738333_AdjustorThunk
eU:__ZN10AudioMixer14UpdateMuteSoloEv
zmc:__Z22Transfer_Builtin_AlignIt18StreamedBinaryReadILb0EELb0EEvRK29SerializationCommandArgumentsR31RuntimeSerializationCommandInfo
FMa:__Z17GetMonoManagerPtrv
nhk:_Component_GetComponents_m637589504
qie:__ZN5physx6shdfnd5ArrayINS_3Scb13MaterialEventENS0_19ReflectionAllocatorIS3_EEE15growAndPushBackERKS3_
oSh:_Stack_1_System_Collections_ICollection_get_SyncRoot_m3151629354_gshared
RWi:_Collection_1_IndexOf_m688835775_gshared
mRj:_MaskableGraphic_UnityEngine_UI_IClippable_get_gameObject_m954171032
Dk:_JS_Eval_ClearTimeout
gCb:__ZN7ApiGLES16SetPatchVerticesEi
iaa:__ZN11AssetBundleC2E18MemLabelIdentifier18ObjectCreationMode
A5b:__ZN9GfxDevice12PresentFrameEPK14ChannelAssigns
Zl:_acosf
kz:__ZN6Object12SetHideFlagsEi
zjb:__ZN10MemoryFileC2E18MemLabelIdentifierP14MemoryFileData14FilePermission
y5h:_TrackingServices_NotifyUnmarshaledObject_m1794048369
MWk:__ZN6il2cpp2vm5Class20FromGenericParameterEPK22Il2CppGenericParameter
nFl:__ZL59RemotingServices_t2399536837_CustomAttributesCacheGeneratorP21CustomAttributesCache
fIe:__ZL28GeomMTDCallback_PlaneCapsuleRN5physx6PxVec3ERfRKNS_10PxGeometryERKNS_11PxTransformES5_S8_
_Gc:__ZN15GlobalCallbacksC2Ev
kKb:__ZN11AssetBundle8TransferI14SafeBinaryReadEEvRT_
zqj:__Z97RuntimeInvoker_Void_t1841601450_PlayableU26_t3233213460_Int32_t2071877448_PlayableU26_t3233213460PK10MethodInfoPvPS2_
u4f:_Array_InternalArray__set_Item_TisLabelFixup_t4090909514_m565370771_gshared
Ule:__ZNK13Simd4fFactoryIN6detail9FourTupleEEcv8Scalar4fEv
Xkk:_AnimationPlayable_RemoveInput_m2728059274
uPk:_WWW_DestroyWWW_m2548500174
eff:_UNITY_FT_New_Memory_Face
lcd:__ZNK5physx10NpMaterial18getDynamicFrictionEv
S$k:__ZN6il2cpp2vm10Reflection6IsTypeEP12Il2CppObject
p8h:_SerializationEntry__ctor_m1619256036_AdjustorThunk
f4c:__ZNSt3__17__sort3IR29ColliderHitsByDepthComparitorPP10Collider2DEEjT0_S6_S6_T_
Ixa:__ZN9ShaderLab15PushParserStateEPNS_17ParserShaderStateE
F3l:__ZL72FormerlySerializedAsAttribute_t3673080018_CustomAttributesCacheGeneratorP21CustomAttributesCache
Lec:__Z16Transfer_BuiltinIy18StreamedBinaryReadILb1EELb1EEvRK29SerializationCommandArgumentsR31RuntimeSerializationCommandInfo
_gl:__Z15CastclassSealedP12Il2CppObjectP11Il2CppClass
r$a:__ZN15ApplicationInfo14GetSandboxTypeEv
cdd:__ZN5physx9NpPhysics16createConvexMeshERNS_13PxInputStreamE
D0i:_ReadOnlyCollection_1_System_Collections_Generic_IListU3CTU3E_set_Item_m2069169051_gshared
bCi:_OpCode_get_StackBehaviourPop_m3787015663_AdjustorThunk
pma:__ZN16ReflectionProbes40UpdateRealtimeReflectionProbesTimeslicedEv
iZb:__ZNSt3__16__treeINS_12basic_stringIcNS_11char_traitsIcEENS_9allocatorIcEEEENS_4lessIS6_EE13stl_allocatorIS6_L18MemLabelIdentifier37ELi16EEE7destroyEPNS_11__tree_nodeIS6_PvEE
fpi:_UnityWebRequest_InternalGetCustomMethod_m2293739551
PXc:__ZNSt3__17__sort4IR31SortCollisionEventsByGameObjectP22ParticleCollisionEventEEjT0_S5_S5_S5_T_
T0e:__ZN5physx5cloth9ClothImplINS0_7SwClothEE11setRotationERKNS_6PxQuatE
Ome:__ZorRK8Scalar4fS1_
jBi:_MethodBuilder_GetBaseDefinition_m774166361
nja:__ZNK16GraphicsSettings25GetClassIDVirtualInternalEv
TRd:__ZN5physx2Sq17SceneQueryManager8addShapeERKNS_7NpShapeERKNS_12PxRigidActorEbPNS_9PxBounds3E
vma:__ZN16ReflectionProbes15InitializeClassEv
sif:_UNITY_FT_Destroy_Class_psnames_module_class
i2c:__ZNK12b2WheelJoint17GetReactionTorqueEf
_4j:_MRUList_Evict_m2430323183
S3i:_ReadOnlyCollection_1_System_Collections_Generic_ICollectionU3CTU3E_Remove_m1060547576_gshared
p4k:__ZN6il2cpp2vm5Image9GetCorlibEv
sUb:__ZN2UI13RectTransform8TransferI18StreamedBinaryReadILb1EEEEvRT_
nmf:_ft_bitmap_glyph_bbox
_sl:__ZN6il2cpp2vm11MethodStack17GetStackFramesRawEv
nFe:__ZNK5physx15NpActorTemplateINS_7PxClothEE14getOwnerClientEv
_gk:_Component_GetComponent_m4225719715
lNe:__ZNK5physx2Gu29EPASupportMapPairRelativeImplINS0_8CapsuleVES2_E9doSupportERKNS_6shdfnd3aos5Vec3VERS6_S9_S9_
Z6f:_Array_Sort_TisVector4_t2243707581_m474199742_gshared
Ute:__ZN5physx10SubSortSAH5sort4EPjjRNS_6shdfnd5ArrayINS_11RTreeNodeNQENS2_19ReflectionAllocatorIS4_EEEERjjPS4_
Dgi:_GUIStyle_InitCopy_m3676786505
Thh:_TextWriter_Write_m576684782
KOk:_Vector3_Max_m2105825185
Hl:_glIsVertexArray
cui:_RectOffset_t3387826427_marshal_pinvoke_back
lqc:__ZNSt3__16__treeINS_12__value_typeI8UnityStr4PPtrI6ObjectEEENS_19__map_value_compareIS2_S6_NS_4lessIS2_EELb1EEENS_9allocatorIS6_EEE14__insert_multiERKS6_
hkb:__ZN25SingleBlockMemoryFileDataC2E18MemLabelIdentifierPvjb
Oea:__ZN5Unity9Component8TransferI18StreamedBinaryReadILb0EEEEvRT_
nkl:__ZN16VirtFuncInvoker0IhE6InvokeEjPv
pa:invoke_fff
pKj:_InternalEnumerator_1_System_Collections_IEnumerator_Reset_m2198960685_AdjustorThunk
Fzm:b14
rxh:_TlsServerHello_Update_m1740270635
lCd:__ZN5physx5cloth11SwCollisionI8Scalar4fE18ImpulseAccumulator11addVelocityERKS2_S6_S6_S6_
Ptf:__ZN2UI6Canvas17MainThreadCleanupEv
oUj:_ScrollRect_Rebuild_m3423824761
QPh:_List_1_Find_m3862454845_gshared
yqb:__Z26AnimationCurve_CUSTOM_InitP15ScriptingObjectP14ScriptingArray
VMl:__ZL85Locale_t4255929015_CustomAttributesCacheGenerator_Locale_GetText_m1445803604____args1P21CustomAttributesCache
O4j:_MatchCollection_get_Item_m2609281578
yzm:b10
eBb:__ZN7ApiGLES13CreateProgramEv
yja:__ZN11HaloManager7AddHaloEv
dWf:_UTF8Encoding__ctor_m100325490
RSb:__ZN4crnd12crn_unpackerD2Ev
uXj:_StencilMaterial_ClearAll_m1372779118
bm:_emscripten_glTexImage2D
V3j:_ObjRefSurrogate_SetObjectData_m1873902916
Kkf:_tt_driver_class_pic_init
J6a:__ZN18ScriptingArguments9AddStringEPKc
Mtl:_setup_header
X1i:_ReadOnlyCollection_1_System_Collections_IList_get_IsReadOnly_m1367736517_gshared
L0b:__ZN15dense_hashtableINSt3__14pairIKNS0_12basic_stringIcNS0_11char_traitsIcEENS0_9allocatorIcEEEES7_EES7_11djb2_hash_tIS7_EN14dense_hash_mapIS7_S7_SB_NS0_8equal_toIS7_EE13stl_allocatorIS9_L18MemLabelIdentifier54ELi16EEE9SelectKeyESE_SH_E15set_deleted_keyERKS9_
Ivm:runPostSets
kNe:__ZNK5physx2Gu29EPASupportMapPairRelativeImplINS0_8CapsuleVES2_E18doWarmStartSupportEiiRNS_6shdfnd3aos5Vec3VES7_S7_
c4l:__ZL93AxisEventData_t1524870173_CustomAttributesCacheGenerator_AxisEventData_set_moveDir_m254243794P21CustomAttributesCache
hKb:__ZL23stbir__resize_arbitraryPvPKviiiS_iiiffffPfiij14stbir_datatype12stbir_filterS4_10stbir_edgeS5_16stbir_colorspace
OOc:__ZN23ParticleSystemParticles13array_reserveEj
SKh:_List_1_System_Collections_IList_Insert_m848656350_gshared
$8g:_Int16_ToString_m3971652088_AdjustorThunk
jNc:__ZNK24OptimizedPolynomialCurve26FindMinMaxDoubleIntegratedEv
nm:_pthread_detach
VYk:__ZN6il2cpp2vm19SocketPollingThread7RunLoopEv
cCh:_KeyValuePair_2__ctor_m1640124561_AdjustorThunk
o3j:_MethodDictionary_AllocInternalProperties_m3261295876
Gkj:__Z197RuntimeInvoker_Boolean_t3825574718_Il2CppObject_Il2CppObject_Il2CppObject_Int32_t2071877448_DateTimeU26_t3448131235_SByte_t454417549_BooleanU26_t3168250738_SByte_t454417549_ExceptionU26_t1467204777PK10MethodInfoPvPS2_
v_e:__ZN5physx11EdgeManager6resizeEj
lXh:_IPv6Address_set_ScopeId_m1442934355
DAf:__ZN11UnityEngine7Connect15DeviceInfoEvent13SetAppVersionERK8UnityStrb
QOl:__ZL77U3CPrivateImplementationDetailsU3E_t1486305139_CustomAttributesCacheGeneratorP21CustomAttributesCache
GE:__ZN8Animator34RecomputeContainedRenderersRecurseER9Transform
g_h:_X509Certificate2_GetNameInfo_m402390219
V8i:_Comparison_1_Invoke_m2645957248_gshared
pMk:_Transform_set_localScale_m2325460848
yof:_tt_cmap14_char_next
NBl:__ZL69AssemblyTrademarkAttribute_t3740556705_CustomAttributesCacheGeneratorP21CustomAttributesCache
vtd:__ZN5physx2Sc5Scene12removeStaticERNS0_10StaticCoreERNS_6shdfnd11InlineArrayIPKNS0_9ShapeCoreELj64ENS4_19ReflectionAllocatorIS8_EEEEb
Jqm:__ZNKSt3__110moneypunctIwLb0EE16do_thousands_sepEv
N4:__ZN9rapidjson8internal5StackINS_19MemoryPoolAllocatorINS_12CrtAllocatorEEEE6ResizeEj
Efa:__ZN11NamedObject8TransferI18StreamedBinaryReadILb0EEEEvRT_
bbc:__ZNK17GPUSkinPoseBuffer12GetBoneCountEv
b8d:__ZN19CharacterController13AwakeFromLoadE17AwakeFromLoadMode
k8h:_DelegatePInvokeWrapper_CallbackHandler_t362827733
wSk:_UnityAction_1_BeginInvoke_m3462722079_gshared
x0a:__Z12CanAddScriptR10GameObjectP14ScriptingClassPS2_S3_
vtk:_U3CDragObjectU3Ec__Iterator0_Reset_m472318653
Om:_emscripten_glMatrixMode
T9:_unity_z_inflate
MD:__ZN8Animator23VirtualRedirectTransferER18StreamedBinaryReadILb0EE
qBl:__ZL93TypeBuilder_t3308873219_CustomAttributesCacheGenerator_TypeBuilder_GetConstructors_m774120094P21CustomAttributesCache
n1:__ZN19CloudServiceHandler19StopEventDispatcherEv
D$d:__ZN5physx13GuMeshFactory17createHeightFieldERNS_13PxInputStreamE
Rqd:__ZN5physx2Sc10NPhaseCore25createShapeInstancePairLLERNS0_8ShapeSimES3_NS_7PxFlagsINS_10PxPairFlag4EnumEtEE
G3j:_MethodReturnDictionary__ctor_m756139344
h2:__ZN11UnityEngine15CloudWebService14DataDispatcher16PrepareDataBlockERNS0_16SessionContainerE
kmk:_CustomAnimationPlayable_AddInput_m3120035390
Vud:__ZThn8_N5physx2Sc19ShapeInstancePairLL12onDeactivateEj
BXe:__ZNK5physx40PxVehicleDifferential4WDataGeneratedInfo23visitInstancePropertiesINS_18RepXPropertyFilterINS_2Sn17RepXVisitorReaderINS_27PxVehicleDifferential4WDataEEEEEEEjT_j
vwh:_TlsClientSettings_get_ClientCertificate_m89435195
zAj:__Z62RuntimeInvoker_ParameterModifier_t1820634920_Int32_t2071877448PK10MethodInfoPvPS2_
Ymc:__ZL26Transfer_SimpleNativeClassI18StreamedBinaryReadILb0EE10RectOffsetLb0EEvRK29SerializationCommandArgumentsR31RuntimeSerializationCommandInfo
Oef:_UNITY_ft_destroy_default_module_classes
hEd:__ZThn4_N5physx5cloth8SwSolver8addClothEPNS0_5ClothE
y4j:_Mark_t2724874473_marshal_pinvoke_back
q2g:_SymmetricTransform_FinalDecrypt_m3674669784
vIh:_List_1_CheckMatch_m1772343151_gshared
lOb:__ZL12DepthPassJobPN21GfxDeviceAsyncCommand10ArgScratchEPKNS_3ArgE
Zm:_emscripten_asm_const_2
XTd:__Z34PxVehicleWheels4SuspensionRaycastsPN5physx12PxBatchQueryERKNS_23PxVehicleWheels4SimDataERNS_23PxVehicleWheels4DynDataEPKNS_17PxQueryFilterDataEPKbjPNS_14PxRigidDynamicE
Abh:_IntPtr_Equals_m1214967011_AdjustorThunk
IWg:_U24ArrayTypeU2424_t2866209749_marshal_pinvoke_back
Wce:__ZN9Rigidbody16ApplyConstraintsEv
aLa:__Z30scripting_cast_object_to_arrayP15ScriptingObject
OJa:__ZN14GfxDeviceStats16CopyAllDrawStatsERKS_
i4l:__ZL100PointerEventData_t1599784723_CustomAttributesCacheGenerator_U3CpointerPressRaycastU3Ek__BackingFieldP21CustomAttributesCache
Vo:FUNCTION_TABLE_iiiiiiiiiiii
GNc:__ZNK14ParticleSystem27CalculateMaxActiveParticlesEv
LQk:_Predicate_1_BeginInvoke_m2959352225_gshared
wxd:__ZN5physx2Sc17ParticleSystemSim8setFlagsEj
n3b:__ZN16GraphicsSettingsD0Ev
n_b:__Z29StdTemplateConversionFunctionIshEbPvR14SafeBinaryRead
l3a:__Z26Transfer_UnityEngineObjectI13ProxyTransferLb1EEvRK29SerializationCommandArgumentsR31RuntimeSerializationCommandInfo
m:cttz_i8
Lef:_UNITY_FT_GlyphLoader_Add
Rjc:__Z22Transfer_Builtin_AlignIs13ProxyTransferLb0EEvRK29SerializationCommandArgumentsR31RuntimeSerializationCommandInfo
WFj:_InternalEnumerator_1_System_Collections_IEnumerator_get_Current_m1004764375_AdjustorThunk
IXd:__ZN5physx2Gu15EdgeListBuilder18CreateEdgesToFacesEjPKjPKt
MLl:__ZL47Guid_t2533601593_CustomAttributesCacheGeneratorP21CustomAttributesCache
PYl:__ZL108Physics2D_t2540166467_CustomAttributesCacheGenerator_Physics2D_GetRayIntersectionAll_m253330691____distance1P21CustomAttributesCache
X4j:_MRUList__ctor_m2726533367
Vug:_DateTimeFormatInfo_get_FullDateTimePattern_m2607507656
Fme:__ZanRK8Scalar4fRK14ComplementExprIS_E
x2a:__ZNK15ResourceManager25GetClassIDVirtualInternalEv
zxl:__ZL73Il2CppArray_CustomAttributesCacheGenerator_Array_BinarySearch_m3052238307P21CustomAttributesCache
Nxg:_DelegateSerializationHolder__ctor_m3915060553
Dmh:_NumberFormatter_FormatCurrency_m3700970042
DYb:__ZNSt3__16vectorIP14ScriptingClassNS_9allocatorIS2_EEE8__appendEjRKS2_
t7f:_Array_swap_TisUIVertex_t1204258818_TisUIVertex_t1204258818_m1163375424_gshared
Bn:_emscripten_glViewport
sCh:_Enumerator_VerifyState_m4227308372_AdjustorThunk
C8k:__ZN6il2cpp6icalls8mscorlib6System15MonoCustomAttrs17IsDefinedInternalEP12Il2CppObjectP20Il2CppReflectionType
HDa:__ZN4Mesh21UnswizzleVertexColorsEb
fxh:_TlsServerSettings_set_CertificateTypes_m264196087
fHj:_InternalEnumerator_1__ctor_m4150855019_gshared
ewb:__Z40Register_UnityEngine_Light_set_intensityv
bnf:_cff_parse_font_bbox
Nsb:__Z35Application_Get_Custom_PropIsEditorv
ihd:__ZNK5physx7NpShape15getGeometryTypeEv
HNd:__ZN5physx20solveExtContactBlockEPKNS_23PxcSolverConstraintDescEjRNS_16PxcSolverContextE
U1a:__ZN14PlayerSettings23VirtualRedirectTransferER18StreamedBinaryReadILb0EE
NWf:_Array_get_swapper_TisCustomAttributeTypedArgument_t1498197914_m2780757375_gshared
ABh:_KeyValuePair_2__ctor_m3201181706_AdjustorThunk
ejc:__Z19TransferField_ArrayI14SafeBinaryRead19Converter_PrimitiveI8Vector2fEEvRK23StaticTransferFieldInfoR31RuntimeSerializationCommandInfoRT0_
jfl:__ZN6il2cpp2os5Event5ResetEv
Bhc:__Z15Transfer_StringI14SafeBinaryReadLb0EEvRK29SerializationCommandArgumentsR31RuntimeSerializationCommandInfo
oWk:_AesManaged__ctor_m2322442838
$4k:__ZN6il2cpp8metadata15GenericMetadata17InflateParametersEPK13ParameterInfohPK20Il2CppGenericContextb
Oah:_Int64_System_IConvertible_ToUInt32_m850395426_AdjustorThunk
H9a:__ZN18AwakeFromLoadQueue28InvokePersistentManagerAwakeEPNS_4ItemEj17AwakeFromLoadMode
DCi:_TypeBuilder_GetMethodsByName_m229541072
Qck:_PCMReaderCallback_Invoke_m3610389815
bdi:_HMACSHA512__ctor_m2390736870
L6e:__ZNK5physx2Cm12DelegateTaskINS_2Sc5SceneEXadL_ZNS3_23postIslandGenSecondPassEPNS_10PxBaseTaskEEEE7getNameEv
wpd:__ZN5physx2Sc14ConstraintCore9setBodiesEPNS0_9RigidCoreES3_
gha:__ZNK6Camera23CalculateShadowDistanceEv
bPg:_Graphic_OnFillVBO_m1723985607
nrm:__ZNKSt3__19money_getIwNS_19istreambuf_iteratorIwNS_11char_traitsIwEEEEE6do_getES4_S4_bRNS_8ios_baseERjRNS_12basic_stringIwS3_NS_9allocatorIwEEEE
pzi:_TypeBuilder_GetInterfaces_m1818658502
Ezh:_TlsException_get_Alert_m4022765752
uoh:_BigInteger_op_Equality_m2683055762
Dnm:__ZNSt3__114basic_iostreamIcNS_11char_traitsIcEEED0Ev
IFi:_MonoMethod_GetPseudoCustomAttributes_m466965107
T2b:__ZN10GameObjectD2Ev
ISc:__ZN29InitialModulePropertyBindings13GetFloatValueERK14ParticleSystemi
kBa:__ZN18PlayableController17SetTimeUpdateModeE18DirectorUpdateMode
Ezl:__ZL53SortedList_t3004938869_CustomAttributesCacheGeneratorP21CustomAttributesCache
kvi:_ResourceRequest_t2560315377_marshal_pinvoke
GJi:_Enumerator_System_Collections_IDictionaryEnumerator_get_Value_m3005608231_gshared
ypa:__ZN10GUIElement13RegisterClassEv
iqe:__ZN5physxL27PxcSweepAnyShapeHeightfieldERKNS_11PxsCCDShapeES2_PKNS_12PxsRigidBodyES5_RKNS_11PxTransformES8_fRNS_6PxVec3ESA_RNS_10PxcNpCacheERNS_18PxcNpThreadContextE
h0g:_DSAManaged_GenerateKeyPair_m2711647034
o1f:_Array_InternalArray__ICollection_Add_TisResourceCacheItem_t333236149_m1151081240_gshared
sEa:__ZNK4Mesh17GetPrimitiveCountEv
mhe:__ZN5physx3Scb5SceneD2Ev
ftm:__ZNKSt3__17codecvtIDic11__mbstate_tE13do_max_lengthEv
lel:__ZN6il2cpp6icalls8mscorlib6System7Runtime8Remoting10Activation18ActivationServices34AllocateUninitializedClassInstanceEP20Il2CppReflectionType
Opg:_Convert_ToInt32_m2209788057
Y5h:_SoapServices_GetXmlTypeForInteropType_m3821579913
zBb:__ZN7ApiGLES13CreateTextureEj16TextureDimensionN2gl9TexFormatEiiiii
Cyj:__Z58RuntimeInvoker_Void_t1841601450_KeyValuePair_2_t3749587448PK10MethodInfoPvPS2_
wFm:_emscripten_glTexParameterfv__wrapper
y7j:_CaptureAssertion_IsComplex_m1433259302
jBf:__ZN22CrashReportingSettings33OnPlayerSessionStateChangedStaticEjyy
T_k:_il2cpp_method_get_param_count
u_d:__Z20sweepCCTBoxTrianglesjPKN5physx10PxTriangleERKNS_13PxBoxGeometryERKNS_11PxTransformERKNS_6PxVec3EfRS9_SC_RfRjPKjfNS_7PxFlagsINS_9PxHitFlag4EnumEtEE
uQg:_HorizontalOrVerticalLayoutGroup_get_childForceExpandWidth_m227100883
xbe:__Z16GetDynamicsScenev
Uvd:__ZThn8_N5physx2Sc18TriggerInteraction7destroyEv
CBc:__ZNSt3__16__treeI4PPtrI10GUIElementENS_4lessIS3_EE11memory_poolIS3_EE15__insert_uniqueERKS3_
ZNl:__ZL68Uri_t19570940_CustomAttributesCacheGenerator_U3CU3Ef__switchU24map15P21CustomAttributesCache
Cpf:_ps_dimension_done
GIg:_LayoutRebuilder_MarkLayoutForRebuild_m640589351
R8b:__ZN12ScriptMapperD0Ev
sGg:_PointerEventData_get_pressEventCamera_m724559964
kpe:__ZN5physx2Cm9transformERKNS0_8Matrix34ERKNS_9PxBounds3E
W1l:__ZL96UnityWebRequest_t254341728_CustomAttributesCacheGenerator_UnityWebRequest_get_isDone_m3929051890P21CustomAttributesCache
QP:__Z32TransferEnumWithNameForceIntSizeI14SafeBinaryReadN9Animation11CullingTypeEEvRT_RT0_PKc17TransferMetaFlags
POb:__ZN14SubstanceInputD2Ev
oQf:_String_IndexOfUnchecked_m3356721554
VTb:__ZN16LightmapSettings8TransferI14SafeBinaryReadEEvRT_
gDb:__ZN17BufferManagerGLES13ReleaseBufferEP14DataBufferGLES
caf:__ZN5physx6shdfnd5ArrayIPvNS0_19ReflectionAllocatorINS_16NpConnectorArrayEEEE15growAndPushBackERKS2_
dni:_Mesh_CheckCanAccessSubmesh_m1826512193
bsd:__ZN5physx2Sc5Scene15prepareSimulateEv
iCd:__ZN5physx5cloth11SwCollisionI8Scalar4fE13CollisionDataC2Ev
Wke:__ZN5physx6shdfnd5ArrayIPNS_2Sc11InteractionENS0_19ReflectionAllocatorIS4_EEE8recreateEj
rvk:_RoutePoint_t318924311_marshal_pinvoke_back
Yt:__ZN14dtPathCorridor20updateTargetPositionEyPKf
A8l:__ZL63ScrollRect_t1199013257_CustomAttributesCacheGenerator_m_InertiaP21CustomAttributesCache
tFk:_PKCS12_Decrypt_m1557069392
hYj:_VertexHelper_AddUIVertexQuad_m280792808
hYh:_WebHeaderCollection_ToString_m1246460752
uHj:_InternalEnumerator_1_System_Collections_IEnumerator_get_Current_m2842514953_AdjustorThunk
wqj:__Z56RuntimeInvoker_Int32_t2071877448_PlayableU26_t3233213460PK10MethodInfoPvPS2_
Jnk:_Font_get_fontSize_m1732593415
HPk:_WWWTranscoder_SevenBitClean_m1700940017
usf:__ZN13RuntimeStaticINSt3__16vectorIPN20TextRenderingPrivate17TextMeshGeneratorENS0_9allocatorIS4_EEEEE13StaticDestroyEPv
Kr:stackSave
Mpi:_UploadHandler__ctor_m3605312080
Fqf:_ps_dimension_end
Zqb:__Z41Register_UnityEngine_Mesh_Internal_Createv
xjb:__ZN16MemoryFileSystem5TouchER13FileEntryData
eIf:_RIPEMD160Managed_JJ_m2933451431
Wqc:__ZNSt3__16vectorI8UnityStr13stl_allocatorIS1_L18MemLabelIdentifier12ELi16EEE7reserveEj
pdi:_MACTripleDES_Initialize_m1318099802
hrh:_MD5SHA1_VerifySignature_m507888141
ueg:_Byte_System_IConvertible_ToChar_m4188836679
xlh:_NumberFormatter_InitDecHexDigits_m2036076025
lKi:_Enumerator_get_CurrentKey_m3839846791_AdjustorThunk
znk:_Playables_INTERNAL_CALL_InternalDestroy_m763661895
Lha:__ZN6Camera9SetAspectEf
tme:__Z3minRK8Scalar4fS1_
fne:__Z6simd4fRK8Scalar4f
La:invoke_viiffiii
JTe:__ZN5physx18RepXPropertyFilterINS_2Sn17RepXVisitorReaderINS_18PxVehicleWheelDataEEEEclILj572ES3_ffEEvRKNS_14PxPropertyInfoIXT_ET0_T1_T2_EEj
QUc:__ZN8UVModule8TransferI18StreamedBinaryReadILb0EEEEvRT_
fve:__ZL5case0iiiRN5physx6PxVec3ERKS0_S3_PfRf
mZe:__ZN5physx16PxVehicleDrive4WD0Ev
v5l:__ZL79TouchInputModule_t2561058385_CustomAttributesCacheGenerator_m_ForceModuleActiveP21CustomAttributesCache
XGm:_emscripten_glBindVertexArray__wrapper
Lqh:_MD4__ctor_m2366413460
Tik:_Display__ctor_m563295973
e1l:__ZL97GUIStyle_t1799908754_CustomAttributesCacheGenerator_GUIStyle_Internal_CalcMinMaxWidth_m3660306863P21CustomAttributesCache
JPi:_Dictionary_2_InitArrays_m435313205_gshared
cY:__ZN10ObjectPoolIN4FMOD3DSPENS0_4DSPIEE7GetFreeEi
EXa:__ZN9Transform37InitializeTransformHierarchyRecursiveER18TransformHierarchyRii
F5a:__Z22Check4MethodParameters21ScriptingMethodIl2CppP14ScriptingClassS1_S1_S1_S1_P6ObjectR11MonoManager
yOg:_Graphic_get_useLegacyMeshGeneration_m1366444625
UXh:_ServicePointManager_get_CheckCertificateRevocationList_m4009410230
tye:__ZNK5physx3Cct13BoxController7getTypeEv
t5:__ZTv0_n12_NSt3__119basic_ostringstreamIcNS_11char_traitsIcEENS_9allocatorIcEEED1Ev
xIb:__GLOBAL__sub_I_ScreenManager_cpp
fOj:_InternalEnumerator_1_MoveNext_m2410670600_AdjustorThunk
zAh:_SslStreamBase_resetBuffer_m3028042362
sFa:__ZN17MeshRenderingData4InitEP4MeshS1_iP15SharedGfxBufferS3_
Rsh:_CipherSuite_get_HashAlgorithmType_m3902365773
fSk:_InvokableCall_2_Find_m1763382885_gshared
D3i:_ReadOnlyCollection_1_System_Collections_ICollection_get_SyncRoot_m2779904122_gshared
EMa:__Z14GetMonoManagerv
TAa:__ZN14DirectorPlayer23VirtualRedirectTransferER19StreamedBinaryWriteILb0EE
U4f:_Array_InternalArray__set_Item_TisUICharInfo_t3056636800_m1953167516_gshared
lMf:_Evidence_get_HostEvidenceList_m2095478124
txb:__Z57Register_UnityEngine_Transform_INTERNAL_set_localPositionv
xwl:__ZL69Il2CppArray_CustomAttributesCacheGenerator_Array_get_Rank_m3837250695P21CustomAttributesCache
luh:_Context_Clear_m4000337070
GGb:__ZN13GfxDeviceGLES26SetRandomWriteTargetBufferEi15ComputeBufferID
Kub:__Z38Register_UnityEngine_Input_GetButtonUpv
Ang:_Console_SetEncodings_m342145566
p9:_jpeg_open_backing_store
NLk:_TrackedReference_op_Equality_m3491334086
zbc:__ZN15dense_hashtableINSt3__14pairIKNS0_12basic_stringIcNS0_11char_traitsIcEENS0_9allocatorIcEEEES7_EES7_11djb2_hash_tIS7_EN14dense_hash_mapIS7_S7_SB_NS0_8equal_toIS7_EE13stl_allocatorIS9_L18MemLabelIdentifier54ELi16EEE9SelectKeyESE_SH_E12expand_arrayEjN21dense_hash_map_traits17integral_constantIbLb0EEE
fXl:__ZL107Playables_t2968292729_CustomAttributesCacheGenerator_Playables_INTERNAL_CALL_DisconnectInternal_m2526207778P21CustomAttributesCache
pOg:_FontUpdateTracker_UntrackText_m3827316510
Zaa:__ZN18AssetBundleManager19RegisterAssetBundleEP11AssetBundle
voi:_UnityWebRequest_GetTexture_m3150653648
y3d:__ZN5physx20InternalTriangleMesh7releaseEv
loe:__ZN5physx6shdfnd5ArrayINS_16PxsCCDBlockArrayINS_13PxsCCDOverlapELi128EE9BlockInfoENS0_19ReflectionAllocatorIS5_EEE15growAndPushBackERKS5_
Mhd:__ZNK5physx7NpShape8getFlagsEv
U2e:__ZThn4_N5physx5cloth9ClothImplINS0_7SwClothEE21setStiffnessFrequencyEf
Dak:_Enumerator_MoveNext_m1994650764
vse:__Z27setPxVehicleWheelDataMWidthPN5physx18PxVehicleWheelDataEf
Umm:__ZNKSt3__18ios_base6getlocEv
x7j:_CaptureAssertion_get_Alternate_m2729005740
a9k:_GC_number_stack_black_listed
Wwi:_Default_SelectMethod_m3081239996
_Be:__ZN5physx19NpRigidBodyTemplateINS_14PxRigidDynamicEE25setMassSpaceInertiaTensorERKNS_6PxVec3E
KTe:__ZN5physx18RepXPropertyFilterINS_2Sn17RepXVisitorReaderINS_18PxVehicleWheelDataEEEEclILj573ES3_ffEEvRKNS_14PxPropertyInfoIXT_ET0_T1_T2_EEj
k5a:__ZN10MonoScript13AwakeFromLoadE17AwakeFromLoadMode
APb:__ZN13dynamic_arrayI16ShaderKeywordSetLj4EE6insertEPS0_PKS0_S4_
p3j:_MethodDictionary_IsOverridenKey_m3922224650
mmg:_SyncHashtable_Contains_m3042906549
ncl:__ZN6il2cpp6icalls8mscorlib6System4Math3TanEd
bie:__ZN5physx6shdfnd8internal8HashBaseIPNS_3Scb4BaseES5_NS0_4HashIS5_EENS1_11HashSetBaseIS5_S7_NS0_9AllocatorELb1EE6GetKeyES9_Lb1EE6createERKS5_Rb
yRh:_List_1_System_Collections_IList_set_Item_m4016273526_gshared
J0h:_X509KeyUsageExtension_CopyFrom_m931530012
f4i:_ReadOnlyCollection_1_System_Collections_ICollection_get_SyncRoot_m1577944046_gshared
oVd:__Z37setPxVehicleWheelsSimData_ChassisMassPN5physx22PxVehicleWheelsSimDataEf
eSa:__ZN13RenderTexture9SetHeightEi
hol:__ZN21InterfaceFuncInvoker0IP25RectTransform_t3349966182E6InvokeEjP11Il2CppClassPv
gAf:__ZN11UnityEngine15PlatformWrapper20SetPlayerPrefsUInt64ERK8UnityStry
QLl:__ZL63InvalidCastException_t3625212209_CustomAttributesCacheGeneratorP21CustomAttributesCache
tSj:_RectMask2D_PerformClipping_m1232012832
W3k:__ZN6il2cpp6icalls8mscorlib6System2IO6MonoIO17GetFileAttributesEP12Il2CppStringPi
xu:__ZNK15dtProximityGrid10queryItemsEPKfPti
UKi:_Transform_1_Invoke_m4020530914_gshared
dof:_tt_cmap8_char_index
yei:_GUILayoutGroup_ResetCursor_m3160916532
L7k:__ZN6il2cpp2os6Thread15CurrentThreadIdEv
sek:_Camera_FireOnPostRender_m94860165
x8b:__ZN23PreloadManagerOperationD0Ev
ff:_emscripten_set_keydown_callback
Jlg:_Enumerator_get_Value_m3684748062
jf:_glGetVertexAttribPointerv
zRc:__ZN18ColorBySpeedModule8TransferI14SafeBinaryReadEEvRT_
sfb:__ZN12FileAccessorC2Ev
XGk:_X509CertificateCollection_Compare_m1014334435
GXa:__ZN9Transform35SetLocalPositionWithoutNotificationERKN4math7_float3E
hod:__ZN5physx2Sc15ArticulationSim12applyImpulseERNS0_8BodyCoreERKNS_9PxcFsDataERKNS_6PxVec3ES9_
n8e:__ZNK5physx22NpParticleBaseTemplateINS_16PxParticleSystemENS_16NpParticleSystemEE7getTypeEv
X9d:__ZN5Unity5Joint18SetConnectedAnchorERK8Vector3f
S5j:_PatternLinkStack_GetCurrent_m2994645935
M0c:__ZNK11b2GearJoint16GetReactionForceEf
s8i:_Comparison_1__ctor_m2929820459_gshared
nne:__ZNK13Simd4iFactoryIN6detail7IntTypeILi0EEEEcv8Scalar4fEv
Tza:__ZN14StackAllocator10ReallocateEPvji
r3j:_MethodDictionary_set_Item_m3475146889
R8c:__ZNK5physx14NpArticulation26getInternalDriveIterationsEv
Dfk:_CanvasRenderer_get_cull_m3577089379
oCc:__ZNSt3__17__sort5IR23CompareReflectionProbesP31RuntimeReflectionProbeBlendInfoEEjT0_S5_S5_S5_S5_T_
Myj:__Z54RuntimeInvoker_Void_t1841601450_LabelFixup_t4090909514PK10MethodInfoPvPS2_
tFl:__ZL62WellKnownObjectMode_t2630225581_CustomAttributesCacheGeneratorP21CustomAttributesCache
CVk:_U24ArrayTypeU241024_t2672183895_marshal_pinvoke
lPj:_DefaultComparer__ctor_m2185307103_gshared
wYj:_Toggle_PlayEffect_m3950629415
Ckl:__ZN16VirtFuncInvoker2IP11FieldInfo_tP8String_tiE6InvokeEjPvS3_i
ZUc:__ZN14VelocityModule8TransferI14SafeBinaryReadEEvRT_
ina:__ZN13RenderManager18UpdateAllRenderersEv
xfm:__ZNSt3__114__split_bufferIP12Il2CppThreadRN6il2cpp2gc9AllocatorIS2_EEED2Ev
C0e:__ZN5physx6shdfnd5ArrayINS_6PxVec3ENS0_9AllocatorEE8recreateEj
BJe:__ZThn24_N14PhysicsManagerD1Ev
YZi:_Collection_1_System_Collections_ICollection_get_SyncRoot_m2157752542_gshared
EJ:__ZN7mecanim5human12HumanPoseAddERNS0_9HumanPoseERKS1_S4_
ulc:__Z16Transfer_BuiltinI4AABB17RemapPPtrTransferLb0EEvRK29SerializationCommandArgumentsR31RuntimeSerializationCommandInfo
uSk:_UnityAction_1__ctor_m2836997866_gshared
tbk:_Animator_ResetTrigger_m865269317
CJl:__ZL64AssemblyLoadEventArgs_t4233815743_CustomAttributesCacheGeneratorP21CustomAttributesCache
dZi:_Collection_1_IsFixedSize_m218241296_gshared
jLk:_Time_get_timeScale_m3151482970
Rqb:__Z34Mesh_CUSTOM_SetArrayForChannelImplP15ScriptingObject30InternalScriptingShaderChannel34InternalScriptingVertexChannelTypeiP14ScriptingArrayi
Qda:__Z24MergeTransformComponentsR9TransformS0_b
Qnd:__ZThn24_N5physx2Sc20ArticulationJointSimD0Ev
Mbe:__ZN14PhysicsManager32AddToTriggerStayStatesIfRequiredEPK9Rigidbody
ufh:_MonoIO_get_PathSeparator_m2635828107
h6h:_TypeInfo_get_TypeName_m1722081275
z3c:__ZN15b2CircleContactD0Ev
Pkh:_MonoType_get_Name_m865859211
dCg:_CultureInfo__cctor_m2290268677
ODj:_ArrayReadOnlyList_1_System_Collections_IEnumerable_GetEnumerator_m3039869667_gshared
ZPf:_String_Trim_m3982520224
VEd:__ZN5physx14PxsAABBManager12createBPElemEv
Skc:__ZL26Transfer_SimpleNativeClassI13ProxyTransfer11GradientNEWLb1EEvRK29SerializationCommandArgumentsR31RuntimeSerializationCommandInfo
Pfl:__ZN6il2cpp2os10InitializeEv
R4h:_RemotingConfiguration__cctor_m2129988840
SWi:_Collection_1_Insert_m44548038_gshared
dhd:__ZThn12_N5physx7NpShape14onRefCountZeroEv
dhm:__ZNSt3__112__hash_tableINS_17__hash_value_typeINS_4pairIPK9FieldInfoP11Il2CppClassEEP21Il2CppReflectionFieldEENS_22__unordered_map_hasherIS8_SB_17ReflectionMapHashIS8_ELb1EEENS_21__unordered_map_equalIS8_SB_19ReflectionMapEqualsIS8_ELb1EEEN6il2cpp2gc9AllocatorISB_EEE8__rehashEj
Nqc:__ZNSt3__16vectorIi13stl_allocatorIiL18MemLabelIdentifier12ELi16EEE8__appendEj
sIe:__ZL26GeomMTDCallback_ConvexMeshRN5physx6PxVec3ERfRKNS_10PxGeometryERKNS_11PxTransformES5_S8_
DBb:__ZN7ApiGLES14TextureSamplerEj16TextureDimension17TextureFilterMode15TextureWrapModeifb18ShadowSamplingModeN2gl17TextureSrgbDecodeE
twl:__ZL42Il2CppArray_CustomAttributesCacheGeneratorP21CustomAttributesCache
Lsk:_TiltInput_Update_m2896729029
Aaf:__ZN5physx15NpActorTemplateINS_18PxArticulationLinkEE22setClientBehaviorFlagsENS_7PxFlagsINS_25PxActorClientBehaviorFlag4EnumEhEE
El:_emscripten_glVertexAttribPointer
V5a:__ZN14PreloadManager26UpdatePreloadingSingleStepENS_21UpdatePreloadingFlagsEi
aWc:__ZNSt3__16__sortIRPFbRK12ParticleSortS3_EPS1_EEvT0_S8_T_
sli:_Material__ctor_m1440882780
nKf:_SHA512Managed_Initialize_m891287980
Prj:__Z82RuntimeInvoker_Boolean_t3825574718_Il2CppObject_TextGenerationSettings_t2543476768PK10MethodInfoPvPS2_
HJa:__Z19InitializeGfxDevicej
tUd:__ZNK5physx22PxVehicleWheelsSimData23getSceneQueryFilterDataEj
cva:__ZN19RuntimeSceneManager11RemoveSceneEP10UnityScene
EMf:_SecurityException__ctor_m1484114982
D$j:_SinkProviderData_get_Children_m100594762
sHk:_X509Crl_GetHashName_m183504634
xbg:_Array_GetValue_m1507415734
zrb:__Z57Register_UnityEngine_RectTransform_INTERNAL_set_anchorMinv
X6g:_Object_MemberwiseClone_m2655589444
HIe:__ZL33GeomOverlapCallback_CapsuleConvexRKN5physx10PxGeometryERKNS_11PxTransformES2_S5_PNS_2Gu12TriggerCacheE
Yti:_Rect_op_Equality_m2793663577
wxc:__ZN6prcoreL25inner_stretch_i8_bilinearEPKNS_9InnerInfoE
o3:__ZN11UnityEngine15CloudWebService13WWWRestClient17GetResponseStatusEv
bdh:_DirectoryInfo_ToString_m4208086799
Xfk:_Collision_get_transform_m4132935520
Vsl:__ZNSt3__16vectorIPK10Il2CppTypeNS_9allocatorIS3_EEE21__push_back_slow_pathIS3_EEvOT_
RFi:_MonoMethod_get_IsGenericMethod_m4276550811
fLi:_Transform_1_BeginInvoke_m3826027984_gshared
ebk:_AnimationEvent_set_time_m2162176572
Vog:_Decimal_op_Implicit_m2149927308
RTk:_UnityEvent_1_RemoveListener_m4000386396_gshared
G3d:__ZN5physx20InternalTriangleMesh9loadRTreeERNS_13PxInputStreamEj
ghe:__ZN5physx19NpRigidBodyTemplateINS_14PxRigidDynamicEE25setCMassLocalPoseInternalERKNS_11PxTransformE
uHc:__ZN10GUIManager12AddGUIScriptER8ListNodeI13MonoBehaviourE
MIh:_List_1_set_Capacity_m895816763_gshared
CCe:__ZNK5physx15NpActorTemplateINS_13PxRigidStaticEE14getOwnerClientEv
X5k:__ZN6il2cpp6icalls8mscorlib6System9AppDomain22InternalGetProcessGuidEP12Il2CppString
onf:_cf2_builder_moveTo
exd:__ZN5physx2Sc18ParticleSystemCore16releaseParticlesEv
F0g:_KeyPairPersistence_get_UseMachineKeyStore_m560802076
hNe:__ZNK5physx2Gu29EPASupportMapPairRelativeImplINS0_8CapsuleVENS0_4BoxVEE6getDirEv
yTh:_Collection_1_CopyTo_m1840908033_gshared
q3d:__ZN5physx2Gu20intersectTriangleBoxERKNS_6shdfnd3aos5Vec3VES5_S5_S5_S5_
FIi:_Enumerator_System_Collections_IDictionaryEnumerator_get_Entry_m345330700_AdjustorThunk
ZCg:_AbstractEventData__ctor_m3586111519
XSd:__ZN5physx16PxVehicleNoDrive14setBrakeTorqueEjf
Gqh:_MD2Managed_Padding_m410163267
RYj:_Toggle_UnityEngine_UI_ICanvasElement_get_transform_m4177274032
nWc:__Z9UpdateTplIL22MinMaxGradientEvalMode2EEvRK23ParticleSystemParticlesP11ColorRGBA32RK14MinMaxGradientRK23OptimizedMinMaxGradient
_jb:__ZN24RingBufferMemoryFileData4LockEPPv
X9a:__ZN17PersistentManager32GetAllFileIDsAndClassIDsFromPathERKNSt3__112basic_stringIcNS0_11char_traitsIcEENS0_9allocatorIcEEEER13dynamic_arrayIxLj8EERS9_IiLj4EE
pPj:_DefaultComparer__ctor_m76117625_gshared
Rv:__ZNK14dtNavMeshQuery16moveAlongSurfaceEyPKfS1_PK13dtQueryFilterPfPyPii
x0b:__ZNSt3__16__treeINS_12__value_typeINS_12basic_stringIcNS_11char_traitsIcEENS_9allocatorIcEEEEjEENS_19__map_value_compareIS7_S8_NS_4lessIS7_EELb1EEE13stl_allocatorIS8_L18MemLabelIdentifier54ELi16EEE7destroyEPNS_11__tree_nodeIS8_PvEE
SJi:_Enumerator_Dispose_m401572848_AdjustorThunk
vdk:_Bounds__ctor_m1202659404_AdjustorThunk
ah:_emscripten_glClearDepth
aCa:__ZN8Playable12SetPlayStateE9PlayState
RBj:__Z70RuntimeInvoker_Boolean_t3825574718_Il2CppObject_BooleanU26_t3168250738PK10MethodInfoPvPS2_
fpc:__Z16Transfer_BuiltinIi19StreamedBinaryWriteILb0EELb1EEvRK29SerializationCommandArgumentsR31RuntimeSerializationCommandInfo
ldh:_File_OpenText_m4058508963
dgk:_Collision_get_frictionForceSum_m3438602686
mvm:__ZNSt3__127__num_get_unsigned_integralImEET_PKcS3_Rji
LTe:__ZN5physx18RepXPropertyFilterINS_2Sn17RepXVisitorReaderINS_18PxVehicleWheelDataEEEEclILj574ES3_ffEEvRKNS_14PxPropertyInfoIXT_ET0_T1_T2_EEj
Gmj:__Z54RuntimeInvoker_Double_t4078015681_Interval_t2354235237PK10MethodInfoPvPS2_
Nab:__ZN14SerializedFile14InitializeReadERKNSt3__112basic_stringIcNS0_11char_traitsIcEENS0_9allocatorIcEEEER18ResourceImageGroupjj24TransferInstructionFlagsjj
PVl:__ZL99GameObject_t1756533147_CustomAttributesCacheGenerator_GameObject_FindGameObjectsWithTag_m2154478296P21CustomAttributesCache
t9d:__ZNK8Collider25GetClassIDVirtualInternalEv
Zuc:__ZN15SerializeTraitsI13dynamic_arrayI10Matrix4x4fLj16EEE19ResizeSTLStyleArrayERS2_i18MemLabelIdentifier
tsg:_DateTime_System_IConvertible_ToSingle_m3927769066_AdjustorThunk
Sgf:_cff_font_load
Zxh:_RecordProtocol_SendRecord_m2977889250
Vsc:__ZN14LineParameters8TransferI13ProxyTransferEEvRT_
mFc:__ZL22stbir__encode_scanlineP11stbir__infoiPvPfiii
xvi:_Rigidbody_set_angularDrag_m1042416512
Qmj:__Z84RuntimeInvoker_Void_t1841601450_Int32_t2071877448_Int32_t2071877448_SByte_t454417549PK10MethodInfoPvPS2_
Fcf:__ZN20QuadTreeNodeRenderer13StaticDestroyEPv
B$:__ZN14AudioBehaviourD2Ev
KYf:_Array_InternalArray__ICollection_Remove_TisUInt32_t2149682021_m4198326168_gshared
_cl:__ZN6il2cpp6icalls8mscorlib6System9Threading16NativeEventCalls19CloseEvent_internalE12Il2CppIntPtr
juh:_ClientContext_set_ClientHelloProtocol_m2246603449
Iue:__ZN5physxmlERKNS_11PxMeshScaleERKNS_11PxTransformE
x$e:__ZN5physx18PxsSolverStartTask13setupDescTaskEv
qff:_UNITY_FT_Set_Pixel_Sizes
u7h:_ObjectManager_RaiseOnDeserializingEvent_m1841526046
sod:__ZN5physx2Sc8BodyCore20clearSpatialVelocityEv
hVj:_ScrollRect_UnityEngine_UI_ICanvasElement_IsDestroyed_m3155392365
bEl:__ZL59IChannelReceiver_t2788889625_CustomAttributesCacheGeneratorP21CustomAttributesCache
CHg:_StandaloneInputModule_IsModuleSupported_m623598506
l5c:__ZN5physx3Cct13BoxController6resizeEf
lfj:__Z31RuntimeInvoker_Byte_t3683104436PK10MethodInfoPvPS2_
FHi:_ResourceReader_Close_m3256966401
yai:_SByte_ToString_m4105923225_AdjustorThunk
Q0b:_LZ4_compress_generic
m8h:_StreamingContext_t1417235061_marshal_pinvoke_cleanup
hCg:_CultureInfo_ConstructCurrentUICulture_m3363349599
$Ck:_UInt64_CompareTo_m2422461804_AdjustorThunk
tVk:_ListPool_1_Release_m1119005941_gshared
mkh:_MonoType_GetEvent_m4160342003
eSj:_RawImage_set_texture_m2400157626
pke:__ZN5physx6shdfnd5ArrayINS_2Cm12DelegateTaskINS_2Sc5SceneEXadL_ZNS5_19updateCCDSinglePassEPNS_10PxBaseTaskEEEEENS0_19ReflectionAllocatorIS8_EEE8recreateEj
IUi:_PrimeHelper_ToPrime_m1606935350_gshared
Jqf:_Dual_Project
C0k:__ZN6il2cpp2vm14TypeNameParser26ParseArrayModifierOptionalEv
kCd:__ZN5physx5cloth11SwCollisionI8Scalar4fE18ImpulseAccumulator3addERKS2_S6_S6_S6_S6_
OUg:_LayoutElement_OnEnable_m3478706401
ayi:_ConstructorBuilder_get_CallingConvention_m443074051
TXe:__ZNK5physx26PxSerializerDefaultAdapterINS_16PxVehicleDriveNWEE8requiresERNS_6PxBaseERNS_23PxProcessPxBaseCallbackE
Qhd:__ZN5physx34NpShapeGetScRigidObjectFromScbSLOWERKNS_3Scb5ShapeE
aii:_GUIStyle_CalcMinMaxWidth_m2027503105
r8l:__ZL157U3CClickRepeatU3Ec__Iterator5_t3397257107_CustomAttributesCacheGenerator_U3CClickRepeatU3Ec__Iterator5_System_Collections_IEnumerator_get_Current_m2310867783P21CustomAttributesCache
Y8g:_NumberFormatter_NumberToString_m668979517
RLf:_X509Certificate_Reset_m1676863543
L0g:_KeyPairPersistence_Load_m1355205585
iMc:__ZNSt3__14listIN10GUIManager12SortedScriptE11memory_poolIS2_EE6__sortI13OldSortScriptEENS_15__list_iteratorIS2_PvEESA_SA_jRT_
$Tj:_ScrollRect_get_horizontalScrollbarVisibility_m4152068235
mSb:__ZNK15dense_hashtableINSt3__14pairIK9TextureIDiEES2_N12TextureIdMap20TextureIDHashFunctorEN14dense_hash_mapIS2_iS6_NS0_8equal_toIS2_EE13stl_allocatorIS4_L18MemLabelIdentifier65ELi16EEE9SelectKeyES9_SC_E13find_positionERS3_
eah:_Int32_ToString_m2960866144_AdjustorThunk
exc:__ZN14SubstanceValue8TransferI18StreamedBinaryReadILb0EEEEvRT_
MEl:__ZL83MethodDictionary_t1742974787_CustomAttributesCacheGenerator_U3CU3Ef__switchU24map21P21CustomAttributesCache
bGd:__ZNK5physx21PxsBodyTransformVault12getTransformERKNS_11PxsBodyCoreE
cgc:__Z14resize_trimmedINSt3__16vectorI8Vector3f13stl_allocatorIS2_L18MemLabelIdentifier1ELi16EEEEEvRT_j
ryj:__Z57RuntimeInvoker_Int32_t2071877448_RaycastHit2D_t4063908774PK10MethodInfoPvPS2_
Ete:__Z32getPxVehicleDrive4WMDriveSimDataPKN5physx16PxVehicleDrive4WE
kem:__ZThn8_N6il2cpp2vm13ComObjectBaseINS0_12_GLOBAL__N_113ManagedObjectE14Il2CppIMarshal20Il2CppIManagedObjectNS0_7details6ComNilES7_S7_S7_S7_S7_S7_S7_E14QueryInterfaceERK10Il2CppGuidPPv
yFk:_PKCS12_get_Keys_m288413492
hea:__ZNK5Unity9Component7GetNameEv
tAj:__Z49RuntimeInvoker_Slot_t2267560602_Int32_t2071877448PK10MethodInfoPvPS2_
HRa:__ZN13RenderTexture9SetActiveEPS_i11CubemapFaceij
SKl:__ZL79Convert_t2607082565_CustomAttributesCacheGenerator_Convert_ToUInt16_m2130758075P21CustomAttributesCache
NOe:__ZN44ConvexVsHeightfieldContactGenerationCallback7onEventEjPj
krl:__ZNSt3__112__hash_tableINS_17__hash_value_typeIPK10Il2CppTypeP20Il2CppReflectionTypeEENS_22__unordered_map_hasherIS4_S7_N6il2cpp8metadata14Il2CppTypeHashELb1EEENS_21__unordered_map_equalIS4_S7_NSA_17Il2CppTypeCompareELb1EEENS9_2gc9AllocatorIS7_EEE15__insert_uniqueINS_4pairIKS4_S6_EEEENSL_INS_15__hash_iteratorIPNS_11__hash_nodeIS7_PvEEEEbEEOT_
wjl:__ZN18VirtActionInvoker1IP22GameObject_t1756533147E6InvokeEjPvS1_
AVk:_ObjectPool_1_Get_m3724675538_gshared
KSa:__ZN13ScreenManagerD0Ev
B6:_UNITY_png_set_error_fn
nq:FUNCTION_TABLE_diiii
zoc:__Z16Transfer_BuiltinId19StreamedBinaryWriteILb0EELb0EEvRK29SerializationCommandArgumentsR31RuntimeSerializationCommandInfo
Q1c:__ZNK11b2RopeJoint16GetReactionForceEf
avh:_ClientSessionCache_SetContextFromCache_m3917528339
iK:__ZN7mecanim8skeleton26SkeletonPoseComputeGlobalQEPKNS0_8SkeletonEPKNS0_13SkeletonPoseTIN4math4trsXEEEPS7_ii
sPg:_Graphic_UnregisterDirtyMaterialCallback_m819829270
wMc:__ZN11IMGUIModule18MonoBehaviourDoGUIEiR14ObjectGUIStateN13MonoBehaviour13GUILayoutTypeEi21ScriptingMethodIl2Cpp4PPtrIS2_E
lLh:_List_1_GetEnumerator_m2672519407_gshared
JUc:__ZN13TriggerModule8TransferI19StreamedBinaryWriteILb0EEEEvRT_
xM:__ZN9BlobWrite8TransferI22OffsetPtrArrayTransferIiEEEvRT_PKc17TransferMetaFlags
EXg:_ContractionComparer_Compare_m314873025
NVi:_Collection_1_IsFixedSize_m1690655146_gshared
vcm:__ZL182U3CResetCoroutineU3Ec__Iterator4_t2926400509_CustomAttributesCacheGenerator_U3CResetCoroutineU3Ec__Iterator4_System_Collections_Generic_IEnumeratorU3CobjectU3E_get_Current_m867915096P21CustomAttributesCache
gji:_GUIUtility_EndGUIFromException_m2091524531
xah:_Int64_System_IConvertible_ToDouble_m638786774
xNf:_SecurityElement_ToXml_m1070777098
Jt:__ZNK24dtObstacleAvoidanceQuery13processSampleEPKfS1_S1_S1_f
xZ:__ZN4FMOD6System7releaseEv
$ie:__ZN5physx6shdfnd8PoolBaseINS_2Sc18TriggerInteractionENS0_19ReflectionAllocatorIS3_EEE15disposeElementsEv
Nlg:_HashKeys_get_IsSynchronized_m4207641174
SXl:__ZL96Physics_t634932869_CustomAttributesCacheGenerator_Physics_RaycastAll_m3908263591____maxDistance2P21CustomAttributesCache
FCh:_Enumerator_MoveNext_m3078170540_AdjustorThunk
dOd:__ZN5physx28PxcContactCapsuleHeightFieldERKNS_2Gu13GeometryUnionES3_RKNS_11PxTransformES6_RKfRNS_10PxcNpCacheERNS0_13ContactBufferE
puk:_PlatformSpecificContent__ctor_m3463065516
SKf:_SymmetricAlgorithm_get_Padding_m718051685
rQb:__ZN26RecursivePlayableTraverser8TraverseER9FrameDataP8PlayableS3_P14DirectorPlayeriPvf
Dle:__ZN5physx6shdfnd5ArrayINS_6PxVec4ENS0_16AlignedAllocatorILj16ENS0_9AllocatorEEEE4copyIS5_EEvRKNS1_IS2_T_EE
BBa:__ZN15DirectorManager18ScheduleForRemovalEP18PlayableController
Uue:__ZL31PointInConvexPolygon2D_OutCodesPKfjffffRh
JEe:__ZN5physx22NpParticleBaseTemplateINS_16PxParticleSystemENS_16NpParticleSystemEE18setDynamicFrictionEf
Huf:__ZN2UI13CanvasManager30EmitScreenSpaceCamerasGeometryEv
B5a:__ZN10MonoScript23VirtualRedirectTransferER17RemapPPtrTransfer
_Ba:__ZN8Playable11SetDurationEd
Cnd:__ZN5physx2Sc21ArticulationJointCore21setInternalComplianceEf
PJl:__ZL76Convert_t2607082565_CustomAttributesCacheGenerator_Convert_ToChar_m541258017P21CustomAttributesCache
ede:__ZN9Rigidbody12MoveRotationERK11Quaternionf
HZd:__ZNK5physx6shdfnd10Foundation13getErrorLevelEv
brd:__ZN5physx2Sc10NPhaseCore19findTriggerContactsEPNS0_18TriggerInteractionEbb
aji:_GUIUtility_Internal_GetHotControl_m2510727642
WR:__ZN12AudioManager29ShutdownReinitializeAndReloadEv
MYe:__ZN5physx18RepXSerializerImplINS_16PxVehicleNoDriveEE12objectToFileERKNS_12PxRepXObjectEPNS_12PxCollectionERNS_9XmlWriterERNS_12MemoryBufferERNS_23PxRepXInstantiationArgsE
bFk:_NetscapeCertTypeExtension_Decode_m2210025005
sMl:__ZL59StringComparison_t2376310518_CustomAttributesCacheGeneratorP21CustomAttributesCache
a7e:__ZN5physx2Cm12DelegateTaskINS_2Sc5SceneEXadL_ZNS3_15postNarrowPhaseEPNS_10PxBaseTaskEEEE11runInternalEv
YNc:__ZN14ParticleSystem13RegisterClassEv
yae:__Z20ConvertContactToMonoP9Collision
ldk:_AudioSource_PlayOneShot_m4118899740
Eui:_RectTransform_GetLocalCorners_m1836626405
r6h:_BaseFixupRecord_DoFixup_m1821597450
NTd:__ZN5physx50solveDriveNWInternalDynamicsEnginePlusDrivenWheelsERKNS_19ImplicitSolverInputEPNS_20ImplicitSolverOutputE
qth:_TlsStream_Reset_m1504601050
y9a:__Z29GetGlobalAllowNameConversionsv
Tue:__ZL17transformVerticesRfS_S_S_PfjPKN5physx6PxVec3EPKhRKNS1_7PxMat33E
V4d:__ZNK5physx2Gu15HeightFieldUtil31getFaceIndexAtShapePointNoTest2Ejff
o0:__ZN8WWWAudioD2Ev
Qke:__ZN5physx6shdfnd5ArrayIPNS_14PxLightCpuTaskENS0_13TempAllocatorEE6resizeEjRKS3_
$Di:_Module_GetCustomAttributes_m3581287913
Oxl:__ZL67Type_t_CustomAttributesCacheGenerator_Type_IsSubclassOf_m2450899481P21CustomAttributesCache
MT:__ZN11AudioSource23VirtualRedirectTransferER18StreamedBinaryReadILb0EE
_dc:__ZL26Transfer_SimpleNativeClassI18StreamedBinaryReadILb1EE8GUIStyleLb0EEvRK29SerializationCommandArgumentsR31RuntimeSerializationCommandInfo
ctl:__ZNSt3__112basic_stringIDsNS_11char_traitsIDsEENS_9allocatorIDsEEE7reserveEj
MQd:__ZNK5physx2Sq10AABBPruner5sweepERKNS0_9ShapeDataERKNS_6PxVec3ERfRNS0_14PrunerCallbackE
Qoc:__ZN10RectOffset8TransferI19StreamedBinaryWriteILb0EEEEvRT_
Pqk:_AxisTouchButton_OnPointerUp_m1834557434
CXc:__ZNSt3__17__sort4IRPFbRK16MeshTriangleDataS3_EPS1_EEjT0_S8_S8_S8_T_
Lhb:__ZN21ArchiveStorageCreatorC2Ev
ftd:__ZN5physx2Sc5Scene21fireCallBacksPostSyncEv
nck:_AssemblyIsEditorAssembly__ctor_m2639706522
mEb:__ZN14GfxContextGLES43AddRenderSurfaceToDeferredFBOInvalidateListEPK17RenderSurfaceGLES
k0e:__ZN5physx17PxsCCDAdvanceTask11runInternalEv
xfa:__ZN11NamedObject23VirtualRedirectTransferER14SafeBinaryRead
u0:__ZNK8WWWAudio14GetPartialDataEv
Euf:__ZN2UI11CompareFuncEPNS_6CanvasES1_
Z5a:__ZN23PreloadManagerOperation6IsDoneEv
oSl:__ZL102DataUtility_t4181890362_CustomAttributesCacheGenerator_DataUtility_INTERNAL_CALL_GetOuterUV_m121019172P21CustomAttributesCache
y0i:_ReadOnlyCollection_1_System_Collections_Generic_ICollectionU3CTU3E_Clear_m656870291_gshared
S3g:_X509Certificate_get_RawData_m3000055075
dXe:__ZN5physx3Pvd17PvdPropertyFilterINS_2Sn17RepXVisitorWriterINS_27PxVehicleDifferential4WDataEEEE14handleAccessorILj543ENS_22PxRepXPropertyAccessorILj543ES4_ffEEEEvRKT0_
TZc:__ZN10Effector2D10EndContactEP9b2Contact
cem:__ZN6il2cpp2vm17ManagedObjectBaseINS0_12_GLOBAL__N_113ManagedObjectENS0_7details6ComNilES5_S5_S5_S5_S5_S5_S5_S5_E16DisconnectObjectEj
BKc:__Z62GUIStyle_CUSTOM_INTERNAL_CALL_Internal_CalcSizeWithConstraints6IntPtrP15ScriptingObjectRK13Vector2fIcallPS2_
Y5c:__ZN5physx3Cct26CharacterControllerManagerD2Ev
atg:_DateTime_AddSeconds_m722082155_AdjustorThunk
bjg:_SynchronizedArrayListWrapper_CopyTo_m956887031
HPj:_Comparer_1__ctor_m1202126643_gshared
jWl:__ZL92Transform_t3275118058_CustomAttributesCacheGenerator_Transform_get_parentInternal_m927919099P21CustomAttributesCache
dla:__ZN21LightProbeProxyVolume18HasHardwareSupportEv
c3c:__ZNK20b2SeparationFunction17FindMinSeparationEPiS0_f
IOb:__ZN6prcoreL31inner_stretch_argb8888_bilinearEPKNS_9InnerInfoE
tac:__ZNSt3__16__treeINS_12__value_typeIjbEENS_19__map_value_compareIjS2_NS_4lessIjEELb1EEE13stl_allocatorIS2_L18MemLabelIdentifier77ELi16EEE7destroyEPNS_11__tree_nodeIS2_PvEE
_rm:__ZNSt3__16locale5facetD0Ev
D6:_UNITY_png_get_gAMA
Aff:_UNITY_FT_Outline_Decompose
gwh:_TlsClientCertificate_get_ClientCertificate_m3062440489
bMf:_StrongNamePublicKeyBlob_ToString_m3721281223
Cbl:_GC_init_size_map
MGj:_InternalEnumerator_1_get_Current_m198513457_AdjustorThunk
noe:__ZN5physx6shdfnd8internal8HashBaseINS0_4PairIKNS3_IPKNS_12PxsRigidCoreEPKNS_12PxsShapeCoreEEEPNS_11PxsCCDShapeEEESA_NS0_4HashISA_EENS1_11HashMapBaseISA_SD_SG_NS0_9AllocatorEE6GetKeyESI_Lb1EE15reserveInternalEj
IKj:_InternalEnumerator_1__ctor_m1240086835_AdjustorThunk
i5:__ZN11UnityEngine15CloudWebService10RestClientINS0_16WWWRestHeaderMapEED2Ev
bhc:__ZNSt3__16vectorIh13stl_allocatorIhL18MemLabelIdentifier1ELi16EEE8__appendEj
B0i:_ReadOnlyCollection_1_System_Collections_Generic_IListU3CTU3E_RemoveAt_m313071804_gshared
qvb:__Z58Register_UnityEngine_Object_Internal_CloneSingleWithParentv
p7g:_TextInfo_ToUpper_m299550697
Jkl:__ZN18VirtActionInvoker1IhE6InvokeEjPvh
Tjl:__ZN16VirtFuncInvoker2IbP21BigInteger_t925946152P12Il2CppObjectE6InvokeEjPvS1_S3_
Ftd:__ZN5physx2Sc5Scene21setDominanceGroupPairEhhRKNS_20PxDominanceGroupPairE
V7i:_ReadOnlyCollection_1_System_Collections_IList_Contains_m4073811941_gshared
A2b:__ZN23PreloadManagerOperation21MustCompleteNextFrameEv
EOg:_Graphic_OnRectTransformDimensionsChange_m1610753363
Mw:__ZN14NavMeshManager23RemoveOffMeshConnectionEy
ntg:_DateTime_CheckDateTimeKind_m329345155_AdjustorThunk
r0j:_Context_get_ContextID_m1615769170
Nqg:_Convert_ToUInt16_m3265369225
_:Math_exp
Qjh:_MonoEnumInfo_get_Cache_m3551569711
er:FUNCTION_TABLE_iiifi
jgc:__ZNSt3__16vectorINS_12basic_stringIcNS_11char_traitsIcEE13stl_allocatorIcL18MemLabelIdentifier1ELi16EEEES4_IS7_LS5_1ELi16EEE8__appendEj
ZXf:_Array_InternalArray__ICollection_Contains_TisVector3_t2243707580_m3625701788_gshared
Dij:__Z88RuntimeInvoker_Boolean_t3825574718_Int16_t4041245914_Int16_t4041245914_Int32_t2071877448PK10MethodInfoPvPS2_
X_k:_il2cpp_object_get_virtual_method
$Td:__ZN5physx22PxVehicleWheelsSimData20setWheelShapeMappingEji
LOc:__ZN23ParticleSystemParticles22SetUsesCollisionEventsEb
eOl:__ZL55g_Mono_Security_Assembly_CustomAttributesCacheGeneratorP21CustomAttributesCache
Hif:_UNITY_FT_Create_Class_sfnt_module_class
iYj:_Text_CalculateLayoutInputHorizontal_m1578553982
Vch:_FileSystemInfo__ctor_m3955935398
zUl:__ZL87Object_t1021602117_CustomAttributesCacheGenerator_Object_DestroyObject_m282495858____t1P21CustomAttributesCache
yCh:_Enumerator_VerifyState_m2167629240_gshared
FLh:_List_1__ctor_m3261706538_gshared
Lwa:__ZN9ShaderLab9IntShader15ResolveFallbackERKNS_12ParserShaderEP6ShaderRNSt3__16vectorI4PPtrIS4_ENS6_9allocatorIS9_EEEEbR12ShaderErrors
mne:__Z8allEqualRK8Scalar4fS1_
Ged:__ZN5physx7NpScene12loadFromDescERKNS_11PxSceneDescE
Gwg:_Decimal_IsZero_m3557909184_AdjustorThunk
Kgg:_Char_ToString_m1401375624
UGf:_MD5CryptoServiceProvider__cctor_m3309191799
Web:__ZNK10FileSystem16LastErrorMessageEv
K0i:_ReadOnlyCollection_1_System_Collections_IList_IndexOf_m622689580_gshared
dkj:__Z51RuntimeInvoker_UInt32_t2149682021_Int16_t4041245914PK10MethodInfoPvPS2_
C2h:_InterpreterFactory_get_NamesMapping_m3186583301
U$j:_ConfigHandler_ReadCustomProviderData_m784203316
GRe:__ZN5physx3Pvd17PvdPropertyFilterINS_2Sn17RepXVisitorWriterINS_22PxVehicleWheelsSimDataEEEE27handleExtendedIndexPropertyILj614ES4_NS_6PxVec3EKjNS_18PxUnknownClassInfoEEEvjRKNS_29PxExtendedIndexedPropertyInfoIXT_ET0_T2_T1_EERKT3_
aUl:__ZL87Input_t1785128008_CustomAttributesCacheGenerator_Input_get_compositionString_m636835668P21CustomAttributesCache
rmk:_FrameData_t1120735295_marshal_pinvoke_back
pEh:_Enumerator_System_Collections_IEnumerator_Reset_m3052395060_gshared
XCf:__ZN22UnityWebRequestManager10InitializeEv
NWg:_U24ArrayTypeU243132_t1892466092_marshal_pinvoke
kph:_Kernel_DwordDivMod_m3728402123
L4a:__ZN13MonoBehaviour13AwakeFromLoadE17AwakeFromLoadMode
mAk:_TypeLoadException__ctor_m3218688554
Qlb:__ZN15Lz4Decompressor18ValidateBufferSizeEj
cFf:__Z38UnityWebRequest_Get_Custom_PropIsErrorP15ScriptingObject
Tva:__ZN12CachedWriter9InitWriteER15CacheWriterBase
Wnb:__Z21UnsignedInt64ToStringy
YVf:_UTF7Decoder__ctor_m549434986
SEd:__ZN5physx14PxsAABBManager15createAggregateEPvb
kNj:_InternalEnumerator_1_get_Current_m1025321669_AdjustorThunk
zvi:_Rigidbody_set_isKinematic_m738793415
Kqi:_Object_t1021602117_marshal_pinvoke
SDf:__ZN24DownloadHandlerAudioClip13OnReceiveDataEPKvj
Bem:__ZNSt3__114__split_bufferIjRNS_9allocatorIjEEED2Ev
qPk:_WaitForSecondsRealtime_get_keepWaiting_m741039114
Ixb:__Z66Register_UnityEngine_Transform_INTERNAL_CALL_InverseTransformPointv
iIj:_InternalEnumerator_1_MoveNext_m2720582493_gshared
uJh:_List_1_IndexOf_m1434084853_gshared
aUb:__ZN12LineRenderer8TransferI14SafeBinaryReadEEvRT_
rb:invoke_iiiiifiiiif
w1h:_Group__ctor_m4103922028
vga:__ZN6Camera26ClearIntermediateRenderersEj
D8:_UNITY_png_write_pCAL
HGm:_glLinkProgram__wrapper
sob:__ZN13OpenFileCache10ForceCloseERKNSt3__112basic_stringIcNS0_11char_traitsIcEENS0_9allocatorIcEEEE
ayc:__ZN6prcoreL12RemapGenericI17TexFormatARGB888815TexFormatBGR888EEvPKNS_9InnerInfoE
U4a:__ZN13MonoBehaviour35RebuildMonoInstanceFromScriptChangeEP14ScriptingClassP15ScriptingObject
rjg:_BitArray_Set_m2878881714
o_i:_Collection_1_get_Item_m4215988522_gshared
a5a:__Z20RequiredComponentsOfP14ScriptingClass
fhd:__ZN5physx7NpShape8requiresERNS_23PxProcessPxBaseCallbackE
f2k:__ZN6il2cpp6icalls8mscorlib6System13Globalization11CultureInfo35construct_internal_locale_from_nameEP17Il2CppCultureInfoP12Il2CppString
Nbj:__Z58RuntimeInvoker_Il2CppObject_Int32_t2071877448_Il2CppObjectPK10MethodInfoPvPS2_
Sle:__ZNK13Simd4fFactoryIN6detail7IntTypeILi0EEEEcv8Scalar4fEv
wnl:__ZN18VirtActionInvoker2Ii40CustomAttributeTypedArgument_t1498197914E6InvokeEjPviS0_
mXa:__ZN9Transform8TransferI13ProxyTransferEEvRT_
XYk:__ZN6il2cpp2vm21ThreadPoolCompartment20SpawnNewWorkerThreadEv
XCl:__ZL55COMException_t1790481504_CustomAttributesCacheGeneratorP21CustomAttributesCache
m$g:_ASN1_get_Count_m404940548
g1j:_ContextAttribute_Equals_m53324298
E0d:__ZN5physx2Gu30computeCapsule_TriangleMeshMTDERKNS_22PxTriangleMeshGeometryERKNS_11PxTransformERNS0_8CapsuleVEffbRNS_10PxSweepHitE
Ql:_emscripten_set_main_loop_timing
GEk:_WeakReference_AllocateHandle_m1783929473
Fnd:__ZN5physx2Sc21ArticulationJointCore22setTangentialStiffnessEf
yYe:__ZZNK5physx26PxSerializerDefaultAdapterINS_18PxVehicleDriveTankEE18registerReferencesERNS_6PxBaseERNS_22PxSerializationContextEEN16RequiresCallback7processES4_
Xzi:_GenericTypeParameterBuilder_GetAttributeFlagsImpl_m3338182267
xGe:__ZNK5physx20SingleAABBUpdateTask7getNameEv
dOa:__ZN14ImageReference10FlipImageYEv
QZ:__ZN4FMOD6System23set3DListenerAttributesEiPK11FMOD_VECTORS3_S3_S3_
oXb:__ZN30RuntimeInitializeOnLoadManager8TransferI18StreamedBinaryReadILb0EEEEvRT_
bEc:__Z32TransferEnumWithNameForceIntSizeI14SafeBinaryRead13TargetEyeMaskEvRT_RT0_PKc17TransferMetaFlags
GIc:__Z14GetDefaultSkini
jCg:_CultureInfo_get_Name_m3316229893
Psg:_DateTime_get_Ticks_m310281298_AdjustorThunk
fZ:__ZN4FMOD3DSP9setBypassEb
r$i:_Collection_1_System_Collections_IList_get_Item_m287847793_gshared
Lzb:__Z19NormalizeWheelInputf
i1h:_CaptureCollection_CopyTo_m1982767892
o_b:__Z29StdTemplateConversionFunctionIsaEbPvR14SafeBinaryRead
fYf:_Array_InternalArray__ICollection_Remove_TisLink_t865133271_m1984184141_gshared
$X:__ZN10ObjectPoolIN4FMOD5SoundENS0_6SoundIEE8ValidateEPS1_
lAk:_Type_MakeGenericType_m2765875033
oVg:_LayoutRebuilder_IsDestroyed_m3442208294
tMa:__ZN11MonoManager25GetImageFromAssemblyIndexEi
zzd:__ZN5physx2Sc9ClothCore17addCollisionPlaneERKNS_21PxClothCollisionPlaneE
jaj:__Z123RuntimeInvoker_Void_t1841601450_Int32U26_t455636984_Il2CppObject_Il2CppObject_BooleanU26_t3168250738_BooleanU26_t3168250738PK10MethodInfoPvPS2_
HEb:__ZN4gles18CreateStencilStateER15DeviceStateGLESRK15GfxStencilState
Y3l:__ZL110ExecuteEvents_t1693084770_CustomAttributesCacheGenerator_ExecuteEvents_U3Cs_HandlerListPoolU3Em__0_m2903690915P21CustomAttributesCache
zCj:__Z135RuntimeInvoker_Il2CppObject_CustomAttributeTypedArgument_t1498197914_CustomAttributeTypedArgument_t1498197914_Il2CppObject_Il2CppObjectPK10MethodInfoPvPS2_
jfm:__ZNSt3__13mapIP24Il2CppReflectionAssemblyPvNS_4lessIS2_EENS_9allocatorINS_4pairIKS2_S3_EEEEE25__construct_node_with_keyERS8_
YIe:__ZNK5physx13PxHeightField8isKindOfEPKc
Eil:__ZN18VirtActionInvoker1IP12Il2CppObjectE6InvokeEjPvS1_
yJa:__ZN9GfxDevice14ImmediateBeginE16GfxPrimitiveTypePK14ChannelAssigns
wph:_SequentialSearchPrimeGeneratorBase_GenerateSearchBase_m2930465198
fja:__ZN16GraphicsSettings12CleanupClassEv
oy:__ZN12NavMeshAreas8TransferI13ProxyTransferEEvRT_
M7k:__ZN6il2cpp2os6Thread19DetachCurrentThreadEv
Gll:__ZN23InterfaceActionInvoker2IP12Il2CppObjectS1_E6InvokeEjP11Il2CppClassPvS1_S1_
Dpl:__ZN6il2cpp2vmL21SetupInterfacesLockedEP11Il2CppClassRKNS_2os12FastAutoLockE
iDe:__ZNK5physx15NpActorTemplateINS_15PxParticleFluidEE12getAggregateEv
Pwd:__ZNK5physx2Sc18ParticleSystemCore16getInternalFlagsEv
vCc:__ZN19StreamedBinaryWriteILb0EE8TransferI13dynamic_arrayI8Vector3fLj4EEEEvRT_PKc17TransferMetaFlags
Y0b:__ZL31DeleteLastPathNameComponentImplRKNSt3__112basic_stringIcNS_11char_traitsIcEENS_9allocatorIcEEEEPKc
YUk:_ListPool_1_U3Cs_ListPoolU3Em__14_m1351316599_gshared
mhi:_GUIStyle_set_clipOffset_m3871613343
DRg:_SubmitEvent__ctor_m222860306
rbf:__ZN16ControllerFilter9preFilterERKN5physx12PxFilterDataEPKNS0_7PxShapeEPKNS0_12PxRigidActorERNS0_7PxFlagsINS0_9PxHitFlag4EnumEtEE
j2:__ZN11UnityEngine15CloudWebService14DataDispatcher15SetupWebRequestEv
Bij:__Z94RuntimeInvoker_Int32_t2071877448_Il2CppObject_Int32_t2071877448_Il2CppObject_Int32_t2071877448PK10MethodInfoPvPS2_
Khh:_TextWriter__cctor_m4047845042
gyh:_ReceiveRecordAsyncResult_get_Record_m1336421357
eil:__ZN16VirtFuncInvoker2IbP12Il2CppObjectS1_E6InvokeEjPvS1_S1_
nGd:__ZN16MBPOS_TmpBuffers16allocateSleepingEjj
wse:__Z26getPxVehicleWheelDataMMassPKN5physx18PxVehicleWheelDataE
PDf:__ZN24DownloadHandlerAudioClipC2ERKNSt3__112basic_stringIcNS0_11char_traitsIcEENS0_9allocatorIcEEEE15FMOD_SOUND_TYPE
MJl:__ZL76Convert_t2607082565_CustomAttributesCacheGenerator_Convert_ToByte_m509311047P21CustomAttributesCache
VSg:_InputField_CaretBlink_m3960486606
vol:__ZN23InterfaceActionInvoker3IP12Il2CppObjectbbE6InvokeEjP11Il2CppClassPvS1_bb
S4g:_SmallXmlParser_ReadCharacters_m1966365555
uAh:_InternalAsyncResult_get_CompletedWithError_m3993955322
D8d:__ZN19CharacterController23VirtualRedirectTransferER19StreamedBinaryWriteILb0EE
gAc:__ZN21FixedBehaviourManager6UpdateEv
S5:_UNITY_png_free_data
PPg:_GridLayoutGroup_set_startCorner_m1660251450
OTc:__ZN15CollisionModule8TransferI18StreamedBinaryReadILb0EEEEvRT_
Evk:_EventWaitHandle__ctor_m106135182
m7l:__ZL68InputField_t1631627530_CustomAttributesCacheGenerator_m_AsteriskCharP21CustomAttributesCache
gva:__ZN19RuntimeSceneManager24BeginIntegrateMainThreadEP10UnityScene
Lpj:__Z42RuntimeInvoker_RuntimePlatform_t1869584967PK10MethodInfoPvPS2_
U8c:__ZN5physx14NpArticulation26setExternalDriveIterationsEj
LMe:__ZN16RayRTreeCallbackILi0ELb0EED0Ev
XBl:__ZL62CustomAttributeData_t3093286891_CustomAttributesCacheGeneratorP21CustomAttributesCache
pnj:__Z80RuntimeInvoker_Void_t1841601450_Il2CppObject_Int32_t2071877448_Int16_t4041245914PK10MethodInfoPvPS2_
zLd:__ZN5physx20PxsParticleSystemSim23scheduleCollisionUpdateERNS_10PxBaseTaskE
vWk:_AesManaged_set_IV_m2479404195
Vgj:__Z53RuntimeInvoker_MonoEventInfo_t2190036573_Il2CppObjectPK10MethodInfoPvPS2_
Bih:_LocalDataStoreSlot__cctor_m1192669356
Ufl:__GLOBAL__sub_I_ArrayMetadata_cpp
QTl:__ZL78Input_t1785128008_CustomAttributesCacheGenerator_Input_GetButtonUp_m1680009186P21CustomAttributesCache
nlm:_roundf
CRf:_String_CreateString_m2556700934
gWd:__Z36setPxVehicleDriveDynData_AnalogInputPN5physx21PxVehicleDriveDynDataEjf
kil:__ZN23InterfaceActionInvoker1IP12Il2CppObjectE6InvokeEjP11Il2CppClassPvS1_
Jbf:__ZN5physx15PxBoxControllerD0Ev
wE:__ZN8Animator15SetPrepareStageEv
Ecl:__ZN6il2cpp6icalls8mscorlib6System4Text8Encoding16InternalCodePageEPi
RWj:_Slider_get_axis_m162140813
REi:_MonoEventInfo_t2190036573_marshal_pinvoke
Gpl:__ZN6il2cpp2vmL24SetupTypeHierarchyLockedEP11Il2CppClassRKNS_2os12FastAutoLockE
CBj:__Z72RuntimeInvoker_Int32_t2071877448_Vector3_t2243707580_Vector3_t2243707580PK10MethodInfoPvPS2_
t1b:__ZL11TextHandleriPK23EmscriptenKeyboardEventPv
Bla:__Z20CalculateLightMatrixRK15SharedLightDataP10Matrix4x4f
dVj:_ScrollRect_SetLayoutHorizontal_m3486408020
xmf:_destroy_face
Eea:__ZN5Unity9Component13RegisterClassEv
eKc:__Z37GUIStyle_Get_Custom_PropStretchHeightP15ScriptingObject
azm:dynCall_viiiiiffii
JAl:__ZL55StreamWriter_t3858580635_CustomAttributesCacheGeneratorP21CustomAttributesCache
SHe:__ZN5physx19PxAllocatorCallbackD2Ev
Ccl:__ZN6il2cpp6icalls8mscorlib6System8Security12Cryptography24RNGCryptoServiceProvider13RngInitializeEP11Il2CppArray
BPh:_List_1_System_Collections_ICollection_get_IsSynchronized_m227393674_gshared
fYc:__ZN21RotationBySpeedModuleD0Ev
WWh:_IPAddress__cctor_m3624830012
jEe:__ZNK5physx15NpActorTemplateINS_16PxParticleSystemEE17getDominanceGroupEv
PU:__ZN20SoundChannelInstance7setMuteEb
JWj:_Slider_Rebuild_m3442875945
$Bc:__ZN4PPtrI5LightE8TransferI19StreamedBinaryWriteILb0EEEEvRT_
k6c:__ZN5physx3Cct26CharacterControllerManager21createObstacleContextEv
qRi:_DefaultComparer_GetHashCode_m3250641461_gshared
SYh:_AsnEncodedData_EnhancedKeyUsageExtension_m1452131166
n8l:__ZL69Scrollbar_t3248359358_CustomAttributesCacheGenerator_m_OnValueChangedP21CustomAttributesCache
mfc:__Z19TransferField_ArrayI18StreamedBinaryReadILb1EE27Converter_SimpleNativeClassI17AnimationCurveTplIfEEEvRK23StaticTransferFieldInfoR31RuntimeSerializationCommandInfoRT0_
Vrf:__ZN18StreamedBinaryReadILb0EE21TransferSTLStyleArrayINSt3__16vectorI8UnityStr13stl_allocatorIS4_L18MemLabelIdentifier34ELi16EEEEEEvRT_17TransferMetaFlags
zBh:_KeyValuePair_2__ctor_m3201181706_gshared
y$c:__ZN7b2World18SetContactListenerEP17b2ContactListener
q8e:__ZN5physx15NpActorTemplateINS_15PxParticleFluidEE7releaseEv
C2f:_Array_InternalArray__ICollection_CopyTo_TisUriScheme_t1876590943_m239032216_gshared
D1h:_GroupCollection_get_IsSynchronized_m1100663675
NDb:__ZN18GfxFramebufferGLES22MakeCurrentFramebufferENS_7BuiltinE
zcl:__ZN6il2cpp2vm12MarshalAlloc4FreeEPv
W1h:_Interpreter_Close_m1500459069
yje:__ZN5physx6shdfnd5ArrayIPNS_2Sc19ShapeInstancePairLLENS0_19ReflectionAllocatorIS4_EEE15growAndPushBackERKS4_
t8a:__ZN9Scripting42GetScriptingWrapperOfComponentOfGameObjectER10GameObjectRKNSt3__112basic_stringIcNS2_11char_traitsIcEENS2_9allocatorIcEEEE
h2a:__ZN30RuntimeInitializeOnLoadManager23VirtualRedirectTransferER18StreamedBinaryReadILb1EE
Kva:__ZN12CachedReader4ReadEPvj
bHe:__ZN5physx21MBPPostUpdateWorkTaskD0Ev
WEd:__ZN5physx14PxsAABBManager19createAggregateElemEv
qCe:__ZNK5physx13PxRigidStatic8isKindOfEPKc
QGj:_InternalEnumerator_1_System_Collections_IEnumerator_get_Current_m3600601141_gshared
AJf:_SHA1Internal_HashFinal_m3188468925
dxc:__ZN14SubstanceInput8TransferI18StreamedBinaryReadILb0EEEEvRT_
QOk:_Vector3_op_Inequality_m799191452
j_:__Z38AudioSource_Set_Custom_PropMaxDistanceP15ScriptingObjectf
koa:__Z24CalculateLightShadowFadeRK6CamerafffR8Vector4f
N3b:__ZN19RuntimeSceneManagerD2Ev
Hfj:__Z89RuntimeInvoker_Void_t1841601450_Int32U26_t455636984_Int32U26_t455636984_Int32_t2071877448PK10MethodInfoPvPS2_
a$j:_ChannelData_get_CustomProperties_m1470957369
Uuk:_U3CDeactivateU3Ec__Iterator7_Reset_m1746529067
YPb:__ZN13dynamic_arrayIPN9ShaderLab4PassELj4EE9push_backERKS2_
Fta:__ZN6prcore17GetIntegerBlitterE13TextureFormatS0_N14ImageReference8BlitModeE
uId:__ZN5physx10PxsContext20createContactManagerERKNS_24PxvManagerDescRigidRigidEPNS_18PxsMaterialManagerE
QJi:_Enumerator_VerifyState_m3173176371_AdjustorThunk
V8e:__ZN5physx2Cm12DelegateTaskINS_7NpSceneEXadL_ZNS2_12executeSolveEPNS_10PxBaseTaskEEEED0Ev
wwe:__ZN5physx2GuL18gPCMHullPrefetchCBEjPKNS_6PxVec3E
Dsd:__ZN5physx2Sc5Scene31removeActiveBreakableConstraintEPNS0_13ConstraintSimE
hbh:_Int64_ToString_m1275187741
eWh:_TypeConverterAttribute__cctor_m506796812
xTf:_Encoding_get_IsReadOnly_m3729101432
Bbb:__ZN9BlobWrite14ReduceCopyImplERK14ReduceCopyDataj
sXg:_SafeHandleZeroOrMinusOneIsInvalid_get_IsInvalid_m2033528032
hEk:_ValueType_t3507792607_marshal_pinvoke_back
NPj:_Comparer_1_System_Collections_IComparer_Compare_m1790257529_gshared
lCj:__Z37RuntimeInvoker_Enumerator_t3220004478PK10MethodInfoPvPS2_
UDi:_MethodInfo_get_ContainsGenericParameters_m572340060
f2c:__ZNK12b2WheelJoint10GetAnchorAEv
Yhe:__ZN5physx6shdfnd5ArrayINS_12PxActorShapeENS0_19ReflectionAllocatorIS2_EEE15growAndPushBackERKS2_
Ujb:__ZN25MultiBlocksMemoryFileData17AdjustBlocksCountEj
uWg:_U24ArrayTypeU24128_t116038554_marshal_pinvoke_cleanup
Qfm:__ZNSt3__16vectorIN6il2cpp2vm17TypeNameParseInfoENS_9allocatorIS3_EEE26__swap_out_circular_bufferERNS_14__split_bufferIS3_RS5_EE
Ywb:__Z38Transform_CUSTOM_INTERNAL_get_rotationP15ScriptingObjectR11Quaternionf
Bra:__ZN17CommonStringTableC2Ev
E0j:_Context_NotifyGlobalDynamicSinks_m2916447645
Kka:__Z37CleanupLightAnimationBindingInterfacev
osi:_Random_Range_m2884721203
jsl:__ZN6il2cpp6icalls8mscorlib6SystemL23CheckWideningConversionEjjj
QPb:__ZN9ShaderLab14ParserGrabPass7AddTagsERKNSt3__13mapIiiNS1_4lessIiEENS1_9allocatorINS1_4pairIKiiEEEEEE
Syj:__Z48RuntimeInvoker_Void_t1841601450_Mark_t2724874473PK10MethodInfoPvPS2_
$di:_GUILayoutEntry_ApplyStyleSettings_m371609721
t3b:__ZN20IntermediateRenderer7GetMeshEv
upd:__ZN5physx2Sc14ConstraintCore8setFlagsENS_7PxFlagsINS_16PxConstraintFlag4EnumEtEE
UYi:_Collection_1_Remove_m1798559666_gshared
ko:_glStencilMask
P8:_jpeg_consume_input
v6k:__ZN6il2cpp2os10ThreadImpl16GetCurrentThreadEv
HAd:__ZNK5physx2Sc15ClothFabricCore20getNbParticleIndicesEv
YXa:__ZN15GUIEventManager10QueueEventERK10InputEvent
vJi:_Enumerator_System_Collections_IEnumerator_get_Current_m2010873149_gshared
yMg:_Resources_t2975512894_marshal_pinvoke_cleanup
fbk:_AnimationEvent_get_messageOptions_m3547411650
fIh:_List_1_System_Collections_ICollection_get_IsSynchronized_m42432439_gshared
k9l:__ZL74SpriteState_t1353336012_CustomAttributesCacheGenerator_m_HighlightedSpriteP21CustomAttributesCache
bkc:__Z16Transfer_BuiltinI5RectTIfE13ProxyTransferLb0EEvRK29SerializationCommandArgumentsR31RuntimeSerializationCommandInfo
F4h:_RealProxy__ctor_m2505535530
ibl:_GC_push_conditional_with_exclusions
XBk:_UInt32_System_IConvertible_ToUInt16_m2798641702_AdjustorThunk
N6h:_BinaryFormatter_get_DefaultSurrogateSelector_m219714691
x9d:__ZN8Collider23VirtualRedirectTransferER18StreamedBinaryReadILb1EE
IN:__ZN21AnimationPosePlayableD0Ev
p4:__ZN11UnityEngine15CloudWebService10RestClientINS0_16WWWRestHeaderMapEE6SetUrlERK8UnityStr
Apf:_Compute_Point_Displacement
EWl:__ZL76Time_t31991979_CustomAttributesCacheGenerator_Time_get_deltaTime_m2233168104P21CustomAttributesCache
Tqh:_MD4Managed_Encode_m2097839378
p$i:_Collection_1_System_Collections_IList_get_IsFixedSize_m3252091801_gshared
Xwj:__Z57RuntimeInvoker_Boolean_t3825574718_LabelFixup_t4090909514PK10MethodInfoPvPS2_
GLg:_FloatTween_get_ignoreTimeScale_m4161298485_AdjustorThunk
Nrf:__ZNSt3__16vectorINS_4pairINS1_IttEEfEENS_9allocatorIS3_EEE8__appendEj
aag:_Component_GetComponents_TisIl2CppObject_m1073237913_gshared
$ml:__ZN16VirtFuncInvoker0IP18Stream_t3255436806E6InvokeEjPv
K4i:_ReadOnlyCollection_1_System_Collections_IList_get_IsFixedSize_m993752291_gshared
qUj:_ScrollRect_UpdateBounds_m3266596336
epd:__ZN5physx2Sc7BodySim6wakeUpEv
IC:__ZN11UnityEngine9Animation28GenericAnimationBindingCache25RegisterIAnimationBindingE11ClassIDTypeiP17IAnimationBinding
Hjl:__ZN21InterfaceFuncInvoker1IP19Graphic_t2426225576iE6InvokeEjP11Il2CppClassPvi
AYg:_SimpleCollator_GetSortKey_m2188419329
Qoe:__ZN5physx6shdfnd8PoolBaseINS_2Gu30LargePersistentContactManifoldENS0_19ReflectionAllocatorIS3_EEE17releaseEmptySlabsEv
Npd:__ZN5physx2Sc21ConstraintInteraction7destroyEv
aam:__ZL56LayoutElement_t2808691390_CustomAttributesCacheGeneratorP21CustomAttributesCache
HSj:_Scrollbar_Set_m244028386
fyb:__Z33Register_UnityEngine_Random_Rangev
nPg:_Graphic_RegisterDirtyLayoutCallback_m2729784980
mHe:__ZN5physx13PxsSolverCoreD2Ev
DN:__ZN27AnimationLayerMixerPlayableD0Ev
Mna:__ZN14RenderSettings27UpdateIndirectSpecularColorEv
z_i:_Collection_1_System_Collections_IEnumerable_GetEnumerator_m2964241726_gshared
xjc:__ZN14SafeBinaryRead21TransferSTLStyleArrayINSt3__16vectorIj13stl_allocatorIjL18MemLabelIdentifier1ELi16EEEEEEvRT_17TransferMetaFlags
qZk:__ZN6il2cpp6icalls8mscorlib6System8MonoType16GetMethodsByNameEP20Il2CppReflectionTypeP12Il2CppStringibS5_
xSc:__ZN13InitialModule18GenerateProceduralERK27ParticleSystemReadOnlyStateRK19ParticleSystemStateR23ParticleSystemParticlesRK24ParticleSystemEmitReplay
E3a:__ZN9Coroutine3RunEv
Mkk:_AnimationPlayable_op_Implicit_m408821639
e0a:__ZN5Cache17ReadCacheInfoFileERKNSt3__112basic_stringIcNS0_11char_traitsIcEENS0_9allocatorIcEEEEPlS9_
nfd:__ZNK5physx7NpScene16getNbConstraintsEv
Rqc:__ZNSt3__16vectorIN30RuntimeInitializeOnLoadManager15ClassMethodInfoE13stl_allocatorIS2_L18MemLabelIdentifier12ELi16EEE26__swap_out_circular_bufferERNS_14__split_bufferIS2_RS5_EE
qR:__Z27RegisterClass_AudioListenerv
Gsl:__ZN6il2cpp2vm5Class18GetInterfaceOffsetEP11Il2CppClassS3_
Qld:__ZN5physx7NpCloth14setWakeCounterEf
CUb:__ZN4PPtrI10GameObjectE8TransferI14SafeBinaryReadEEvRT_
eWg:_Mask_IsRaycastLocationValid_m62488857
IXl:__ZL105Physics_t634932869_CustomAttributesCacheGenerator_Physics_Raycast_m2036777053____queryTriggerInteraction5P21CustomAttributesCache
FQe:__ZN5physx7profile11EventBufferINS_24PxDefaultContextProviderENS_6shdfnd6MutexTINS0_26WrapperReflectionAllocatorIhEEEENS0_14ScopedLockImplIS7_EENS_24PxProfileNullEventFilterEE17doAddProfileEventINS0_10StartEventEEEvtRKT_
_Oj:_DefaultComparer_Compare_m3472472212_gshared
Mdh:_MonoIO_GetLength_m2812344043
Kpf:_ps_hints_t2mask
D3l:__ZL68UsedByNativeCodeAttribute_t3212052468_CustomAttributesCacheGeneratorP21CustomAttributesCache
pbg:_Array_SetValue_m3301692024
ATd:__ZN5physx43PxVehicleDrivableSurfaceToTireFrictionPairs5setupEjjPPKNS_10PxMaterialEPKNS_28PxVehicleDrivableSurfaceTypeE
PVd:__Z46setPxVehicleWheelsSimData_SceneQueryFilterDataPN5physx22PxVehicleWheelsSimDataEjNS_12PxFilterDataE
Uuc:__ZN10BlendShape8TransferI19StreamedBinaryWriteILb0EEEEvRT_
QYb:__ZL4WalkRK16TypeTreeIteratorR12CachedReaderPib
r3e:__ZThn4_NK5physx5cloth9ClothImplINS0_7SwClothEE28getTetherConstraintStiffnessEv
I4d:__ZNK5physx2Gu11HeightField17getReferenceCountEv
UMk:_Transform_IsChildOf_m10844547
E0:__Z32TransferEnumWithNameForceIntSizeI14SafeBinaryReadN10SampleClip8LoadTypeEEvRT_RT0_PKc17TransferMetaFlags
xAb:__Z19GetTimeSinceStartupv
chm:__ZNSt3__112__hash_tableINS_17__hash_value_typeINS_4pairIPK9FieldInfoP11Il2CppClassEEP21Il2CppReflectionFieldEENS_22__unordered_map_hasherIS8_SB_17ReflectionMapHashIS8_ELb1EEENS_21__unordered_map_equalIS8_SB_19ReflectionMapEqualsIS8_ELb1EEEN6il2cpp2gc9AllocatorISB_EEE6rehashEj
WTa:__ZN7Texture23VirtualRedirectTransferER17RemapPPtrTransfer
doi:_DownloadHandlerTexture__ctor_m2962555213
FQ:__ZN9AudioClip22GetFormatFromExtensionERKNSt3__112basic_stringIcNS0_11char_traitsIcEENS0_9allocatorIcEEEE
qDi:_FieldInfo_GetPseudoCustomAttributes_m2500972355
DLf:_X509Certificate_GetEffectiveDateString_m644894317
apf:_TT_Load_Composite_Glyph
QPk:_NetFxCoreExtensions_CreateDelegate_m2492743074
H_a:__Z33MultiplyMatrixArrayWithBase4x4REFPK10Matrix4x4fS1_S1_PS_j
yaj:__Z51RuntimeInvoker_Boolean_t3825574718_Int64_t909078037PK10MethodInfoPvPS2_
rP:__ZNSt3__17__sort4IRN11UnityEngine9Animation11BindingSortEPNS_4pairINS2_14GenericBindingEPNS2_10BoundIndexEEEEEjT0_SB_SB_SB_T_
Xbg:_Array_Sort_m2994254654
Au:__ZN15HeightMeshQueryD0Ev
iRh:_List_1__ctor_m593058937_gshared
p_f:_Array_InternalArray__IEnumerable_GetEnumerator_TisColor32_t874517518_m2198639025_gshared
CNb:__ZN4PPtrI8MaterialE8TransferI19StreamedBinaryWriteILb0EEEEvRT_
una:__ZN29RenderNodeQueuePrepareContextC2Ev
Ami:_Mesh_Clear_m231813403
m7c:__ZNK5physx27PxClothGeodesicTetherCooker15getCookerStatusEv
iwh:_TlsClientCertificate_Update_m3781462820
R3e:__ZThn4_NK5physx5cloth9ClothImplINS0_7SwClothEE20getSleepTestIntervalEv
zt:__ZN15dtLocalBoundary6updateEyPKffPK14dtNavMeshQueryPK13dtQueryFilter
HAk:_UInt16_System_IConvertible_ToChar_m4055364664_AdjustorThunk
Iwk:_Thread_set_Name_m1343706609
Gdm:__ZN6il2cpp2os11MutexHandle4WaitEj
uPj:_DefaultComparer_Compare_m2804119458_gshared
rNg:_Dropdown_DestroyDropdownList_m2110837897
Cne:__ZN5physx6shdfnd5ArrayINS_5cloth8SwSolver22CpuClothSimulationTaskENS0_9AllocatorEE15growAndPushBackERKS4_
dhg:_ArrayList_set_Capacity_m592558035
Zom:__ZNSt3__19__num_putIwE21__widen_and_group_intEPcS2_S2_PwRS3_S4_RKNS_6localeE
qFh:_List_1_System_Collections_Generic_ICollectionU3CTU3E_get_IsReadOnly_m3807385908_gshared
fzc:__ZN6prcoreL17RemapGenericFloatI15TexFormatRGHalf18TexFormatARGBFloatEEvPKNS_9InnerInfoE
Ujh:_MonoEnumInfo_t2335995564_marshal_pinvoke_cleanup
b7b:__ZNK13RenderTexture13GetDataHeightEv
wah:_Int64_System_IConvertible_ToDecimal_m3390697048_AdjustorThunk
Zma:__ZN13RenderManager23AddRemoveCamerasDelayedEv
F8:_UNITY_png_write_pHYs
v2b:__ZN23PreloadManagerOperation11GetPriorityEv
LAg:_Exception_get_InnerException_m3722561235
zYf:_Array_InternalArray__ICollection_Remove_TisILTokenInfo_t149559338_m1523907845_gshared
WPl:__ZL84RectOffset_t3387826427_CustomAttributesCacheGenerator_RectOffset_get_left_m439065308P21CustomAttributesCache
vFg:_ExecuteEvents_U3Cs_HandlerListPoolU3Em__0_m2903690915
_9d:__ZNK5Unity5Joint16GetCurrentForcesER8Vector3fS2_
Fol:__ZN21InterfaceFuncInvoker4IP17Match_t3164245899P17Regex_t1803876613P8String_tiiE6InvokeEjP11Il2CppClassPvS3_S5_ii
Alg:_Hashtable_Rehash_m2877670513
xPa:__ZN12LineRenderer13AwakeFromLoadE17AwakeFromLoadMode
sVd:__Z35getPxVehicleWheelsSimData_WheelDataPKN5physx22PxVehicleWheelsSimDataEj
dSa:__ZN13RenderTexture8SetWidthEi
bZd:__ZN5physx9PxTaskMgr12dispatchTaskEmb
xsc:__ZNK28RectTransformPropertyBinding12SetPPtrValueERKN11UnityEngine9Animation10BoundCurveEi
rYc:__ZN11ColorModuleD0Ev
K4b:__ZN10MeshFilterD0Ev
p2a:__ZN22BuiltinResourceManager16StaticInitializeEPv
Lij:__Z132RuntimeInvoker_Int32_t2071877448_Il2CppObject_Int32_t2071877448_Int32_t2071877448_Il2CppObject_Int32_t2071877448_Int32U26_t455636984PK10MethodInfoPvPS2_
yZd:__ZNK5physx6shdfnd10Foundation20getAllocatorCallbackEv
j1f:_Array_InternalArray__ICollection_Add_TisCustomAttributeTypedArgument_t1498197914_m3260005285_gshared
bmg:_SyncHashtable_GetObjectData_m3774367030
Tp:FUNCTION_TABLE_fiffifi
zw:__ZN14NavMeshManager13RestoreTileAtEiii
M7g:_Guid_GetHashCode_m1401300871
pLc:__Z42Register_UnityEngine_GUIStyle_set_fontSizev
RBl:__ZL61CallingConventions_t1097349142_CustomAttributesCacheGeneratorP21CustomAttributesCache
Xbd:__ZNK5physx9NpFactory11getNbShapesEv
aXa:__ZNK9Transform14TransformPointERK8Vector3f
Fsl:__ZNSt3__16vectorIPK10Il2CppTypeNS_9allocatorIS3_EEE7reserveEj
MNg:_FontData__ctor_m3822008992
Baj:__Z140RuntimeInvoker_Boolean_t3825574718_Il2CppObject_Int32_t2071877448_Il2CppObject_SByte_t454417549_Int64U26_t763825331_ExceptionU26_t1467204777PK10MethodInfoPvPS2_
zO:__ZN4PPtrI6AvatarE8TransferI19StreamedBinaryWriteILb0EEEEvRT_
avj:__Z42RuntimeInvoker_ScreenMatchMode_t1916789528PK10MethodInfoPvPS2_
uwa:__ZN9ShaderLab16FastPropertyName4InitEPKc
I3c:__ZN11b2GearJointD0Ev
jgl:__GLOBAL__sub_I_Il2CppCodeRegistration_cpp
XXg:_MSCompatUnicodeTable_ToWidthCompat_m2299599532
Zlh:_NumberFormatter_get_IsFloatingSource_m2830957202
_1k:__ZN6il2cpp2vm14PlatformInvoke18MarshalStringArrayEP11Il2CppArrayPPc
mkm:__ZNSt8bad_castD2Ev
lsm:__ZNSt3__15ctypeIcE21__classic_lower_tableEv
HGa:__ZN10VertexData8TransferI17RemapPPtrTransferEEvRT_
fSa:__ZN13RenderTexture9SetMipMapEb
hUj:_ScrollRect_set_verticalScrollbarSpacing_m2356851539
i_a:__Z19MultiplyMatrices3x4RK10Matrix4x4fS1_RS_
VAd:__ZN5physx2Sc10ClothShape21updateBoundsInAABBMgrEv
rnh:_OperatingSystem_GetObjectData_m2276196875
lvi:_ResourceRequest_t2560315377_marshal_pinvoke_back
z3k:__ZN6il2cpp2vm9Exception20GetTypeLoadExceptionEv
at:__ZN7dtCrowd26UpdateTopologyOptimizationEf
QVd:__Z44setPxVehicleWheelsSimData_TireLoadFilterDataPN5physx22PxVehicleWheelsSimDataERKNS_27PxVehicleTireLoadFilterDataE
iWd:__Z31getPxVehicleDriveDynData_GearUpPKN5physx21PxVehicleDriveDynDataE
SCl:__ZL66CriticalFinalizerObject_t1920899984_CustomAttributesCacheGeneratorP21CustomAttributesCache
PKb:__ZN6Object31FindObjectsOfTypeImplementationI19InstanceIDCollectorEEv11ClassIDTypeT_
gTc:__Z19CalculateVertexDataRK14StrideIteratorI8Vector3fES3_RKS_I11ColorRGBA32EiP12SkinMeshInfoRS0_SA_RS4_
Rrd:__ZN5physx2Sc5Scene17createClothSolverEv
uPf:_String_System_IConvertible_ToInt32_m1927223638
XYf:_Array_InternalArray__ICollection_Remove_TisContentType_t1028629049_m3085152315_gshared
iLd:__ZNK5physx15PxsParticleData16getMaxParticlesVEv
dbi:_CryptographicException__ctor_m406825529
Mij:__Z118RuntimeInvoker_Int32_t2071877448_Il2CppObject_Int32_t2071877448_Int32_t2071877448_CharU26_t1894467670_SByte_t454417549PK10MethodInfoPvPS2_
Oek:_Canvas_set_sortingOrder_m2922819993
YPe:__ZThn116_N5physx7profile8ZoneImplINS_28PxProfileNameProviderForwardEE12removeClientERNS_19PxProfileZoneClientE
BGd:__ZN15MBP_PairManager17removeMarkedPairsEPK10MBP_ObjectPN5physx16PxsBroadPhaseMBPERK8BitArrayS8_
fJb:_start_pass_dcolor
TRf:_ASCIIEncoding__ctor_m4127831672
mjc:__Z19TransferField_ArrayI14SafeBinaryRead27Converter_SimpleNativeClassI8GUIStyleEEvRK23StaticTransferFieldInfoR31RuntimeSerializationCommandInfoRT0_
Eke:__ZN5physx6shdfnd5ArrayIPNS_2Sc9ClothCoreENS0_19ReflectionAllocatorIS4_EEE15growAndPushBackERKS4_
Lch:_MonoIO_GetCurrentDirectory_m1509324201
hTk:_UnityEvent_1_AddListener_m1708363187_gshared
jtj:__Z54RuntimeInvoker_Boolean_t3825574718_HitInfo_t1761367055PK10MethodInfoPvPS2_
E$h:_X509Chain_GetAuthorityKeyIdentifier_m2607407678
Icl:__ZN6il2cpp5utils10MemoryPoolC2Ev
Rca:__ZN11GameManager13RegisterClassEv
Dna:__ZN14RenderSettings5ResetEv
r$c:__ZN8b2IslandC2EiiiP16b2StackAllocatorP17b2ContactListener
mdd:__ZN5physx9NpPhysics33unregisterDeletionListenerObjectsERNS_18PxDeletionListenerEPKPKNS_6PxBaseEj
Gzd:__ZNK5physx2Sc9ClothCore22getAngularInertiaScaleEv
aHg:_RaycastResult_set_gameObject_m1138581891_AdjustorThunk
Idk:_Bounds_get_extents_m4077324178_AdjustorThunk
Aej:__Z117RuntimeInvoker_Int32_t2071877448_Il2CppObject_Il2CppObject_Int32_t2071877448_Int32_t2071877448_BooleanU26_t3168250738PK10MethodInfoPvPS2_
BAe:__ZN5physx20NpRigidActorTemplateINS_18PxArticulationLinkEE12setActorFlagENS_11PxActorFlag4EnumEb
$4f:_Array_qsort_TisByte_t3683104436_m3355607841_gshared
s0b:__ZNSt3__16__treeINS_12__value_typeINS_12basic_stringIcNS_11char_traitsIcEE13stl_allocatorIcL18MemLabelIdentifier54ELi16EEEEN17ArchiveFileSystem11ArchiveItemEEENS_19__map_value_compareIS8_SB_NS_4lessIS8_EELb1EEES5_ISB_LS6_54ELi16EEE4findIS8_EENS_15__tree_iteratorISB_PNS_11__tree_nodeISB_PvEEiEERKT_
Hmc:__Z16Transfer_BuiltinIf18StreamedBinaryReadILb0EELb0EEvRK29SerializationCommandArgumentsR31RuntimeSerializationCommandInfo
T7f:_Dictionary_2_Do_ICollectionCopyTo_TisKeyValuePair_2_t3716250094_m1740410536_gshared
j6k:__ZN6il2cpp2os10ThreadImplD2Ev
U1g:_RSAManaged_Dispose_m3018788098
a1c:__ZN12b2MouseJoint23InitVelocityConstraintsERK12b2SolverData
xvh:_Context_get_ReceivedConnectionEnd_m3369356276
TFk:_X509CertificateEnumerator_MoveNext_m1422952050
CVh:_NameObjectCollectionBase_get_Count_m2353593692
Vcm:__ZL111U3CActivateU3Ec__Iterator6_t56702763_CustomAttributesCacheGenerator_U3CActivateU3Ec__Iterator6_Reset_m323877751P21CustomAttributesCache
gAa:__ZNK12TLSAllocatorI14StackAllocatorE22GetAllocatedMemorySizeEv
JBl:__ZL54AssemblyName_t894705941_CustomAttributesCacheGeneratorP21CustomAttributesCache
_qg:_Convert_ToUInt32_m3394039268
O0a:__Z32GetSceneHierarchyPathDescriptivePK6Object
z0:__ZNK7WeakPtrI20SoundChannelInstanceE10SharedData9GetRawPtrEv
k9b:__ZN12HandlerChain4NameEv
Sai:_AsymmetricSignatureDeformatter__ctor_m3155418292
No:FUNCTION_TABLE_fiiiiiifiiiiiif
ROg:_Graphic_get_mainTexture_m3801744081
iMd:__ZN5physx37setupFinalizeSolverConstraintsCoulombERNS_13PxcNpWorkUnitERKNS_2Gu13ContactBufferERKNS_27PxcCorrelationBufferCoulombERKNS_11PxTransformESB_bPhRKNS_13PxcSolverBodyESF_RKNS_17PxcSolverBodyDataESI_ffjffff
L8g:_Int16_Equals_m3925135434_AdjustorThunk
V_:__ZN12AudioManager8TransferI18StreamedBinaryReadILb1EEEEvRT_
Dwf:__Z44Register_UnityEngine_CanvasRenderer_get_cullv
nMi:_Enumerator_Dispose_m2532362830_AdjustorThunk
Dzl:__ZL60IHashCodeProvider_t1980576455_CustomAttributesCacheGeneratorP21CustomAttributesCache
ldm:__ZL91WaypointProgressTracker_t2206407592_CustomAttributesCacheGenerator_lookAheadForTargetOffsetP21CustomAttributesCache
Osl:__ZNSt3__16vectorIPK11Il2CppClassNS_9allocatorIS3_EEE21__push_back_slow_pathIRKS3_EEvOT_
uDh:_Enumerator_VerifyState_m1677639504_AdjustorThunk
Q_b:__Z29StdTemplateConversionFunctionIbbEbPvR14SafeBinaryRead
Bth:_CipherSuiteCollection_get_Item_m280627160
Ctg:_DateTime__ParseString_m2623687350
d4h:_SerializationInfoEnumerator_MoveNext_m1876990879
oyk:_TimeSpan_Duration_m4205681645
QHb:__ZN14UnityWebStream24UpdateAllUnityWebStreamsEv
_Vi:_Collection_1_System_Collections_IList_get_IsReadOnly_m2329986891_gshared
ctm:__ZNKSt3__17codecvtIDic11__mbstate_tE11do_encodingEv
bqm:__ZNSt3__18time_putIcNS_19ostreambuf_iteratorIcNS_11char_traitsIcEEEEED2Ev
fyl:__ZL60ObsoleteAttribute_t3878847927_CustomAttributesCacheGeneratorP21CustomAttributesCache
Euh:_Context_get_HandshakeState_m3443153737
q3h:_CostDelegate_BeginInvoke_m1628968398
K2f:_Array_InternalArray__ICollection_CopyTo_TisRaycastHit2D_t4063908774_m3837098618_gshared
mtk:_DragRigidbody__ctor_m769735241
Kkb:__Z12SetFileFlagsRKNSt3__112basic_stringIcNS_11char_traitsIcEENS_9allocatorIcEEEEjj
Lfc:__ZNSt3__16vectorI10Matrix4x4f13stl_allocatorIS1_L18MemLabelIdentifier1ELi16EEE8__appendEj
zHd:__ZN5physx31ComputeCreatedDeletedPairsListsEPKjS1_jRPNS_17PxcBroadPhasePairERjS5_S4_S5_S5_RNS_14SapPairManagerE
D8b:__ZN18LoadSceneOperation21MustCompleteNextFrameEv
sS:__ZNK12AudioManager16GetAudioListenerEv
XEi:_MonoField_get_FieldType_m598011426
ZVi:_Collection_1_System_Collections_IList_get_IsFixedSize_m1624702704_gshared
Pbm:__ZL51TouchPad_t1952940174_CustomAttributesCacheGeneratorP21CustomAttributesCache
QSl:__ZL48Camera_t189460977_CustomAttributesCacheGeneratorP21CustomAttributesCache
Dzj:__Z73RuntimeInvoker_Void_t1841601450_Int32_t2071877448_RaycastResult_t21186376PK10MethodInfoPvPS2_
r5d:__ZN5physx2Gu16pcmContactBoxBoxERKNS0_13GeometryUnionES3_RKNS_11PxTransformES6_RKfRNS0_5CacheERNS0_13ContactBufferE
TSg:_InputField_OnDisable_m1865339380
UBk:_UInt32_System_IConvertible_ToType_m747769316
x8f:_LayoutGroup_SetProperty_TisIl2CppObject_m1580676359_gshared
bI:__ZN7mecanim9animation12GetHumanPoseERKNS0_18ClipMuscleConstantEPKNS0_10ValueDeltaERNS_5human9HumanPoseE
O$k:__ZN6il2cpp2vm10Reflection17GetPropertyObjectEP11Il2CppClassPK12PropertyInfo
Sbm:__ZL105VirtualInput_t3347016329_CustomAttributesCacheGenerator_VirtualInput_set_virtualMousePosition_m1528281797P21CustomAttributesCache
TCm:_glDeleteVertexArrays__wrapper
LVf:_UTF7Encoding_GetHashCode_m359766848
Reb:__Z13GetFileSystemv
OEa:__ZN10MeshFilter23VirtualRedirectTransferER13ProxyTransfer
Jvc:__ZN14SafeBinaryRead8TransferIfEEvRT_PKc17TransferMetaFlags
lKa:__ZN16GeometryJobTasksC2Ev
tmc:__ZL12InvokeMethodI18StreamedBinaryReadILb0EEEvRK29SerializationCommandArgumentsR31RuntimeSerializationCommandInfo
Lrg:_DaylightTime_get_Delta_m2316831491
zKe:__ZN15RaycastCallback14processTouchesEPKN5physx12PxRaycastHitEj
nBf:__ZN18CrashReportHandlerC2ERK8UnityStrS2_
WXf:_Array_InternalArray__ICollection_Contains_TisUILineInfo_t3621277874_m1175659630_gshared
$qi:_Physics_INTERNAL_get_gravity_m3802008392
Exk:_WaitHandle_WaitOne_m370363697
F4l:__ZL114PointerEventData_t1599784723_CustomAttributesCacheGenerator_PointerEventData_set_pointerCurrentRaycast_m2431897513P21CustomAttributesCache
u4e:__ZN13Simd4fFactoryIPKfEC2ES1_
HZc:__ZN24RigidbodyMovementState2D21ResetAngularMoveStateEv
rPj:_DefaultComparer__ctor_m2470932885_gshared
d4d:__ZN5physx2Gu5RTree15exportExtraDataERNS_22PxSerializationContextE
ALa:__Z23scripting_gchandle_freej
j0i:_Collection_1_InsertItem_m724820684_gshared
xea:__ZN5Unity9Component23VirtualRedirectTransferER18StreamedBinaryReadILb0EE
VHf:_RIPEMD160Managed_Initialize_m3365407578
UVa:__Z29GetTextureSizeAllowedMultiple13TextureFormat
VWh:_IPAddress_HostToNetworkOrder_m1092199707
LQd:__ZNK5physx2Sq10AABBPruner7overlapERKNS0_9ShapeDataERNS0_14PrunerCallbackE
fli:_Logger__ctor_m3834134587
vGa:__Z46CleanupSpriteRendererAnimationBindingInterfacev
ika:__ZN21IntermediateRenderers3AddEP20IntermediateRenderer
_na:__ZN14RenderSettings23VirtualRedirectTransferER18StreamedBinaryReadILb1EE
O$e:__ZN5physx6shdfnd5ArrayIPvNS0_19ReflectionAllocatorINS_2Gu30LargePersistentContactManifoldEEEE4copyINS0_15InlineAllocatorILj256ES6_EEEEvRKNS1_IS2_T_EE
cXl:__ZL89Playables_t2968292729_CustomAttributesCacheGenerator_Playables_CastToInternal_m2786985142P21CustomAttributesCache
e$k:_il2cpp_delegate_begin_invoke
oh:_glCheckFramebufferStatus
JZl:__ZL55TextGenerator_t647235000_CustomAttributesCacheGeneratorP21CustomAttributesCache
Q_f:_Array_compare_TisInt32_t2071877448_m840310202_gshared
I5a:__Z30RegisterValidateMethodCallbackiPF21ScriptingMethodIl2CppS_P14ScriptingClassP6ObjectEPKc
I4:__ZN9rapidjson13GenericReaderINS_4UTF8IcEES2_NS_19MemoryPoolAllocatorINS_12CrtAllocatorEEEE10ParseArrayILj0ENS_19GenericStringStreamIS2_EENS_15GenericDocumentIS2_S5_S4_EEEEvRT0_RT1_
RKb:__ZNSt3__16__sortIR17CompareInstanceIDPP6ObjectEEvT0_S6_T_
Jbi:_DESTransform_ECB_m2629024873
OMj:_InternalEnumerator_1_System_Collections_IEnumerator_get_Current_m790514740_AdjustorThunk
P5e:__ZN5physx2Cm12DelegateTaskINS_2Sc5SceneEXadL_ZNS3_19updateCCDSinglePassEPNS_10PxBaseTaskEEEE11runInternalEv
$fe:__ZN5physx6string9sprintf_sEPcjPKcz
v0c:__ZNK15b2DistanceJoint17GetReactionTorqueEf
bRe:__ZThn8_N5physx19TriangleMeshBuilderD1Ev
ZCl:__ZL50CharSet_t2778376310_CustomAttributesCacheGeneratorP21CustomAttributesCache
rmm:__ZNSt3__112basic_stringIcNS_11char_traitsIcEENS_9allocatorIcEEE6appendEjc
Gkl:__ZN16VirtFuncInvoker2IbP21BigInteger_t925946153P12Il2CppObjectE6InvokeEjPvS1_S3_
i3d:__ZN5physx2Gu16intersectRayAABBERKNS_6PxVec3ES3_S3_S3_RfS4_
iXa:__ZN9Transform23VirtualRedirectTransferER17RemapPPtrTransfer
wxj:__Z87RuntimeInvoker_Int32_t2071877448_Playable_t3667545548_Playable_t3667545548_Il2CppObjectPK10MethodInfoPvPS2_
yfc:__ZNSt3__16vectorI11ColorRGBA3213stl_allocatorIS1_L18MemLabelIdentifier1ELi16EEE6assignINS_11__wrap_iterIPS1_EEEENS_9enable_ifIXaasr21__is_forward_iteratorIT_EE5valuesr16is_constructibleIS1_NS_15iterator_traitsISB_E9referenceEEE5valueEvE4typeESB_SB_
FF:__ZN21AnimationClipPlayable7SetTimeEd
Aii:_GUIStyle_Internal_DrawPrefixLabel_m1693575069
Fqm:__ZNKSt3__110moneypunctIcLb1EE13do_neg_formatEv
Eec:__Z22Transfer_Builtin_AlignIt18StreamedBinaryReadILb1EELb1EEvRK29SerializationCommandArgumentsR31RuntimeSerializationCommandInfo
C$f:_Array_InternalArray__IndexOf_TisByte_t3683104436_m3605266236_gshared
PVe:__ZN5physx2Sn21RepXVisitorReaderBaseINS_19PxVehicleEngineDataEE12readPropertyIfEEbRT_
V$i:_Collection_1_System_Collections_IList_Insert_m435904526_gshared
yNi:_ValueCollection_System_Collections_IEnumerable_GetEnumerator_m1773104428_gshared
Ufi:_GUISkin_get_horizontalScrollbarThumb_m4062590908
pgm:__ZNSt3__114__split_bufferIN6il2cpp8metadata18GenericArrayMethodERNS_9allocatorIS3_EEED2Ev
XUf:_UnicodeEncoding__ctor_m72484327
fMd:__ZN5physx30setupFinalizeSolverConstraintsERNS_13PxcNpWorkUnitERKNS_2Gu13ContactBufferERKNS_20PxcCorrelationBufferERKNS_11PxTransformESB_bPhRKNS_13PxcSolverBodyESF_RKNS_17PxcSolverBodyDataESI_ffffff
Cwl:__ZL74Il2CppArray_CustomAttributesCacheGenerator_Array_GetUpperBound_m1352329707P21CustomAttributesCache
Efc:__Z19TransferField_ArrayI18StreamedBinaryReadILb1EE19Converter_PrimitiveI4AABBEEvRK23StaticTransferFieldInfoR31RuntimeSerializationCommandInfoRT0_
JKg:_ColorBlock_op_Inequality_m1517672458
Sgd:__ZN5physx7NpScene17releaseBatchQueryEPNS_12PxBatchQueryE
yfm:__ZN6il2cpp2gc9AllocatorIP12Il2CppThreadE10deallocateEPvj
D4i:_ReadOnlyCollection_1_System_Collections_IList_Contains_m1838328308_gshared
Jz:__ZN12VertexWelderILi64EE4PushERK8Vector3f
GCe:__ZN5physx20NpRigidActorTemplateINS_13PxRigidStaticEE11attachShapeERNS_7PxShapeE
MTk:_UnityEvent_1_GetDelegate_m2720691419_gshared
jMd:__ZN5physx26solveVBlockDefaultFrictionEPNS_13PxsSolverCoreEfjjPNS_13PxcSolverBodyEPNS_17PxcSolverBodyDataEjjPNS_25PxcArticulationSolverDescEjPNS_23PxcSolverConstraintDescEjS9_jRNS_6shdfnd5ArrayINS_24PxsConstraintBatchHeaderENSA_19ReflectionAllocatorISC_EEEESG_PNS_2Cm13SpatialVectorEPNS_25PxcThresholdStreamElementEjRj
bvh:_ClientSessionInfo_SetContext_m2649357891
v9g:_Int32_System_IConvertible_ToInt64_m3790029067_AdjustorThunk
Caf:__ZN5physx15NpActorTemplateINS_18PxArticulationLinkEE17resolveReferencesERNS_24PxDeserializationContextE
dcj:__Z69RuntimeInvoker_Boolean_t3825574718_Il2CppObject_DoubleU26_t1208767207PK10MethodInfoPvPS2_
lEg:_RaycasterManager_GetRaycasters_m1154876874
DAh:_SslStreamBase_InternalReadCallback_m2524917586
$Yb:__ZN8Remapper6RemoveEi
yJh:_List_1_CheckCollection_m2608305187_gshared
sge:__ZN5physx19NpRigidBodyTemplateINS_18PxArticulationLinkEE9visualizeERNS_2Cm12RenderOutputEPNS_7NpSceneE
CMd:__ZN5physx11writeBack1DERKNS_23PxcSolverConstraintDescERNS_16PxcSolverContextERNS_17PxcSolverBodyDataES6_
fAk:_Type_get_ContainsGenericParameters_m505913180
wqc:__ZN15SerializeTraitsINSt3__14pairI8UnityStr4PPtrI6ObjectEEEE8TransferI14SafeBinaryReadEEvRS6_RT_
hqf:__ZL36CleanupTextRenderingScriptingClassesv
PMe:__ZThn4_N16RayRTreeCallbackILi0ELb0EED0Ev
ama:__ZN15ReflectionProbe17UseRendererResultEP13ProbeRenderer
YRf:_ASCIIEncoding_GetBytes_m819071568
hdh:_MonoIO_DeleteFile_m3273821223
tjl:__ZN16VirtFuncInvoker0I17Color_t2020392075E6InvokeEjPv
HZg:_BigInteger_GenerateRandom_m2507308768
jsg:_DateTime_System_IConvertible_ToDouble_m1431748426_AdjustorThunk
wll:__ZN21InterfaceFuncInvoker0I19Vector4_t2243707581E6InvokeEjP11Il2CppClassPv
Czj:__Z76RuntimeInvoker_Void_t1841601450_Int32_t2071877448_ContactPoint2D_t3659330976PK10MethodInfoPvPS2_
jwb:__Z40GameObject_CUSTOM_GetComponentInChildrenP15ScriptingObjectS0_h
GXf:_Array_InternalArray__ICollection_Contains_TisUInt16_t986882611_m510319131_gshared
cud:__ZNK5physx2Sc5Scene20getNbParticleSystemsEv
_wg:_Decimal_ToString_m541380585
fC:__ZN11UnityEngine9Animation21AvatarBindingCallbackEPvS1_i
qjj:__Z60RuntimeInvoker_DateTime_t693205669_Il2CppObject_Il2CppObjectPK10MethodInfoPvPS2_
rDi:_MemberFilter__ctor_m1775909550
UXa:__ZN17TransformInternal19FreeTransformThreadER18TransformHierarchyjj
h_k:_il2cpp_class_is_valuetype
kHi:_TypeFilter_EndInvoke_m997625354
pqb:__Z37Quaternion_CUSTOM_INTERNAL_CALL_SlerpRK11QuaternionfS1_fRS_
f1d:__ZN5physx2Gu17GetGeomSweepFuncsEv
Epe:__ZN5physx6shdfnd8PoolBaseINS_15PxsArticulationENS0_16AlignedAllocatorILj64ENS0_9AllocatorEEEE17releaseEmptySlabsEv
aAg:_Enum_ToObject_m2601523252
Iwm:dynCall_viiffiii
_zh:_InternalAsyncResult_get_FromWrite_m2893408424
OWk:__ZN6il2cpp2vm5Class15GetElementClassEP11Il2CppClass
AQi:_Dictionary_2_CopyToCheck_m2147716750_gshared
Bxg:_Delegate_CreateDelegate_m1706525923
Kfc:__ZNSt3__16vectorI10Matrix4x4f13stl_allocatorIS1_L18MemLabelIdentifier1ELi16EEE6assignINS_11__wrap_iterIPS1_EEEENS_9enable_ifIXaasr21__is_forward_iteratorIT_EE5valuesr16is_constructibleIS1_NS_15iterator_traitsISB_E9referenceEEE5valueEvE4typeESB_SB_
VDe:__ZN5physx22NpParticleBaseTemplateINS_15PxParticleFluidENS_15NpParticleFluidEE23setParticleReadDataFlagENS_22PxParticleReadDataFlag4EnumEb
Ztj:__Z42RuntimeInvoker_BlockingObjects_t2548930813PK10MethodInfoPvPS2_
_fm:__ZNSt3__114__split_bufferINS_12basic_stringIcNS_11char_traitsIcEENS_9allocatorIcEEEERNS4_IS6_EEEC2EjjS8_
zsb:__Z36AsyncOperation_Get_Custom_PropIsDoneP15ScriptingObject
oMb:__ZN16GraphicsSettings8TransferI17RemapPPtrTransferEEvRT_
hph:_BigInteger_op_LessThanOrEqual_m3528380540
rgh:_StreamReader__ctor_m2654332332
iuf:__ZN2UI6Canvas13UpdateBatchesEb
SKa:__Z28scripting_method_is_instance21ScriptingMethodIl2Cpp
x4l:__ZL105PointerEventData_t1599784723_CustomAttributesCacheGenerator_PointerEventData_set_pointerEnter_m1440587006P21CustomAttributesCache
GHh:_List_1_CheckCollection_m3968030679_gshared
zQk:_Predicate_1_BeginInvoke_m3556950370_gshared
K_d:__ZN5physx2Gu5Debug9visualizeERKNS_13PxBoxGeometryERNS_2Cm12RenderOutputERKNS5_8Matrix34ERKNS_9PxBounds3Eyfj
IUf:_StringBuilder_ToString_m617673931
TEb:__ZNK13GfxDeviceGLES12GetWireframeEv
ufe:__ZN5physx6shdfnd5ArrayIPKvNS0_19ReflectionAllocatorIS3_EEE6resizeEjRKS3_
V_e:__ZN5physx21PxsFluidCollisionTaskD0Ev
RV:__ZN4FMOD7SystemI28GetSystemFromNonSystemHandleEPv
LIa:__ZN9GfxDevice18AllocRenderSurfaceEb
sTd:__ZN5physx23PxVehicleWheels4SimData11setTireDataEjRKNS_17PxVehicleTireDataE
gMd:__ZN5physx31setupFinalizeSolverConstraints4EPNS_21PxcSolverContact4DescERNS_18PxcNpThreadContextEPhffRKNS_6shdfnd3aos5Vec4VES9_S9_S9_
OCe:__ZN5physx7NpScene5flushEb
Z0b:__ZNSt3__16__sortIRNS_6__lessI15OrderedCallbackS2_EEPS2_EEvT0_S6_T_
R6j:_AnchorInfo_get_IsComplete_m1247624133
fNg:_Dropdown_Show_m324374589
inl:__ZN16VirtFuncInvoker1Ii38CustomAttributeNamedArgument_t94157543E6InvokeEjPvS0_
Y_d:__ZN5physx2Gu13GeometryUnion3setERKNS_10PxGeometryE
Nse:__Z43setPxVehicleSuspensionDataMSpringDamperRatePN5physx23PxVehicleSuspensionDataEf
PTi:_GenericComparer_1__ctor_m3575096182_gshared
bHg:_RaycastResult_get_isValid_m2482925612
QKb:__ZN6Object31FindObjectsOfTypeImplementationI15ObjectCollectorEEv11ClassIDTypeT_
V$k:__ZN6il2cpp2vm10Reflection7IsEventEP12Il2CppObject
Bab:__ZN17PersistentManager26GetStreamNameSpaceInternalEi
Ixl:__ZL123U3CGetEnumeratorU3Ec__Iterator0_t1667190089_CustomAttributesCacheGenerator_U3CGetEnumeratorU3Ec__Iterator0_Reset_m669313508P21CustomAttributesCache
UZ:__ZN4FMOD6System11createSoundEPKcjP22FMOD_CREATESOUNDEXINFOPPNS_5SoundE
tYb:__ZL27GetComponentsImplementationILb0ELi3EEbR10GameObjectbRK17CompareParametersRK39GetComponentsImplementation_ReturnValue
zcg:_Exception_set_HResult_m2376998645
Ekl:__ZN16VirtFuncInvoker1IP21BigInteger_t925946153iE6InvokeEjPvi
mCa:__ZN13SpeedTreeWind20AdvanceWithoutUpdateEd
onm:__ZNSt3__18ios_base33__set_badbit_and_consider_rethrowEv
qsj:__Z66RuntimeInvoker_Void_t1841601450_Int32_t2071877448_Rect_t3681755626PK10MethodInfoPvPS2_
hqi:_Object_Destroy_m4145850038
JEc:__ZNSt3__118__insertion_sort_3IRN18AssetBundleManager27SortPreloadDataByIdentifierEPNS1_11PreloadDataEEEvT0_S6_T_
cZl:__ZL86AudioSource_t1135106623_CustomAttributesCacheGenerator_AudioSource_set_clip_m738814682P21CustomAttributesCache
Egm:__ZNSt3__112__hash_tableINS_17__hash_value_typeINS_4pairIPK12PropertyInfoP11Il2CppClassEEP24Il2CppReflectionPropertyEENS_22__unordered_map_hasherIS8_SB_17ReflectionMapHashIS8_ELb1EEENS_21__unordered_map_equalIS8_SB_19ReflectionMapEqualsIS8_ELb1EEEN6il2cpp2gc9AllocatorISB_EEE20__node_insert_uniqueEPNS_11__hash_nodeISB_PvEE
d1k:__ZN6il2cpp2vm4Type14IsSystemDBNullEPK10Il2CppType
qQe:__ZThn128_N5physx7profile8ZoneImplINS_28PxProfileNameProviderForwardEED1Ev
qwa:__ZN9ShaderLab19CommonPropertyNames13StaticCleanupEPv
PLh:_List_1_System_Collections_IList_Remove_m3137919634_gshared
K2d:__ZN5physx2Gu25closestPtPointTetrahedronEPNS_6shdfnd3aos5Vec3VES4_S4_PiS5_RKS3_S7_S7_RjRS3_S9_
dRd:__ZN5physx2Sq17AABBTreeUpdateMap10invalidateEjjRNS0_8AABBTreeE
$gc:__Z14resize_trimmedINSt3__16vectorIh13stl_allocatorIhL18MemLabelIdentifier1ELi16EEEEEvRT_j
fye:__ZN9Rigidbody7PRODUCEE18MemLabelIdentifier18ObjectCreationMode
GKg:_ColorBlock_GetHashCode_m649325222
vBm:_glStencilOpSeparate__wrapper
jEa:__ZN4Mesh5SetUvEiPKfjj
tz:__ZN12NavMeshAreasD2Ev
cla:__ZN28LightProbeProxyVolumeManager25UpdateSHCoeffsTextureDataER21LightProbeProxyVolume
Jlb:__Z18CreateDecompressor15CompressionType18MemLabelIdentifier
W$:__ZN11AudioModule16SetListenerPauseEb
kPi:_Dictionary_2_U3CCopyToU3Em__0_m2108533866_gshared
Buk:_SmoothFollow_LateUpdate_m1084560066
vj:_emscripten_glCompressedTexSubImage2D
xFb:__ZN13GfxDeviceGLES22MemoryBarrierImmediateEyN2gl17MemoryBarrierTypeE
Jn:_abort
Z2k:__ZN6il2cpp6icalls8mscorlib6System4Type18internal_from_nameEP12Il2CppStringbb
tzc:__ZN6prcoreL26RemapGenericFloatToIntegerI18TexFormatARGBFloat17TexFormatARGB8888EEvPKNS_9InnerInfoE
e8k:__ZN6il2cpp6icalls8mscorlib6System10Reflection9MonoField16GetValueInternalEP21Il2CppReflectionFieldP12Il2CppObject
CYe:__ZNK5physx26PxSerializerDefaultAdapterINS_16PxVehicleDrive4WEE15exportExtraDataERNS_6PxBaseERNS_22PxSerializationContextE
pca:__ZN6Object27GetOffsetOfInstanceIdMemberEv
Omf:_cff_ps_has_glyph_names
$Rk:_InvokableCall_1__ctor_m2837611051_gshared
r0d:__ZN5physx15writeWordBufferEPKtjbRNS_14PxOutputStreamE
eSi:_EqualityComparer_1__ctor_m1389939323_gshared
wLi:_Transform_1_EndInvoke_m1025924012_gshared
Awl:__ZL81Il2CppArray_CustomAttributesCacheGenerator_Array_GetValue_m3550694941____indices0P21CustomAttributesCache
g6i:_ReadOnlyCollection_1_System_Collections_Generic_ICollectionU3CTU3E_get_IsReadOnly_m2873538493_gshared
p5j:_PatternCompiler_EmitPosition_m3013268572
P0h:_X509SubjectKeyIdentifierExtension__ctor_m1109455121
aUc:__ZN10SizeModule8TransferI17RemapPPtrTransferEEvRT_
q_i:_Collection_1_SetItem_m2707773254_gshared
lPg:_Graphic_CreateColorFromAlpha_m2614574534
oVf:_UnicodeEncoding_GetHashCode_m2443440683
Rhl:__ZN6il2cpp2vm7Runtime22GetInterfaceInvokeDataEjP11Il2CppClassPvP17VirtualInvokeData
ALc:__Z44Register_UnityEngine_GUIStyle_SetDefaultFontv
eAi:_GenericTypeParameterBuilder_GetPropertyImpl_m3566422383
cgl:__GLOBAL__sub_I_ThreadImpl_cpp
_N:__ZN9BlobWrite8TransferI22OffsetPtrArrayTransferIKN4math7_float3EEEEvRT_PKc17TransferMetaFlags
hLf:_TripleDES_IsWeakKey_m483013953
T$b:__ZN13dynamic_arrayIN9ShaderLab16FastPropertyNameELj4EE6insertEPS1_PKS1_S5_
tMi:_Enumerator__ctor_m3819430617_AdjustorThunk
Xhm:__ZN6il2cpp2gc9AllocatorINSt3__111__list_nodeIP17Il2CppAsyncResultPvEEE10deallocateES6_j
Iie:__ZN5physx2Sc7BodySim37checkSleepReadinessBesidesWakeCounterEv
RFc:__ZNSt3__16__treeINS_12__value_typeI9TextureID21SparseTextureInfoGLESEENS_19__map_value_compareIS2_S4_NS_4lessIS2_EELb1EEENS_9allocatorIS4_EEE7destroyEPNS_11__tree_nodeIS4_PvEE
LN:__ZN26AnimatorControllerPlayable17IsMultithreadableEv
vUd:__ZN5physx22PxVehicleWheelsSimData21setTireLoadFilterDataERKNS_27PxVehicleTireLoadFilterDataE
Til:__ZN16VirtFuncInvoker0IP27NumberFormatInfo_t104580544E6InvokeEjPv
zP:__ZNSt3__16__sortIRNS_6__lessIN11UnityEngine9Animation13CachedBindingES4_EEPS4_EEvT0_S8_T_
COf:_Single_System_IConvertible_ToSByte_m3757385387
kkj:__Z52RuntimeInvoker_UInt64_t2909196914_Single_t2076509932PK10MethodInfoPvPS2_
Swj:__Z51RuntimeInvoker_Boolean_t3825574718_Slot_t2022531261PK10MethodInfoPvPS2_
ggh:_StreamAsyncResult_SetComplete_m2141125667
fVb:__ZL21SetAnisoLimitEnumImplN7Texture20AnisotropicFilteringEb
azf:__ZN22BaseUnityConnectClient17OnEnterStateReadyEv
gnd:__ZN5physx2Sc16ArticulationCore14setWakeCounterEf
FHd:__ZN5physx13PxsCCDContextD2Ev
EJb:_start_pass_dpost
N8d:__ZN5Unity5Cloth22ReadBackSkinnedBuffersEv
ny:__ZN12NavMeshAreas7PRODUCEE18MemLabelIdentifier18ObjectCreationMode
Qki:_Keyframe_get_tangentMode_m1869200796_AdjustorThunk
tub:__Z29Input_CUSTOM_GetMouseButtonUpi
u1d:__ZN5physx2Gu12selectNormalEhff
B6l:__ZL61FontData_t2614388407_CustomAttributesCacheGenerator_m_MaxSizeP21CustomAttributesCache
HDg:_BaseInputModule_ShouldActivateModule_m2899747874
vZk:__ZN6il2cpp6icalls8mscorlib6System8MonoType16InternalGetEventEP20Il2CppReflectionTypeP12Il2CppStringi
csi:_Quaternion_INTERNAL_CALL_Internal_ToEulerRad_m1077217777
YBk:_UInt32_System_IConvertible_ToUInt32_m1257480358_AdjustorThunk
$qg:_Convert_ToUInt32_m3085255294
k2e:__ZNK5physx5cloth9ClothImplINS0_7SwClothEE20getSleepTestIntervalEv
Xif:_UNITY_tt_face_load_maxp
Dub:__Z46Input_CUSTOM_INTERNAL_set_compositionCursorPosRK13Vector2fIcall
tJ:__ZN7mecanim5human12FullBodyMaskEv
ejd:__ZN5physx3Scb14ParticleSystem16releaseParticlesEjRKNS_16PxStrideIteratorIKjEE
mJl:__ZL98Activator_t1850728717_CustomAttributesCacheGenerator_Activator_CreateInstance_m1465989661____args1P21CustomAttributesCache
Udb:__ZN19ShaderPropertySheet11ComputeHashEv
Gml:__ZN23InterfaceActionInvoker4IiP18Object_t1021602117P8String_tP24ObjectU5BU5D_t3614634134E6InvokeEjP11Il2CppClassPviS1_S3_S5_
d_c:__ZN12b2EPCollider24ComputePolygonSeparationEv
vA:__ZN4PPtrI6ObjectE8TransferI18StreamedBinaryReadILb1EEEEvRT_
wTb:__Z19GenerateCubeTextureIhPFvPh8Vector3fEEvP7CubemapRKT0_
Jem:__ZN4utf88internal15sequence_lengthIPKcEENSt3__115iterator_traitsIT_E15difference_typeES6_
eLg:_ColorTween_get_tweenMode_m2919867230_AdjustorThunk
qDd:__ZThn4_N5physx5cloth9SwFactory11createClothENS0_5RangeIKNS_6PxVec4EEERNS0_6FabricE
KJg:_CanvasScaler_HandleScaleWithScreenSize_m80056230
jai:_SByte_System_IConvertible_ToUInt64_m2174352876_AdjustorThunk
som:__ZNKSt3__17num_getIwNS_19istreambuf_iteratorIwNS_11char_traitsIwEEEEE6do_getES4_S4_RNS_8ios_baseERjS8_
mLd:__ZN5physx16PxsParticleShape4initEPNS_20PxsParticleSystemSimEPKNS_15PxsParticleCellE
rAi:_GenericTypeParameterBuilder_get_AssemblyQualifiedName_m902593295
gOd:__ZN5physx22PxcContactConvexConvexERKNS_2Gu13GeometryUnionES3_RKNS_11PxTransformES6_RKfRNS_10PxcNpCacheERNS0_13ContactBufferE
PVk:_Locale_GetText_m512920887
lLe:__ZNK5physx2Gu11ConvexHullV12HillClimbingERKNS_6shdfnd3aos5Vec3VE
Ndc:__ZL29CanTransferTypeAsNestedObjectI18TransferField_InfoEbRKT_
pxd:__ZNK5physx2Sc17ParticleSystemSim7getCoreEv
gYg:_SimpleCollator__cctor_m2693747668
Pwg:_Decimal_CompareTo_m2454501434_AdjustorThunk
V8a:__ZN14SafeBinaryReadD2Ev
GAk:_UInt16_System_IConvertible_ToChar_m4055364664
Bwd:__ZN5physx2Sc18ParticleSystemCore10setDampingEf
b8j:_ExpressionCollection_OnValidate_m1703610065
Umk:_Playable_INTERNAL_CALL_GetPlayStateInternal_m3560305748
GF:__ZNK21AnimationClipPlayable7GetTimeEv
TLi:_Enumerator_Dispose_m2369319718_AdjustorThunk
ifc:__Z14resize_trimmedINSt3__16vectorI11GradientNEW13stl_allocatorIS2_L18MemLabelIdentifier1ELi16EEEEEvRT_j
Gv:__ZNK14dtNavMeshQuery13getPolyHeightEyPKfPf
QKl:__ZL79Convert_t2607082565_CustomAttributesCacheGenerator_Convert_ToUInt16_m3991499696P21CustomAttributesCache
eXe:__ZN5physx18RepXPropertyFilterINS_2Sn17RepXVisitorWriterINS_27PxVehicleDifferential4WDataEEEEclILj544ES3_NS3_4EnumES7_EEvRKNS_14PxPropertyInfoIXT_ET0_T1_T2_EEj
Zzh:_InternalAsyncResult_get_ProceedAfterHandshake_m552962842
cya:__Z7yyparsev
Gpk:_SelfDestruct_Update_m2191516610
Vqd:__ZN5physx2Sc10NPhaseCore16deleteFilterPairEPNS0_10FilterPairE
lLc:__Z45Register_UnityEngine_GUIStyle_SetFontInternalv
l3c:__ZN19CollisionListener2DD0Ev
pkl:__ZN16VirtFuncInvoker5IP12Il2CppObjectP22ByteU5BU5D_t3397334013iiP24AsyncCallback_t163412349S1_E6InvokeEjPvS3_iiS5_S1_
iSh:_Enumerator_Dispose_m1520016780_AdjustorThunk
a3k:__ZN6il2cpp6icalls8mscorlib6System4Type15MakeGenericTypeEP20Il2CppReflectionTypeP11Il2CppArray
N8b:__ZN6ShaderD2Ev
Xk:_SDL_PauseAudio
_$a:__ZN5Cache10AddToCacheERKNSt3__112basic_stringIcNS0_11char_traitsIcEENS0_9allocatorIcEEEEi
ccg:_Array_Sort_m2323017822
Ual:_GC_clear_mark_bit
_Sj:_Scrollbar_UpdateDrag_m3839695926
Kte:__ZN5physx23SetMFrictionVsSlipGraphEPNS_17PxVehicleTireDataEjjf
edk:_AudioConfigurationChangeHandler_EndInvoke_m2237100787
Csd:__ZN5physx2Sc5Scene28addActiveBreakableConstraintEPNS0_13ConstraintSimE
pwa:__ZN9ShaderLab19CommonPropertyNames16StaticInitializeEPv
G6e:__ZN5physx2Cm12DelegateTaskINS_2Sc5SceneEXadL_ZNS3_13postIslandGenEPNS_10PxBaseTaskEEEE11runInternalEv
$ih:_MissingMemberException__ctor_m3710131950
fza:__ZN13MemoryManager31DisallowAllocationsOnThisThreadEv
TNb:__ZNSt3__16__sortIR15ReflProbeSorterPP15ReflectionProbeEEvT0_S6_T_
dH:__ZN7mecanim9animation18CreateAvatarOutputEPKNS0_14AvatarConstantEbbRNS_6memory9AllocatorE
GPj:_Comparer_1_get_Default_m2982649620_gshared
JQe:__ZN5physx7profile11EventBufferINS_24PxDefaultContextProviderENS_6shdfnd6MutexTINS0_26WrapperReflectionAllocatorIhEEEENS0_14ScopedLockImplIS7_EENS_24PxProfileNullEventFilterEE10eventValueEtyx
Tdc:__Z22Transfer_Builtin_AlignIs18StreamedBinaryReadILb1EELb0EEvRK29SerializationCommandArgumentsR31RuntimeSerializationCommandInfo
jbi:_CspParameters__ctor_m2546931874
m_k:_il2cpp_class_from_type
m_d:__ZN5physx2Gu11getBoxEdgesEv
urm:__ZNKSt3__19money_putIcNS_19ostreambuf_iteratorIcNS_11char_traitsIcEEEEE6do_putES4_bRNS_8ios_baseEcRKNS_12basic_stringIcS3_NS_9allocatorIcEEEE
dAe:__ZThn12_NK5physx3Ext5JointINS_15PxDistanceJointENS_30PxDistanceJointGeneratedValuesEE19updatePvdPropertiesERNS_8debugger4comm13PvdDataStreamEPKNS_12PxConstraintENS_15PxPvdUpdateType4EnumE
Rqi:_EmissionModule_SetEnabled_m1102718738
Vyf:__ZN22BaseUnityConnectClient13ResumeSessionEv
rVa:__ZN14Texture2DArray23VirtualRedirectTransferER14SafeBinaryRead
fha:__ZNK6Camera21CalculateCanDoShadowsEv
RVc:__ZL21TransformParticleMeshILb0ELb0ELb0EEvRK16ParticleMeshDataiRK22ParticleSystemTempDataRK31ParticleSystemParticlesTempData11ColorRGBA32iRK10Matrix4x4fSC_RK8Vector3fPPh
BQi:_Dictionary_2_make_pair_m2631942124_gshared
Jbd:__ZN5physx9NpFactory14onActorReleaseEPNS_7PxActorE
sOg:_Graphic__cctor_m1643894470
drc:__ZN14SafeBinaryRead21TransferSTLStyleArrayINSt3__16vectorIN30RuntimeInitializeOnLoadManager15ClassMethodInfoE13stl_allocatorIS4_L18MemLabelIdentifier12ELi16EEEEEEvRT_17TransferMetaFlags
gUg:_InputField_UnityEngine_UI_ICanvasElement_IsDestroyed_m2082978070
g$h:_X509ChainElementEnumerator_get_Current_m2232618221
Zxd:__ZN5physx2Sc5Actor15onElementAttachERNS0_7ElementE
dsa:__Z23RegisterClass_Behaviourv
uVi:_Collection_1_Clear_m3860339101_gshared
Cib:__ZNK20ArchiveStorageReader15HasStreamBlocksEv
YQa:__ZNK8Renderer16IsVisibleInSceneEv
Crj:__Z44RuntimeInvoker_AnimatorStateInfo_t2577870592PK10MethodInfoPvPS2_
Dfc:__ZNSt3__16vectorI10ColorRGBAf13stl_allocatorIS1_L18MemLabelIdentifier1ELi16EEE8__appendEj
Lwd:__ZN5physx2Sc18ParticleSystemCore23setSimulationFilterDataERKNS_12PxFilterDataE
uDl:__ZL90SafeHandle_t2733794115_CustomAttributesCacheGenerator_SafeHandle_get_IsInvalid_m3910183075P21CustomAttributesCache
Oik:_DebugLogHandler_Internal_LogException_m317712981
hRg:_Image_GenerateSimpleSprite_m4275440988
uBk:_UInt16_ToString_m3280699191
kpg:_Convert_ToDouble_m2956884076
Mtk:_U3CFOVKickUpU3Ec__Iterator1_MoveNext_m1908666720
xzc:__ZN6prcoreL27StretchGenericFloatBilinearI15TexFormatRFloatEEvPKNS_9InnerInfoE
Qqe:__ZN5physx6shdfnd8internal8HashBaseINS0_4PairIKNS_2Sq13PrunerPayloadEjEES5_NS0_4HashIS5_EENS1_11HashMapBaseIS5_jS9_NS0_9AllocatorEE6GetKeyESB_Lb1EE15reserveInternalEj
pEl:__ZL62IDynamicMessageSink_t3056162262_CustomAttributesCacheGeneratorP21CustomAttributesCache
Ycj:__Z33RuntimeInvoker_UInt32_t2149682021PK10MethodInfoPvPS2_
Cbj:__Z130RuntimeInvoker_Int32_t2071877448_Il2CppObject_Int32_t2071877448_Int32_t2071877448_Il2CppObject_Int32_t2071877448_Int32_t2071877448PK10MethodInfoPvPS2_
FZf:_Array_InternalArray__IEnumerable_GetEnumerator_TisBoolean_t3825574718_m798244337_gshared
TOh:_List_1_CopyTo_m158925060_gshared
kOb:__ZN14qsort_internal6_QSortIP15RODataDepthPassi17ROSorterDepthPassEEvR8JobFenceT_S6_T0_T1_RKS4_P19ProfilerInformation
trb:__Z43RectTransform_CUSTOM_INTERNAL_get_sizeDeltaP15ScriptingObjectR13Vector2fIcall
Dgj:__Z102RuntimeInvoker_Il2CppObject_Int32_t2071877448_Int32_t2071877448_Il2CppObject_Il2CppObject_Il2CppObjectPK10MethodInfoPvPS2_
m$f:_Array_IndexOf_TisCustomAttributeNamedArgument_t94157543_m745056346_gshared
XNa:__Z14PadImageBorderR14ImageReferenceii
FYk:__ZN6il2cpp2vm13MetadataCache28GetFieldDefaultValueForFieldEPK9FieldInfo
qPj:_DefaultComparer_Compare_m3277849110_gshared
MDj:_ArrayReadOnlyList_1_ReadOnlyError_m2289309720_gshared
CN:__ZN27AnimationLayerMixerPlayableD2Ev
q$k:__ZN6il2cpp2vm8basepathEPKc
yve:__ZN5physx2Gu22gjkRelativePenetrationINS0_9TriangleVENS0_8CapsuleVEEEjRKT_RKT0_RKNS_6shdfnd3aos15PsMatTransformVERKNSB_6FloatVERNSB_5Vec3VESJ_SJ_RSF_PhSL_Rh
Cce:__ZN9Rigidbody14SetIsKinematicEb
skc:__ZN6HelperI13ProxyTransfer23TransferArrayField_InfoLb1EE24SerializationFunctionForERKS1_R23StaticTransferFieldInfoPb
XR:__ZN12AudioManager39HandlePendingAudioConfigurationCallbackEv
Kbb:__ZNK8Material16MarkDependenciesER27GarbageCollectorThreadState
F_l:__ZL105CanvasRenderer_t261436805_CustomAttributesCacheGenerator_CanvasRenderer_set_hasPopInstruction_m1388844875P21CustomAttributesCache
vmk:_GenericMixerPlayable_InternalCreate_m559491731
jVi:_Collection_1_System_Collections_IList_Contains_m323652826_gshared
hm:_emscripten_glIsFramebuffer
uCb:__ZNK13TranslateGLES9GetFormatE13TextureFormat17TextureColorSpace
Grc:__ZN12_GLOBAL__N_16qAtan2Eff
iqg:_Convert_ToInt64_m954367741
upk:_PlayerShoot_get_LivesValue_m4131452756
lm:_JS_Sound_SetLoopPoints
Xgg:_ArrayList__ctor_m1467563650
eS:__ZN12AudioManager17ShouldSourcePauseEb
Wcl:__ZN6il2cpp2vm26MetadataAllocGenericMethodEv
cDb:__ZN19ConstantBuffersGLES12RecordRenderEv
MFd:__ZN5physx13ActorAABBTaskD2Ev
iMk:_Transform_INTERNAL_set_rotation_m3703763817
Hnm:__ZNKSt3__119__iostream_category7messageEi
tHa:__ZN18AsyncUploadManager22UploadStreamingTextureEP28FileTextureUploadInstruction
QMa:__ZN4crnd12symbol_codec11decode_bitsEj
tnf:_cf2_doFlex
A6f:_Array_Sort_TisRaycastResult_t21186376_TisRaycastResult_t21186376_m38820193_gshared
ubk:_Animator_ResetTriggerString_m1445965342
iAk:_Type_GetGenericTypeDefinition_m2658530753
fAc:__ZN21FixedBehaviourManagerD0Ev
a8g:_Guid_t2533601593_marshal_pinvoke_cleanup
lkl:__Z37il2cpp_codegen_check_mul_overflow_i64xxxx
gne:__Z6simd4iRK8Scalar4f
mdh:_StreamReader__ctor_m3454466728
AWd:__Z35setPxVehicleDriveSimData_EngineDataPN5physx21PxVehicleDriveSimDataERKNS_19PxVehicleEngineDataE
$Db:__ZNK18GfxFramebufferGLES15GetSamplesCountEv
ldf:__ZN20TextRenderingPrivate4Font21AddCharacterToTextureEjifj
vNk:_Vector2_get_Item_m2792130561
PTc:__ZN15CollisionModule8TransferI18StreamedBinaryReadILb1EEEEvRT_
Z0a:__Z16MarkDependenciesR27GarbageCollectorThreadStatej
Wna:__ZNK14RenderSettings25GetClassIDVirtualInternalEv
zAl:__ZL57FileSystemInfo_t2360991899_CustomAttributesCacheGeneratorP21CustomAttributesCache
k0h:_X509ChainElementEnumerator_Reset_m3832280427
glh:_MulticastDelegate_RemoveImpl_m2024746777
HJb:_noop_upsample
alh:_MulticastDelegate_Equals_m3064081489
Juj:__Z54RuntimeInvoker_Void_t1841601450_ColorBlock_t2652774230PK10MethodInfoPvPS2_
i5g:_Activator_CreateInstance_m1465989661
QWa:__ZNK9Transform11GetPositionEv
rBe:__ZN5physx12NpConstraint8requiresERNS_23PxProcessPxBaseCallbackE
uol:__ZN21InterfaceFuncInvoker1IP8String_tS1_E6InvokeEjP11Il2CppClassPvS1_
U8j:_PositionAssertion_GetWidth_m2294218483
ank:_Playable_INTERNAL_CALL_GetDurationInternal_m2061318387
QFa:__ZN23SharedMeshRenderingData18UnloadVertexStreamEi
UOk:_Vector4_set_Item_m3077071044
zjl:__ZN16VirtFuncInvoker0IP19Material_t193706927E6InvokeEjPv
J6c:__ZN5physx3Cct13HandleManager3AddEPv
bka:__ZN31CanvasBatchIntermediateRenderer11AddSubBatchERK16DrawBuffersRangePK19ShaderPropertySheet
$4l:__ZL104PointerEventData_t1599784723_CustomAttributesCacheGenerator_PointerEventData_set_scrollDelta_m4002219844P21CustomAttributesCache
wta:__ZN19RenderEventsContextC2Ei
fme:__Z6simd4fRKf
iSk:_InvokableCall_3_Find_m3470456112_gshared
D2f:_Array_InternalArray__ICollection_CopyTo_TisColor32_t874517518_m379086718_gshared
PWj:_Slider_ClampValue_m2851810895
Rm:_emscripten_glEnable
tfi:_GUISkin_set_font_m4009958323
ETk:_UnityEvent_1_FindMethod_Impl_m3813546_gshared
Y8h:_RuntimeArgumentHandle_t3259266975_marshal_pinvoke_cleanup
Vfa:__ZN10TagManager23VirtualRedirectTransferER14SafeBinaryRead
GAd:__ZNK5physx2Sc15ClothFabricCore9getNbSetsEv
j_j:_MarshalAsAttribute__ctor_m1892084128
CTh:_Collection_1_InsertItem_m2755057283_gshared
ljf:_UNITY_FT_Init_Class_ft_grays_raster
iAe:__ZThn12_N5physx3Ext5JointINS_15PxDistanceJointENS_30PxDistanceJointGeneratedValuesEE15getSerializableEv
Orl:__ZNSt3__16vectorINS_12basic_stringIcNS_11char_traitsIcEENS_9allocatorIcEEEENS4_IS6_EEE21__push_back_slow_pathIS6_EEvOT_
Ypj:__Z53RuntimeInvoker_Void_t1841601450_Vector3U26_t425862308PK10MethodInfoPvPS2_
dqa:__Z15InitLightMeshesv
p$l:__ZL73GUI_t4082743951_CustomAttributesCacheGenerator_GUI_set_changed_m470833806P21CustomAttributesCache
hJl:__ZL97WaitHandle_t677569169_CustomAttributesCacheGenerator_WaitHandle_t677569169____Handle_PropertyInfoP21CustomAttributesCache
ygd:__ZNK5physx7NpScene26getNbContactDataBlocksUsedEv
IBh:_KeyValuePair_2_ToString_m1391611625_AdjustorThunk
Kp:FUNCTION_TABLE_iifiii
r4c:__ZNSt3__127__insertion_sort_incompleteIR31RayHitsByInverseDepthComparitorP12RaycastHit2DEEbT0_S5_T_
F0d:__ZN5physx2Gu29computeCapsule_HeightFieldMTDERKNS_21PxHeightFieldGeometryERKNS_11PxTransformERNS0_8CapsuleVEffbjRNS_10PxSweepHitE
Z8e:__ZNK5physx2Cm12DelegateTaskINS_7NpSceneEXadL_ZNS2_14executeCollideEPNS_10PxBaseTaskEEEE7getNameEv
G4d:__ZN5physx2Gu11HeightField15exportExtraDataERNS_22PxSerializationContextE
xtk:_DynamicShadowSettings_Start_m455424824
kUb:__ZN15QualitySettings8TransferI19StreamedBinaryWriteILb0EEEEvRT_
h6:_UNITY_png_reciprocal
UIh:_List_1_System_Collections_Generic_IEnumerableU3CTU3E_GetEnumerator_m1503548298_gshared
m7a:__Z13RequireMethodPKcS0_S0_S0_
nn:_pwrite
gol:__ZN16VirtFuncInvoker2Ii19Vector2_t2243707579S0_E6InvokeEjPvS0_S0_
Kmb:__Z15CleanLogHandler7LogTypePKcz
Npj:__Z42RuntimeInvoker_CameraClearFlags_t452084705PK10MethodInfoPvPS2_
acd:__ZN5physx10NpMaterialC2ERKNS_2Sc12MaterialCoreE
aXd:__Z31setPxVehicleNoDrive_BrakeTorquePN5physx16PxVehicleNoDriveEjf
_P:__ZN14AudioBehaviour15ThreadedCleanupEv
tVf:_UTF32Encoding_GetBytes_m2290150495
Bha:__ZN6Camera17RemoveImageFilterERK11ImageFilter
Kjg:_CaseInsensitiveHashCodeProvider_AreEqual_m2456617355
sD:__ZN14AnimationState11SetWrapModeEi
_Xh:_WebHeaderCollection__ctor_m4088938710
OVg:_LayoutUtility_GetLayoutProperty_m4052007472
bSk:_InvokableCall_1_Invoke_m3239892614_gshared
jTc:__ZN11ShapeModule17MainThreadCleanupEv
uVd:__Z35setPxVehicleWheelsSimData_WheelDataPN5physx22PxVehicleWheelsSimDataEjNS_18PxVehicleWheelDataE
mJe:__ZN8Collider12GetIsTriggerEv
Evh:_Context_set_WriteSequenceNumber_m3356252710
zmd:__ZNK5physx13NpClothFabric13getRestvaluesEPfj
HNe:__ZN5physx2Gu16_gjkLocalRayCastINS0_9TriangleVENS0_11ConvexHullVEEEbRT_RT0_RKNS_6shdfnd3aos6FloatVERKNS9_5Vec3VESF_RSA_RSD_SH_f
eN:__ZNK8Playable11GetDurationEv
eMh:_List_1_Find_m928286154_gshared
kJb:_null_convert24
sN:__ZN17AnimationPlayable28ComputeNeedsBindingRebuildedEv
cle:__ZN5physx6shdfnd8PoolBaseINS_2Cm5BlockIPvLj32EEENS0_19ReflectionAllocatorIS5_EEE17releaseEmptySlabsEv
bPj:_DefaultComparer__ctor_m2859550749_gshared
bbk:_AnimationEvent_get_functionName_m4178006856
nHd:__ZN5physx23PxsBroadPhaseContextSap21batchUpdateFewUpdatesEjRPNS_17PxcBroadPhasePairERjS4_
lih:_UnexceptionalStreamWriter_Write_m2677287588
U5c:__ZN5physx3Cct17getSceneTimestampEPKNS0_30InternalCBData_FindTouchedGeomE
ysc:__ZNK28RectTransformPropertyBinding12GetPPtrValueERKN11UnityEngine9Animation10BoundCurveE
XZh:_X509ExtensionCollection__ctor_m1324282194
uTa:__ZN6Sprite9ReloadAllEv
uBi:_MethodBuilder_Equals_m1205580640
Fok:_CheckPointController_OnTriggerEnter_m286502017
rzf:__ZN18UnityConnectClient33OnPlayerSessionStateChangedStaticEPS_jyy
hzl:__ZL74CaseInsensitiveHashCodeProvider_t2307530285_CustomAttributesCacheGeneratorP21CustomAttributesCache
zZj:_ComDefaultInterfaceAttribute__ctor_m254275202
Oxd:__ZN5physx2Sc17ParticleSystemSim20scheduleCollisionCpuERNS0_16InteractionSceneERKNS_6shdfnd5ArrayIPS1_NS4_19ReflectionAllocatorIS6_EEEERNS_10PxBaseTaskE
PEj:_InternalEnumerator_1_get_Current_m1943362081_gshared
W1e:__ZN5physx5cloth9ClothImplINS0_7SwClothEE26clearSeparationConstraintsEv
stc:__ZN18StreamedBinaryReadILb0EE21TransferSTLStyleArrayI13dynamic_arrayI31EnlightenSystemAtlasInformationLj8EEEEvRT_17TransferMetaFlags
zXb:__ZN18StreamedBinaryReadILb0EE21TransferSTLStyleArrayINSt3__16vectorIN15ResourceManager10DependencyENS2_9allocatorIS5_EEEEEEvRT_17TransferMetaFlags
Ncd:__ZN5physx9NpPhysics15createAggregateEjb
dt:__ZNK7dtCrowd35InsertActiveAgentsIntoProximityGridEP15dtProximityGridii
U2i:_ReadOnlyCollection_1_System_Collections_IList_Clear_m3006875897_gshared
sam:__ZL128LayoutRebuilder_t2155218138_CustomAttributesCacheGenerator_LayoutRebuilder_U3CStripDisabledBehavioursFromListU3Em__7_m1460852255P21CustomAttributesCache
zce:__ZN9Rigidbody5ResetEv
ZEh:_Enumerator_System_Collections_IEnumerator_get_Current_m3866069145_gshared
LLa:__Z19scripting_array_newP14ScriptingClassjj
cri:_Physics_Raycast_m2994111303
sZg:_PreviousInfo_t581002487_marshal_pinvoke_cleanup
$bb:__ZN8Material11SetPassFastEPN9ShaderLab4PassER17ShaderPassContextP6Shaderib
MTe:__ZN5physx18RepXPropertyFilterINS_2Sn17RepXVisitorReaderINS_18PxVehicleWheelDataEEEEclILj575ES3_ffEEvRKNS_14PxPropertyInfoIXT_ET0_T1_T2_EEj
YRc:__ZN20ExternalForcesModule5CacheERK27ParticleSystemReadOnlyStateR19ParticleSystemState
l7b:__ZNK13ScreenManager13GetLockCursorEv
nNc:__ZN15PolynomialCurve12IsValidCurveERK17AnimationCurveTplIfE
uti:_Rect_get_max_m96665935_AdjustorThunk
C0l:__ZL87GUIStyle_t1799908754_CustomAttributesCacheGenerator_GUIStyle_set_fixedWidth_m2562018757P21CustomAttributesCache
hFg:_ExecuteEvents_get_pointerDownHandler_m1172742772
T_h:_X509CertificateEnumerator_System_Collections_IEnumerator_MoveNext_m3708362145
lZd:__ZN5physx9PxTaskMgr12addReferenceEm
Qqa:__Z12SetupLODFadeR9GfxDeviceR17ShaderPassContextf
XNb:__ZL24CollectForwardObjectsJobP27CollectForwardObjectsHeader
EIi:_Enumerator_System_Collections_IDictionaryEnumerator_get_Entry_m345330700_gshared
zGl:__ZL53HMACSHA256_t2622794722_CustomAttributesCacheGeneratorP21CustomAttributesCache
ppa:__Z13IsNodeVisibleRK9SceneNodeRK4AABBRK22SceneCullingParameters
Mrk:_VirtualButton_get_name_m3406892162
z2:__ZN11UnityEngine15CloudWebService16SessionContainer7RestoreERK8UnityStrPvy
_Ci:_EventInfo__ctor_m1190141300
EFj:_InternalEnumerator_1_MoveNext_m3585886944_gshared
$3e:__ZN5physx6shdfnd5ArrayINS_6PxVec3ENS0_9AllocatorEE15growAndPushBackERKS2_
NX:__ZN4FMOD7SystemI9setOutputE15FMOD_OUTPUTTYPE
iHm:_emscripten_glStencilMask__wrapper
xlf:__ZZ29InitializeTextRenderingModulevEN40CleanUpTextRenderingGarbageCollectstruct7ForwardEv
k9:_jpeg_get_small
TZg:_BigInteger_ToString_m3837784224
uWc:__Z9UpdateTplIL27ParticleSystemCurveEvalMode1EEvRK11MinMaxCurveS3_S3_R23ParticleSystemParticlesjjbRK10Matrix4x4ff
qna:__ZN15RenderNodeQueue7CleanupEv
Lgb:__ZNK17ArchiveFileSystem8PositionERK13FileEntryData
dKe:__ZN5physx6shdfnd5ArrayINS_2Sn20ReaderNameStackEntryENS_7profile26WrapperReflectionAllocatorIS3_EEE15growAndPushBackERKS3_
Ybf:__ZN16NovodexAllocator8allocateEjPKcS1_i
uyg:_DllNotFoundException__ctor_m267198482
_oj:__Z48RuntimeInvoker_Rect_t3681755626_Rect_t3681755626PK10MethodInfoPvPS2_
Hvk:_NativeEventCalls_CreateEvent_internal_m1605829321
AHh:_List_1_GetIndex_m3409004147_gshared
uPl:__ZL73RuntimePlatform_t1869584967_CustomAttributesCacheGenerator_MetroPlayerX64P21CustomAttributesCache
Gmm:__ZNSt3__112basic_stringIwNS_11char_traitsIwEENS_9allocatorIwEEE6__initEPKwj
u7g:_Data_t1649773944_marshal_pinvoke_back
V4:__ZN9rapidjson6WriterINS_19GenericStringBufferINS_4UTF8IcEENS_12CrtAllocatorEEES3_S3_S4_E11WriteStringEPKcj
Qbj:__Z65RuntimeInvoker_Int32_t2071877448_Il2CppObject_Int32U26_t455636984PK10MethodInfoPvPS2_
xwa:__ZN9ShaderLab10GrabPassesD2Ev
Bni:_MonoBehaviour_set_useGUILayout_m2666356651
_ei:_Rect_get_height_m3128694305
Vuj:__Z69RuntimeInvoker_TextGenerationSettings_t2543476768_Vector2_t2243707579PK10MethodInfoPvPS2_
$Nf:_SecurityFrame_t1002202659_marshal_pinvoke
wof:_tt_cmap14_done
B9a:__ZN18AwakeFromLoadQueue25RegisterObjectInstanceIDsEv
Nx:__ZNK14NavMeshCarving28CollectCarveDataAndOperationER15CarveDataArraysRK10MinMaxAABBRK13dynamic_arrayIS2_Lj4EE
XHe:__ZN5physx21PxProfileNameProviderD2Ev
meg:_Buffer_BlockCopy_m1586717258
UMe:__ZN5physx2Gu19_gjkRelativeRayCastINS0_4BoxVES2_EEbRT_RT0_RKNS_6shdfnd3aos15PsMatTransformVERKNS8_6FloatVERKNS8_5Vec3VESH_RSC_RSF_SJ_f
uEc:__ZN15SerializeTraitsI13dynamic_arrayINSt3__14pairIi12ImmediatePtrIN5Unity9ComponentEEEELj4EEE19ResizeSTLStyleArrayERS8_i18MemLabelIdentifier
fVa:__ZN14Texture2DArray13UploadTextureEb
gsa:__ZN9Behaviour8TransferI13ProxyTransferEEvRT_
_rd:__ZN5physx2Sc5Scene22removeBroadPhaseRegionEj
hoj:__Z52RuntimeInvoker_Void_t1841601450_ColorU26_t3402129837PK10MethodInfoPvPS2_
lbf:__ZN5physx2Cm12RenderBuffer5clearEv
OBg:_CompareInfo_GetSortKey_m3691382873
cAd:__ZNK5physx2Sc9ClothCore21getStiffnessFrequencyEv
M1c:__ZN11b2RopeJoint24SolveVelocityConstraintsERK12b2SolverData
obc:__ZN15dense_hashtableINSt3__14pairIKy9PlaneDataEEyN32PlaneColliderCache_dense_hashmap17UInt64HashFunctorEN14dense_hash_mapIyS3_S6_NS0_8equal_toIyEE13stl_allocatorIS4_L18MemLabelIdentifier65ELi16EEE9SelectKeyES9_SC_E12maybe_shrinkEv
Avg:_DBNull_ToString_m3228904745
wWc:__Z19UpdateProceduralTplILb1EEvRK22DualMinMax3DPolyCurvesS2_R23ParticleSystemParticlesRK10Matrix4x4fb
Shm:__ZNSt3__16vectorINS_4pairIPK10MethodInfoP11Il2CppClassEENS_9allocatorIS7_EEE26__swap_out_circular_bufferERNS_14__split_bufferIS7_RS9_EE
LJa:__ZN14GfxDeviceStats15SetScreenParamsEiiiiii
dYh:_WebHeaderCollection_AddWithoutValidate_m1479880592
JJf:_SHA1Managed_HashCore_m2658295635
fNc:__ZN24OptimizedPolynomialCurve19BuildOptimizedCurveERK17AnimationCurveTplIfEf
ZKe:__ZN14SafeBinaryRead21TransferSTLStyleArrayINSt3__16vectorIjNS1_9allocatorIjEEEEEEvRT_17TransferMetaFlags
THd:__ZN5physx13PxsCCDContext14postCCDAdvanceEPNS_10PxBaseTaskE
Jrh:_RC4_get_IV_m506011366
nHk:_X509Crl__ctor_m2469408229
EOi:_Dictionary_2_System_Collections_ICollection_get_IsSynchronized_m1107018240_gshared
SIi:_Enumerator_get_CurrentValue_m3562053380_AdjustorThunk
iRk:_Predicate_1_EndInvoke_m3406729927_gshared
T0h:_X509SubjectKeyIdentifierExtension_CopyFrom_m136762226
iob:__Z12MurmurHash2APKvij
Lph:_ASN1_get_Length_m778823697
f4k:__ZN6il2cpp6icalls8mscorlib6System2IO6MonoIO20GetFileSystemEntriesEP12Il2CppStringS6_iiPi
NUe:__ZN5physx3Pvd17PvdPropertyFilterINS_2Sn17RepXVisitorWriterINS_21PxVehicleDriveDynDataEEEE14handleAccessorILj645ENS_22PxRepXPropertyAccessorILj645ES4_KffEEEEvRKT0_
dff:_UNITY_FT_Open_Face
Owc:__ZN18StreamedBinaryReadILb1EE21TransferSTLStyleArrayINSt3__16vectorI17SubstanceEnumItemNS2_9allocatorIS4_EEEEEEvRT_17TransferMetaFlags
MCm:_glGenRenderbuffers__wrapper
Sdk:_Bounds_ToString_m1966597703
y_g:_BigInteger_op_Division_m1581119694
yQa:__ZN2UI13RectTransform19SetDrivenPropertiesENS0_16DrivenPropertiesE
xNb:__ZNSt3__16vectorI16ShadowCasterData13stl_allocatorIS1_L18MemLabelIdentifier2ELi16EEE8__appendEj
i8h:_CallbackHandler_Invoke_m1498072969
Qbi:_DSACryptoServiceProvider__ctor_m701823690
DGe:__ZNK5physx10BPWorkTask7getNameEv
Hei:_Mathf_Clamp_m2354025655
rxi:_CustomAttributeData_GetCustomAttributes_m2421330738
pvd:__ZN5physx2Sc8ShapeSim16onResetFilteringEv
nzk:_Type_get_IsEnum_m313908919
Rvb:__Z44Register_UnityEngine_Component_get_transformv
ePh:_List_1_Reverse_m3395936565_gshared
yWi:_Collection_1_System_Collections_ICollection_CopyTo_m1335644572_gshared
QTa:__ZNK7Texture25GetClassIDVirtualInternalEv
bNh:_List_1_CheckMatch_m2830747427_gshared
Lmd:__ZN5physx2Sc16ActorInteractionD2Ev
xgb:__ZN17ArchiveFileSystem12MountArchiveEPKcS1_
dyg:_StackFrame_GetMethod_m72881026
is:__Z26RegisterClass_NavMeshAgentv
T_g:_ModulusRing_Pow_m3751129772
k7a:__Z11RequireTypePKcS0_S0_
$Ii:_Enumerator_System_Collections_IEnumerator_Reset_m70453843_gshared
$md:__ZN5physx2Sc16ArticulationCore26setExternalDriveIterationsEj
ow:__ZN12NavMeshAreas23VirtualRedirectTransferER17RemapPPtrTransfer
ZDc:__ZN4PPtrI13RenderTextureE8TransferI19StreamedBinaryWriteILb0EEEEvRT_
nOk:_Vector3_get_Item_m3616014016
dMb:__ZNSt3__16vectorIN12FlareManager10FlareEntryENS_9allocatorIS2_EEE21__push_back_slow_pathIKS2_EEvRT_
tJa:__ZN9GfxDevice15ImmediateVertexEfff
pHl:__ZL51Evidence_t1407710183_CustomAttributesCacheGeneratorP21CustomAttributesCache
Udd:__ZN5physx14NpRigidDynamic10clearForceENS_11PxForceMode4EnumE
hja:__ZN16GraphicsSettings13AwakeFromLoadE17AwakeFromLoadMode
YAg:_FieldAccessException__ctor_m3893881490
Csj:__Z82RuntimeInvoker_Int32_t2071877448_Rect_t3681755626_Il2CppObject_Vector2_t2243707579PK10MethodInfoPvPS2_
trk:_CrossPlatformInputManager_GetButtonUp_m2201783544
XM:__ZN6Object13AwakeFromLoadE17AwakeFromLoadMode
NEb:__ZN13GfxDeviceGLES15SetStencilStateEPK18DeviceStencilStatei
dxf:__ZN2UI11CanvasGroup8TransferI18StreamedBinaryReadILb1EEEEvRT_
Xlc:__ZL26Transfer_SimpleNativeClassI17RemapPPtrTransfer8GUIStyleLb1EEvRK29SerializationCommandArgumentsR31RuntimeSerializationCommandInfo
P8h:_StreamingContext__ctor_m3756336578_AdjustorThunk
sOl:__ZL72PKCS12_t1362584795_CustomAttributesCacheGenerator_U3CU3Ef__switchU24map5P21CustomAttributesCache
Ce:_emscripten_glUniform1iv
oYj:_Text_get_preferredHeight_m452532789
j_c:__ZN15b2DistanceProxy3SetEPK7b2Shapei
sPf:_String_System_IConvertible_ToDouble_m3860911722
Mib:__ZN16MemoryFileSystemD2Ev
IOi:_Dictionary_2_System_Collections_Generic_ICollectionU3CSystem_Collections_Generic_KeyValuePairU3CTKeyU2CTValueU3EU3E_Contains_m842343255_gshared
Llf:__Z17dynamic_pptr_castIP9Texture2D7TextureET_RK4PPtrIT0_E
gJ:__ZN7mecanim14ValueArrayLoopERKNS_10ValueArrayES2_RS0_fRKNS_14ValueArrayMaskE
H3i:_ReadOnlyCollection_1_System_Collections_IList_set_Item_m1272038804_gshared
QEj:_InternalEnumerator_1_System_Collections_IEnumerator_get_Current_m1931522460_AdjustorThunk
q2b:__ZN14DrawBufferGLESI12VertexBuffer27VertexBufferUsageMapperGLESE12EnsureBufferEj
YLf:_SecurityPermission_IsEmpty_m1869313067
KGc:__ZN13RuntimeStaticI23MeshVertexFormatManagerE13StaticDestroyEPv
c2a:__ZN30RuntimeInitializeOnLoadManager13RegisterClassEv
GBb:__ZN7ApiGLES15TextureSubImageEj16TextureDimensionN2gl9TexFormatEiiiiiiiiPKv
ttb:__Z37Register_UnityEngine_Camera_get_depthv
x1g:_EncryptedPrivateKeyInfo_get_Salt_m2734354394
SVb:__ZN12ImmediatePtrI9TransformE8TransferI18StreamedBinaryReadILb1EEEEvRT_
hRb:__ZN12MeshRenderer7PRODUCEE18MemLabelIdentifier18ObjectCreationMode
WC:__ZN13AnimationClip24SetDidModifyClipCallbackEPFvPS_R4ListI8ListNodeI14AnimationStateEEE
QVi:_Collection_1_System_Collections_ICollection_CopyTo_m3896480607_gshared
s4e:__Z4loadPKf
TGd:__ZNK5physx16PxsBroadPhaseMBP18getNumDeletedPairsEv
VZa:__ZN11GradientNEW8TransferI18StreamedBinaryReadILb0EEEEvRT_
OPe:__ZN5physx7profile8ZoneImplINS_28PxProfileNameProviderForwardEE10startEventEty
NHd:__ZN5physx10PxsCCDPair17sweepAdvanceToToiEfb
p$a:__ZN15ApplicationInfo16GetInstallerNameEv
dtf:__ZN2UI14CanvasRenderer13RegisterClassEv
oWd:__Z36getPxVehicleDriveDynData_CurrentGearPKN5physx21PxVehicleDriveDynDataE
zJ:__ZN7mecanim5human29HumanGetGoalOrientationOffsetENS0_4GoalE
We:_emscripten_glStencilFunc
Qgj:__Z101RuntimeInvoker_Void_t1841601450_Il2CppObject_Il2CppObject_Il2CppObject_Il2CppObject_Int32_t2071877448PK10MethodInfoPvPS2_
kke:__ZN5physx6shdfnd8PoolBaseINS_2Cm5BlockIhLj384EEENS0_19ReflectionAllocatorIS4_EEE17releaseEmptySlabsEv
rKd:__ZN5physx16PxsIslandManager11freeBuffersEv
ZKb:__ZN18AwakeFromLoadQueueD2Ev
OFi:_MonoMethod_MakeGenericMethod_impl_m2063853616
af:_glGetActiveUniformBlockName
kAe:__ZThn12_N5physx3Ext13DistanceJointD0Ev
jOg:_FontData_set_verticalOverflow_m4211463083
VMf:_RuntimeDeclSecurityEntry_t1853010450_marshal_pinvoke_back
TWg:_U24ArrayTypeU2448_t896841275_marshal_pinvoke
S7g:_Guid_AppendByte_m2890893073
Ape:__ZL28removeBrokenEdgesFromIslandsPKjjS0_jS0_RKN5physx11NodeManagerERNS1_11EdgeManagerERNS1_13IslandManagerERNS1_2Cm10BitMapBaseINS1_6shdfnd9AllocatorEEEPSD_
TTc:__ZN31CollisionModulePropertyBindings13GetFloatValueERK14ParticleSystemi
Bfg:_Char_System_IConvertible_ToType_m3106771703_AdjustorThunk
V2h:_Interval_Intersects_m3480157390_AdjustorThunk
qZf:_SetPropertyUtility_SetStruct_TisAspectMode_t1166448724_m3678361809_gshared
ocm:__ZL71U3CDoBobCycleU3Ec__Iterator3_t3909908162_CustomAttributesCacheGeneratorP21CustomAttributesCache
qqb:__Z39Quaternion_CUSTOM_INTERNAL_CALL_InverseRK11QuaternionfRS_
hkd:__Z12NpGetPxClothRN5physx2Sc9ClothCoreE
SZj:_GCHandle_Alloc_m1063472408
BY:__ZN4FMOD7Channel20set3DConeOrientationEP11FMOD_VECTOR
Usk:_TouchPad_Update_m800033760
yp:FUNCTION_TABLE_iiifii
$xf:__ZNSt3__127__insertion_sort_incompleteIRPFbPN2UI6CanvasES3_EPS3_EEbT0_S8_T_
bzl:__ZL52ArrayList_t4252133567_CustomAttributesCacheGeneratorP21CustomAttributesCache
EZl:__ZL54SkeletonBone_t345082847_CustomAttributesCacheGeneratorP21CustomAttributesCache
Xai:_CryptoConfig_CreateFromName_m391442950
H4k:__ZN6il2cpp2vm12GenericClass11SetupEventsEP11Il2CppClass
gpf:_tt_delta_interpolate
pof:_tt_cmap12_get_info
Qtc:__Z24LoadImageIntoTextureImplI11JpegDecoderEbR9Texture2DPKhjb13TextureFormatR13dynamic_arrayIhLj1EE
XAj:__Z31RuntimeInvoker_Slot_t2022531261PK10MethodInfoPvPS2_
AQk:_Predicate_1_EndInvoke_m3656575065_gshared
Ygh:_StreamWriter_LowLevelWrite_m4205372900
pQj:_Comparer_1__ctor_m1728777074_gshared
bti:_RaycastHit2D_get_transform_m747355930
s3a:__ZN21LinearCollectionFieldC2ERK17GeneralMonoObjectP14ScriptingField
YDi:_Module__ctor_m3853650010
akg:_CollectionBase_System_Collections_IList_get_Item_m2370387510
SP:__ZN29AnimationStateNetworkProvider24GetNetworkAnimationStateER9AnimationP24AnimationStateForNetworki
Z6d:__ZN5physx6shdfnd8SyncImpl7getSizeEv
yPc:__Z11BuildCurvesR25MinMaxOptimizedPolyCurvesRK21MinMaxAnimationCurvesfs
s6f:_Array_Sort_TisCustomAttributeNamedArgument_t94157543_m3436077809_gshared
$Dm:_glCopyTexImage2D__wrapper
uIl:__ZL88UTF7Encoding_t741406939_CustomAttributesCacheGenerator_UTF7Encoding_GetBytes_m3015176946P21CustomAttributesCache
vUg:_LayoutElement__ctor_m789941073
UPi:_Dictionary_2_OnDeserialization_m3851228446_gshared
DCl:__ZL68TargetInvocationException_t4098620458_CustomAttributesCacheGeneratorP21CustomAttributesCache
nMl:__ZL56RankException_t1539875949_CustomAttributesCacheGeneratorP21CustomAttributesCache
qbf:__ZN5physx11PxHitBufferINS_12PxRaycastHitEED0Ev
Plh:_NumberFormatter_CountTrailingZeros_m2398864634
hVc:__Z61Register_UnityEngine_ParticleSystem_EmissionModule_SetEnabledv
Uic:__Z19TransferField_ArrayI14SafeBinaryRead19Converter_PrimitiveI10ColorRGBAfEEvRK23StaticTransferFieldInfoR31RuntimeSerializationCommandInfoRT0_
VWd:__Z35setPxVehicleDriveSimDataNW_DiffDataPN5physx23PxVehicleDriveSimDataNWERKNS_27PxVehicleDifferentialNWDataE
r1j:_DynamicPropertyCollection_FindProperty_m1233265924
Wyc:__ZN6prcoreL17RemapGenericFloatI14TexFormatRHalf15TexFormatRFloatEEvPKNS_9InnerInfoE
toa:__Z16ShouldUseShadowsb
mBh:_TlsStream_SetLength_m1460039587
uyj:__Z55RuntimeInvoker_Int32_t2071877448_UICharInfo_t3056636800PK10MethodInfoPvPS2_
UAb:__ZN7ApiGLES10DrawArraysE16GfxPrimitiveTypejjj
Djk:_Event_PopEvent_m1952528237
Oye:__ZN5physx3Cct13BoxController15getPxControllerEv
kQ:__ZN10SampleClip13LoadBaseSoundEv
uve:__ZN5physx2Gu22gjkRelativePenetrationINS0_17ShrunkConvexHullVES2_EEjRKT_RKT0_RKNS_6shdfnd3aos15PsMatTransformVERKNSA_6FloatVERNSA_5Vec3VESI_SI_RSE_PhSK_Rh
kum:__ZNSt3__120__get_up_to_n_digitsIcNS_19istreambuf_iteratorIcNS_11char_traitsIcEEEEEEiRT0_S5_RjRKNS_5ctypeIT_EEi
xZc:__ZN17Physics2DSettings13RegisterClassEv
hDb:__ZN14DataBufferGLES16RecreateWithDataEiPKv
LHd:__ZN5physx10PxsCCDPair12updateShapesEv
hwf:__Z50CanvasRenderer_CUSTOM_CreateUIVertexStreamInternalP15ScriptingObjectS0_S0_S0_S0_S0_S0_S0_
wem:__ZNSt3__112__hash_tableINS_17__hash_value_typeIP14Il2CppIUnknownP15Il2CppComObjectEENS_22__unordered_map_hasherIS3_S6_NS_4hashIS3_EELb1EEENS_21__unordered_map_equalIS3_S6_NS_8equal_toIS3_EELb1EEENS_9allocatorIS6_EEE8__rehashEj
e_i:_Collection_1_Contains_m643401393_gshared
vcl:__ZNK6il2cpp8metadata17Il2CppTypeCompareclEPK10Il2CppTypeS4_
ewd:__ZN5physx2Sc19ParticlePacketShapeC2ERNS0_17ParticleSystemSimEjPNS_16PxvParticleShapeE
CKk:_TextGenerator_Populate_m4139823822
J3:__ZNSt3__13mapIN19CloudServiceHandler11ServiceTypeEPS1_NS_4lessIS2_EE13stl_allocatorINS_4pairIKS2_S3_EEL18MemLabelIdentifier85ELi16EEEixERS8_
yia:__ZN22DeviceMVPMatricesStateC2ER9GfxDevice
v6j:_Regex_IsMatch_m1286520424
Xcd:__ZN5physx9NpPhysics18createTriangleMeshERNS_13PxInputStreamE
Mp:FUNCTION_TABLE_iiiiifiiiif
Ljj:__Z48RuntimeInvoker_Int64_t909078037_Int64_t909078037PK10MethodInfoPvPS2_
kPf:_String__ctor_m372528291
sba:__ZN6Object16StaticInitializeEv
wZc:__Z31RegisterClass_Physics2DSettingsv
nba:__ZN18BackgroundJobQueue10InitializeEv
b0k:__ZN6il2cpp2vm10Reflection12HasAttributeEP9FieldInfoP11Il2CppClass
Vc:invoke_viiifi
C4l:__ZL104PointerEventData_t1599784723_CustomAttributesCacheGenerator_PointerEventData_get_pointerDrag_m2740415629P21CustomAttributesCache
tri:_Physics_INTERNAL_CALL_Internal_CapsuleCast_m4097719249
OXl:__ZL79Physics_t634932869_CustomAttributesCacheGenerator_Physics_RaycastAll_m233036521P21CustomAttributesCache
Lpc:__Z19TransferField_ArrayI19StreamedBinaryWriteILb0EE19Converter_PrimitiveI5RectTIfEEEvRK23StaticTransferFieldInfoR31RuntimeSerializationCommandInfoRT0_
tCg:_CultureInfo_get_CompareInfo_m3085280862
idj:__Z64RuntimeInvoker_UInt64_t2909196914_Il2CppObject_Int32_t2071877448PK10MethodInfoPvPS2_
Ige:__ZN5physx6shdfnd5ArrayIPNS_7PxActorENS0_19ReflectionAllocatorIS3_EEE8recreateEj
$Wj:_Slider_FindSelectableOnUp_m15474611
jaa:__ZNK11AssetBundle14GetPreloadDataEiR13dynamic_arrayIiLj4EE
F2g:_EncryptedData_get_EncryptedContent_m2732115576
eKe:__ZN5physx6shdfnd5ArrayINS_2Sn14NameStackEntryENS_7profile26WrapperReflectionAllocatorIS3_EEE15growAndPushBackERKS3_
yg:_JS_Sound_SetPosition
c7j:_Assertion_set_FalseExpression_m1781616372
V0h:_X509SubjectKeyIdentifierExtension_FromHexChars_m2515150420
aql:__ZL13GetSharedInstPK17Il2CppGenericInst
Xxl:__ZL51IReflect_t3412036974_CustomAttributesCacheGeneratorP21CustomAttributesCache
JHg:_StandaloneInputModule_SendSubmitEventToSelectedObject_m3421155293
O_j:_AppDomainLevelActivator__ctor_m230071814
zpk:_PlayerShoot_Start_m1060369815
ghk:_Component_GetComponentsInChildren_m908027537
fzf:__ZN22BaseUnityConnectClient17SaveSessionValuesEv
j2j:_CallContextRemotingData_Clone_m2226242476
Xeg:_Byte_System_IConvertible_ToUInt32_m3950610247
mkd:__ZNK5physx7NpCloth14getNbParticlesEv
dBa:__ZN18PlayableController7DestroyEv
ird:__ZN5physx2Sc10NPhaseCore24releaseShapeInstancePairEPNS0_19ShapeInstancePairLLEjj
Mam:__ZL111LayoutUtility_t4076838048_CustomAttributesCacheGenerator_LayoutUtility_U3CGetFlexibleHeightU3Em__13_m1744833700P21CustomAttributesCache
Mka:__Z15CullLocalLightsR8JobFenceS0_RK22SceneCullingParametersRK13dynamic_arrayI8Vector4fLj4EERKS4_IiLj4EER9IndexListSD_RS4_IfLj4EERS4_I15LightScreenInfoLj4EEPPK5LightRK14ShadowCullData
WFf:__Z65Register_UnityEngine_Networking_UnityWebRequest_get_uploadHandlerv
Uz:__ZNSt3__16__sortIR17DetailNodeYSorterP16DetailMeshBVNodeEEvT0_S5_T_
iqa:__Z24SetupActiveLightsContextR21ActiveLightingContextRK12ActiveLightsRK11CullResultsP14ShadowMapCacheRK10MinMaxAABB
yPi:_Dictionary_2_System_Collections_Generic_ICollectionU3CSystem_Collections_Generic_KeyValuePairU3CTKeyU2CTValueU3EU3E_Contains_m3400497673_gshared
rwe:__ZN5physx2GuL34fullContactsGenerationConvexConvexERKNS0_11ConvexHullVERS1_RKNS_6shdfnd3aos12PsTransformVES9_bbPNS0_17PersistentContactERjRNS0_13ContactBufferERNS0_25PersistentContactManifoldERNS6_5Vec3VERKNS6_6FloatVEb
wvg:_DBNull_System_IConvertible_ToUInt32_m2681284284
wBf:__ZN18CrashReportHandler9HandleLogERK8UnityStrS2_7LogType
Bji:_HumanBone_set_boneName_m2410239828_AdjustorThunk
fvh:_ClientSessionInfo_CheckDisposed_m1394638186
lH:__ZN7mecanim9animation15EvaluateAvatarXEPKNS0_14AvatarConstantEPKNS0_11AvatarInputEPNS0_12AvatarOutputEPNS0_12AvatarMemoryEPNS0_15AvatarWorkspaceE
Va:invoke_iiiiiiii
gkb:__ZN24RingBufferMemoryFileData16ConsumeReadBytesEy
kHe:__ZN5physx21SapPostUpdateWorkTaskD0Ev
Auk:_SmoothFollow_Start_m1204577627
Rmi:_Mesh_GetUVChannel_m364477864
x$h:_X509ChainElementCollection_Contains_m3599995067
mGm:b120
e8c:__ZN5physx7NpActor18releaseConstraintsERNS_12PxRigidActorE
lPe:__ZN5physx6shdfnd5ArrayINS_11PxDebugLineENS0_19ReflectionAllocatorIS2_EEE8recreateEj
OHm:b125
oHm:b124
QHm:b127
PHm:b126
SHm:b129
xrb:__Z52Register_UnityEngine_RectTransform_INTERNAL_get_rectv
P9i:__Z53RuntimeInvoker_Il2CppObject_Il2CppObject_Il2CppObjectPK10MethodInfoPvPS2_
SEe:__ZNK5physx22NpParticleBaseTemplateINS_16PxParticleSystemENS_16NpParticleSystemEE20getMaxMotionDistanceEv
VPg:_GridLayoutGroup_set_spacing_m118889422
Rzh:_SslClientStream_OnLocalPrivateKeySelection_m3649986106
vDl:__ZL70TypeLibImportClassAttribute_t2390314680_CustomAttributesCacheGeneratorP21CustomAttributesCache
Jdm:__ZNSt3__13mapIPvxNS_4lessIS1_EENS_9allocatorINS_4pairIKS1_xEEEEE25__construct_node_with_keyERS6_
Q6l:__ZL85Graphic_t2426225576_CustomAttributesCacheGenerator_Graphic_OnPopulateMesh_m2598985015P21CustomAttributesCache
ged:__ZNK5physx14NpRigidDynamic25getContactReportThresholdEv
FYf:_Array_InternalArray__ICollection_Remove_TisX509ChainStatus_t4278378721_m4127982424_gshared
Ctb:__Z47Register_UnityEngine_Camera_get_allCamerasCountv
JQc:__ZN20ParticleSystemModule8TransferI13ProxyTransferEEvRT_
Yyf:__ZN22BaseUnityConnectClient20StartEventDispatcherEv
Cbm:__ZL80VirtualAxis_t2691167515_CustomAttributesCacheGenerator_U3CnameU3Ek__BackingFieldP21CustomAttributesCache
nH:__ZN7mecanim9animation16EvaluateAvatarIKEPKNS0_14AvatarConstantEPKNS0_11AvatarInputEPNS0_12AvatarOutputEPNS0_12AvatarMemoryEPNS0_15AvatarWorkspaceEb
zG:__ZN26AnimatorControllerPlayable10GetIntegerEiRi
j_b:__Z29StdTemplateConversionFunctionIsiEbPvR14SafeBinaryRead
FKd:__Z22updateIslandsToProcessRKN5physx2Cm10BitMapBaseINS_6shdfnd9AllocatorEEEPKjRKNS_11NodeManagerERS4_
wSi:_EqualityComparer_1_System_Collections_IEqualityComparer_Equals_m3376587337_gshared
xrj:__Z83RuntimeInvoker_Il2CppObject_RayU26_t3651946800_Single_t2076509932_Int32_t2071877448PK10MethodInfoPvPS2_
NYa:__ZN12InputManager13InputEndFrameEv
B1c:__ZN15b2RevoluteJointC2EPK18b2RevoluteJointDef
bfa:__ZN16MessageForwarderC2Ev
D2k:__ZN6il2cpp2vm6Thread5SetupEP12Il2CppThread
Z8d:__ZN8Collider30GetRelativePositionAndRotationERK9TransformR10Matrix4x4f
bmk:_Playables_SetPlayStateValidated_m770460097
OOd:__ZN5physx35PxcSweepEstimateAnyShapeHeightfieldERKNS_11PxsCCDShapeES2_PKNS_12PxsRigidBodyES5_RKNS_11PxTransformES8_f
u7i:_ReadOnlyCollection_1_System_Collections_IList_Remove_m2200089035_gshared
W4c:__ZN5physx3Cct13BoxControllerC2ERKNS_16PxControllerDescERNS_9PxPhysicsEPNS_7PxSceneE
LVi:_Collection_1_CheckWritable_m2756357359_gshared
OTa:__Z21RegisterClass_Texturev
PRg:_InputField_get_characterLimit_m2386380888
X5l:__ZL68ColorBlock_t2652774230_CustomAttributesCacheGenerator_m_PressedColorP21CustomAttributesCache
Wpg:_Convert_ToInt64_m1722087499
vta:__ZN22RenderingCommandBuffer24PostExecuteCommandBufferER17ShaderPassContextP13RenderTexture
vh:_localtime_r
rta:__ZN22RenderingCommandBuffer13GetAndCheckRTE24BuiltinRenderTextureTypeRKN9ShaderLab16FastPropertyNameEPKcPP13RenderTexture
pJl:__ZL81AppDomain_t2719102437_CustomAttributesCacheGenerator_assembly_resolve_in_progressP21CustomAttributesCache
d2e:__ZN5physx5cloth9ClothImplINS0_7SwClothEE16setRestPositionsENS0_5RangeIKNS_6PxVec4EEE
hDl:__ZL65InterfaceTypeAttribute_t4113096249_CustomAttributesCacheGeneratorP21CustomAttributesCache
zh:_strftime
ITa:__ZN7Texture33SetStoredColorSpaceNoDirtyNoApplyE17TextureColorSpace
tfb:__ZN12FileAccessorD2Ev
zcc:__ZN10ColorRGBAf8TransferI18StreamedBinaryReadILb0EEEEvRT_
KGa:__ZN14VertexDataInfoC2Ev
TAg:_Exception_GetObjectData_m2653827630
yRl:__ZL75Mesh_t1356156583_CustomAttributesCacheGenerator_Mesh_HasChannel_m3616583481P21CustomAttributesCache
uOk:_Vector3_Equals_m2692262876_AdjustorThunk
XHj:_InternalEnumerator_1_get_Current_m2415979394_gshared
WTj:_ScrollRect_SetDirtyCaching_m1491302821
wWb:__ZN13BuildSettings8TransferI13ProxyTransferEEvRT_
zhm:__ZN6il2cpp6icalls8mscorlib6SystemL9IsPrivateEPK12PropertyInfo
MOd:__ZNK5physx18PxcConvexTriangles16getPolygonNormalEj
Wme:__ZNK13Simd4fFactoryIN6detail14AlignedPointerIfEEEcv8Scalar4fEv
txi:_CustomAttributeData_GetCustomAttributes_m3258419955
b8g:_IndexOutOfRangeException__ctor_m3497760912
Bxa:__ZN9shadertag10InitializeEv
KUl:__ZL80Object_t1021602117_CustomAttributesCacheGenerator_Object_Instantiate_m2489341053P21CustomAttributesCache
TSf:_EncoderFallback__ctor_m1639180960
SOj:_InternalEnumerator_1_MoveNext_m1441038493_gshared
q2f:_Array_InternalArray__ICollection_CopyTo_TisParameterModifier_t1820634920_m4127516211_gshared
CSf:_DecoderReplacementFallback__ctor_m2344783488
cKi:_Enumerator_System_Collections_IDictionaryEnumerator_get_Key_m467957770_AdjustorThunk
une:__ZN5physx6shdfnd5ArrayIjNS0_9AllocatorEE15growAndPushBackERKj
ude:__ZN5Unity11SpringJoint5ResetEv
HOg:_GraphicRegistry_UnregisterGraphicForCanvas_m820096873
Xcl:__ZN6il2cpp6icalls8mscorlib6System9Threading16NativeEventCalls19ResetEvent_internalE12Il2CppIntPtr
W3l:__ZL65EventTrigger_t1967201810_CustomAttributesCacheGenerator_delegatesP21CustomAttributesCache
UWi:_Collection_1_Remove_m4136193368_gshared
Xpg:_Decimal__ctor_m1770144563
DEg:_EventTrigger_OnPointerUp_m2791622548
$rf:__ZN14SafeBinaryRead21TransferSTLStyleArrayINSt3__16vectorI8UnityStr13stl_allocatorIS3_L18MemLabelIdentifier34ELi16EEEEEEvRT_17TransferMetaFlags
iWj:_Shadow_set_useGraphicAlpha_m141905402
Rzc:__ZN22BlockMemoryCacheWriter14LockCacheBlockEjPPhS1_
G7k:__ZN6il2cpp2os6Thread10RunWrapperEPv
aae:__ZN5Unity5Joint13RegisterClassEv
u8e:__ZN5physx22NpParticleBaseTemplateINS_15PxParticleFluidENS_15NpParticleFluidEED2Ev
K$l:__ZL61GUISkin_t1436893342_CustomAttributesCacheGenerator_m_textAreaP21CustomAttributesCache
uaf:__ZN5physx2Cm29ConstraintImmediateVisualizer19visualizeDoubleConeERKNS_11PxTransformEfb
xfe:__ZN5physx6shdfnd5ArrayINS_13PxExtendedBoxENS0_19ReflectionAllocatorIS2_EEE8recreateEj
UFd:__ZN5physx20ProcessBPResultsTask11runInternalEv
l5e:__ZN5physx6shdfnd5ArrayIPvNS0_19ReflectionAllocatorINS_2Cm5BlockIS2_Lj16EEEEEE4copyINS0_15InlineAllocatorILj256ES7_EEEEvRKNS1_IS2_T_EE
di:_llvm_eh_typeid_for
dW:__ZN4FMOD13ChannelGroupI10getDSPHeadEPPNS_3DSPE
xzl:__ZL53HashValues_t2390200547_CustomAttributesCacheGeneratorP21CustomAttributesCache
QZh:_X509BasicConstraintsExtension_get_PathLengthConstraint_m3004531343
Kdb:__Z19FindShaderLabShaderRKNSt3__112basic_stringIcNS_11char_traitsIcEENS_9allocatorIcEEEERNS_6vectorI4PPtrI6ShaderENS3_ISB_EEEEb
qNk:_UnityException__ctor_m1554762831
kfd:__ZN5physx7NpScene19getActiveTransformsERjh
tti:_Rect_get_max_m96665935
$qd:__ZN5physx2Sc10NPhaseCore39pool_deleteParticleElementRbElementPairEPNS0_35ParticleElementRbElementInteractionEjj
Wlm:_calloc
Xyf:__ZN22BaseUnityConnectClient10QueueEventERN11UnityEngine15CloudWebService17CloudServiceEventEPKcb
fjh:_MissingMemberException__ctor_m4277447068
cHi:_StrongNameKeyPair_System_Runtime_Serialization_ISerializable_GetObjectData_m1693082120
Lya:__ZN9ShaderLab10ParserPassD0Ev
e5b:__ZN9GfxDevice14EndBufferWriteEP9GfxBufferj
ETi:_EqualityComparer_1__ctor_m3155445483_gshared
G6k:__ZN6il2cpp2vm6Method8GetParamEPK10MethodInfoj
Rah:_Int64_CompareTo_m1953686218
DQc:__ZN19ParticleSystemState8TransferI13ProxyTransferEEvRT_
VTi:_GenericComparer_1__ctor_m221205314_gshared
a4k:__ZN6il2cpp6icalls8mscorlib6System2IO6MonoIO4ReadE12Il2CppIntPtrP11Il2CppArrayiiPi
KGm:_glBindVertexArray__wrapper
UQe:__ZN5physx6shdfnd5ArrayINS_11RTreeNodeNQENS0_19ReflectionAllocatorIS2_EEE19resizeUninitializedEj
vyd:__ZNK5physx2Sc16InteractionScene18getLLIslandManagerEv
Mbi:_DSA_Create_m3450041777
Hcb:__ZN8Material8TransferI14SafeBinaryReadEEvRT_
tQd:__ZN5physx17PxcNpMemBlockPool34acquireExceptionalConstraintMemoryEj
VDh:_Enumerator_System_Collections_IEnumerator_Reset_m2200349770_gshared
O9f:_ExecuteEvents_ValidateEventData_TisIl2CppObject_m447988640_gshared
Y_i:_Collection_1_get_Item_m3791221403_gshared
fem:__ZThn4_N6il2cpp2vm13ComObjectBaseINS0_12_GLOBAL__N_113ManagedObjectE14Il2CppIMarshal20Il2CppIManagedObjectNS0_7details6ComNilES7_S7_S7_S7_S7_S7_S7_E14QueryInterfaceERK10Il2CppGuidPPv
JGl:__ZL54PaddingMode_t3032142640_CustomAttributesCacheGeneratorP21CustomAttributesCache
iwj:__Z75RuntimeInvoker_Void_t1841601450_ConstraintU26_t2775779428_Int32_t2071877448PK10MethodInfoPvPS2_
EZe:__ZN5physxL23PxcSweepConvexTrianglesERKNS_11PxsCCDShapeES2_RKNS_11PxTransformES5_S5_S5_fRNS_6PxVec3ES7_RNS_10PxcNpCacheERNS_18PxcNpThreadContextERKNS_2Cm23FastVertex2ShapeScalingERNS_2Gu9TriangleVEf
ohd:__ZNK5physx7NpShape16getPlaneGeometryERNS_15PxPlaneGeometryE
L$h:_X509Chain_CheckRevocationOnChain_m2441901351
PXd:__ZN5physx27InternalTriangleMeshBuilder14fillRemapTableEv
fT:__ZN11AudioSource4StopEb
hlm:_frexp
b$i:_Collection_1_CheckWritable_m732350052_gshared
zeg:_Byte_System_IConvertible_ToDecimal_m1036493607
fJl:__ZL47Timer_t791717973_CustomAttributesCacheGeneratorP21CustomAttributesCache
Rqh:_MD4Managed_MD4Transform_m2648331494
cGj:_InternalEnumerator_1_System_Collections_IEnumerator_get_Current_m1679297177_gshared
$6l:__ZL65Image_t2042527209_CustomAttributesCacheGenerator_m_PreserveAspectP21CustomAttributesCache
mPj:_DefaultComparer_Compare_m1247109616_gshared
rHi:_ResourceManager__ctor_m498829021
cHb:__ZN18GlslGpuProgramGLESD2Ev
ZPe:__ZThn116_NK5physx7profile8ZoneImplINS_28PxProfileNameProviderForwardEE10hasClientsEv
t5d:__ZN5physx2Gu20pcmContactCapsuleBoxERKNS0_13GeometryUnionES3_RKNS_11PxTransformES6_RKfRNS0_5CacheERNS0_13ContactBufferE
e8h:_SerializationCallbacks__ctor_m722356782
Pgk:_Color_t2020392075_marshal_pinvoke_back
Z2a:__ZN22GenericPropertyBinding8RegisterEPKc11ClassIDTypePFfPvEPFvS3_fE
xbj:__Z99RuntimeInvoker_Int32_t2071877448_Int32_t2071877448_Int32_t2071877448_Int32_t2071877448_Il2CppObjectPK10MethodInfoPvPS2_
N8i:_Comparison_1_Invoke_m2255009434_gshared
kyg:_StackTrace__ctor_m772333217
Sw:__Z21CleanupNavMeshManagerv
HCj:__Z93RuntimeInvoker_Il2CppObject_Vector2_t2243707579_Vector2_t2243707579_Il2CppObject_Il2CppObjectPK10MethodInfoPvPS2_
mab:__ZN17PersistentManager18ReadObjectThreadedEi
FHb:__ZN25TransformFeedbackSkinning31CleanupTransformFeedbackShadersEv
$bl:__ZN6il2cpp6icalls8mscorlib6System7Runtime16CompilerServices14RuntimeHelpers15InitializeArrayEP11Il2CppArray12Il2CppIntPtr
Eme:__ZcoRK8Scalar4f
uJj:_InternalEnumerator_1_System_Collections_IEnumerator_get_Current_m2851415307_gshared
uvi:_Rigidbody_get_drag_m1954609103
tKj:_InternalEnumerator_1_Dispose_m3671580532_AdjustorThunk
gel:__ZN6il2cpp6icalls8mscorlib4Mono8Security12Cryptography18KeyPairPersistence16_IsUserProtectedEP12Il2CppString
Skl:__ZN16VirtFuncInvoker1IP28HandshakeMessage_t3938752374hE6InvokeEjPvh
q5i:_ReadOnlyCollection_1_Contains_m3936562733_gshared
jqb:__Z32Gizmos_CUSTOM_INTERNAL_set_colorRK10ColorRGBAf
cwg:_Decimal_System_IConvertible_ToInt16_m3159038792_AdjustorThunk
EGa:__ZN10VertexData8TransferI18StreamedBinaryReadILb0EEEEvRT_
std:__ZN5physx2Sc5Scene9addStaticERNS0_10StaticCoreEPKPvjj
n3g:_PKCS12_GetExistingParameters_m2413397265
vZi:_Collection_1_ClearItems_m4268731177_gshared
qdm:__ZL88WaypointProgressTracker_t2206407592_CustomAttributesCacheGenerator_pointToPointThresholdP21CustomAttributesCache
X5a:__ZN14PreloadManager16UpdatePreloadingEv
aga:__ZN12BaseRendererD2Ev
kFk:_X509CertificateCollection__ctor_m858704242
TEc:__ZN19StreamedBinaryWriteILb0EE19TransferSTLStyleMapINSt3__18multimapI8UnityStrN11AssetBundle9AssetInfoENS2_4lessIS4_EENS2_9allocatorINS2_4pairIKS4_S6_EEEEEEEEvRT_17TransferMetaFlags
Atd:__ZN5physx2Sc5Scene9addShapesEPKPvjjRNS0_8RigidSimEPNS_12PxsRigidBodyERPNS0_8ShapeSimEPNS_9PxBounds3E
tej:__Z148RuntimeInvoker_Int32_t2071877448_Il2CppObject_Int32_t2071877448_Int32_t2071877448_Il2CppObject_Int32_t2071877448_Int32_t2071877448_Int32_t2071877448PK10MethodInfoPvPS2_
w4a:__ZN13MonoBehaviour21StartCoroutineManagedEPKcP15ScriptingObject
H0f:_Mesh_SafeLength_TisColor32_t874517518_m2265151750_gshared
r7i:_ReadOnlyCollection_1_System_Collections_IList_Contains_m1545447998_gshared
BOd:__ZN5physx23PxcPCMContactConvexMeshERKNS_2Gu13GeometryUnionES3_RKNS_11PxTransformES6_RKfRNS_10PxcNpCacheERNS0_13ContactBufferE
zza:__ZNK21UnityDefaultAllocatorI17LowLevelAllocatorE8ContainsEPKv
Wuh:_ClientSessionInfo_get_Id_m3046630969
cLl:__ZL78Convert_t2607082565_CustomAttributesCacheGenerator_Convert_ToUInt32_m759656532P21CustomAttributesCache
zj:_emscripten_get_main_loop_timing
Uch:_DirectoryInfo__ctor_m3750996792
SIg:_BaseMeshEffect_ModifyMesh_m2134816219
w5f:_Array_qsort_TisVector2_t2243707579_m3527759534_gshared
eJj:_InternalEnumerator_1_MoveNext_m4292005299_gshared
mvi:_ResourceRequest_t2560315377_marshal_pinvoke_cleanup
MWg:_U24ArrayTypeU24256_t2038352954_marshal_pinvoke_cleanup
wOh:_List_1_System_Collections_Generic_IEnumerableU3CTU3E_GetEnumerator_m166627113_gshared
vNf:_SecurityElement_IsValidAttributeValue_m483287146
oSf:_Decoder_set_Fallback_m1780632169
tJl:__ZL56AppDomainSetup_t611332832_CustomAttributesCacheGeneratorP21CustomAttributesCache
Rr:getTempRet0
cUc:__ZN26SizeModulePropertyBindings13GetFloatValueERK14ParticleSystemi
chj:__Z114RuntimeInvoker_Void_t1841601450_Il2CppObject_Il2CppObject_Int32_t2071877448_Il2CppObject_Il2CppObject_Il2CppObjectPK10MethodInfoPvPS2_
gZf:_SetPropertyUtility_SetClass_TisIl2CppObject_m3678588200_gshared
Lwi:_AssemblyTitleAttribute__ctor_m1696431446
nRg:_Image_AddQuad_m1603575622
Erh:_PrivateKeyInfo_RemoveLeadingZero_m3396807048
g1i:_ReadOnlyCollection_1_System_Collections_Generic_ICollectionU3CTU3E_get_IsReadOnly_m1251192075_gshared
qHh:_List_1_GrowIfNeeded_m185971996_gshared
sGl:__ZL56DSAParameters_t1872138834_CustomAttributesCacheGeneratorP21CustomAttributesCache
lsl:__ZN6il2cpp6icalls8mscorlib6System9ThreadingL21lookup_cached_cultureEP12Il2CppThreadi
qpl:__ZN16VirtFuncInvoker1IP24DaylightTime_t3800227331iE6InvokeEjPvi
pBc:__ZN18DeferredRenderLoopD2Ev
cAi:_GenericTypeParameterBuilder_GetMethods_m1243855818
fbb:__ZNK16TypeTreeIterator4NameEv
cfb:__ZN15FileSystemEntry3SetEPKc
D0e:__ZN5physx5cloth13MovingAverage4pushEjf
yqe:__ZN5physx6shdfnd5ArrayIPNS_13PxcNpMemBlockENS0_19ReflectionAllocatorIS3_EEE6resizeEjRKS3_
C5:__ZNSt3__16vectorIPN11UnityEngine15CloudWebService14CloudEventInfoE13stl_allocatorIS4_L18MemLabelIdentifier85ELi16EEE6assignIPS4_EENS_9enable_ifIXaasr21__is_forward_iteratorIT_EE5valuesr16is_constructibleIS4_NS_15iterator_traitsISC_E9referenceEEE5valueEvE4typeESC_SC_
rOj:_InternalEnumerator_1__ctor_m2808001655_gshared
ldi:_MACTripleDES__ctor_m884945242
FYa:__ZN12InputManager11GetButtonUpERKNSt3__112basic_stringIcNS0_11char_traitsIcEENS0_9allocatorIcEEEE
Cdd:__ZN5physx14NpRigidDynamic8requiresERNS_23PxProcessPxBaseCallbackE
KVa:__ZN9Texture3D23VirtualRedirectTransferER13ProxyTransfer
XU:__ZN20SoundChannelInstance15ParameterBuffer5ApplyEPN4FMOD7ChannelE
Sea:__Z23RegisterClass_Componentv
yKb:__ZNSt3__16__treeINS_12__value_typeINS_12basic_stringIcNS_11char_traitsIcEE13stl_allocatorIcL18MemLabelIdentifier54ELi16EEEEP11AssetBundleEENS_19__map_value_compareIS8_SB_NS_4lessIS8_EELb1EEES5_ISB_LS6_54ELi16EEE7destroyEPNS_11__tree_nodeISB_PvEE
Zdf:__ZN20TextRenderingPrivate19NativeTextGenerator9InsertTabEv
jwl:__ZL73Enum_t2459695545_CustomAttributesCacheGenerator_Enum_ToObject_m1688724857P21CustomAttributesCache
otk:_DragRigidbody_FindCamera_m2906720210
Lgg:_Char_ToString_m1401375624_AdjustorThunk
Zdi:_Rect_set_y_m4294916608
Uum:__ZNSt3__113__vector_baseIPNS_6locale5facetENS_15__sso_allocatorIS3_Lj28EEEED2Ev
nDd:__ZN5physx5cloth9SwFactory12createFabricEjNS0_5RangeIKjEES4_NS2_IKfEES4_S4_S6_
FPe:__ZN5physx7profile8ZoneImplINS_28PxProfileNameProviderForwardEE21setProfileZoneManagerEPNS_20PxProfileZoneManagerE
Szf:__ZN11UnityEngine15PlatformWrapper24GetRuntimePlatformStringEv
lk:_glIsEnabled
Wva:__ZN15CacheWriterBaseD2Ev
z5c:__ZN5physx3Cct17CapsuleController15setFootPositionERKNS_14PxExtendedVec3E
C5d:__ZN5physx2Gu33PCMCapsuleVsMeshContactGeneration13generateEEMTDERKNS_6shdfnd3aos5Vec3VES6_RKNS3_6FloatVES6_jS6_S6_PNS0_21MeshPersistentContactERj
H8e:__ZN18MultiQueryCallbackIN5physx10PxSweepHitEED0Ev
D4:__ZN11UnityEngine15CloudWebService12JsonDocumentD2Ev
PPb:__ZNSt3__16vectorIN9ShaderLab16ParserSetTextureENS_9allocatorIS2_EEE6assignIPS2_EENS_9enable_ifIXaasr21__is_forward_iteratorIT_EE5valuesr16is_constructibleIS2_NS_15iterator_traitsIS9_E9referenceEEE5valueEvE4typeES9_S9_
pYc:__ZN8UVModuleD0Ev
pk:_emscripten_glDrawElementsInstanced
CWi:_Collection_1_System_Collections_IList_IndexOf_m51140022_gshared
pxb:__Z25Transform_CUSTOM_GetChildP15ScriptingObjecti
eqh:_ARC4Managed_Dispose_m4102232694
hxe:__ZN5Unity5Joint17JointTransferPostI18StreamedBinaryReadILb1EEEEvRT_
xqh:_HMAC_Initialize_m3052649104
Aua:__ZN18JobBatchDispatcherD2Ev
mWa:__ZN9Transform17MainThreadCleanupEv
Tal:_GC_clear_hdr_marks
sBm:_glScissor__wrapper
HHm:_emscripten_glCreateShader__wrapper
JSg:_InputField_get_caretSelectPositionInternal_m3523572533
Qgf:_cff_fd_select_get
OCl:__ZL73CompilationRelaxationsAttribute_t238494011_CustomAttributesCacheGeneratorP21CustomAttributesCache
TO:__ZNSt3__16vectorIhNS_9allocatorIhEEE6assignINS_11__wrap_iterIPhEEEENS_9enable_ifIXaasr21__is_forward_iteratorIT_EE5valuesr16is_constructibleIhNS_15iterator_traitsIS9_E9referenceEEE5valueEvE4typeES9_S9_
o8h:_CallbackHandler_EndInvoke_m2406225629
sNb:__ZL54CombineLocalShadowCasterCullignIndexListsAndDestroyJobP25LocalShadowCullingJobData
IJc:__Z28GUIStyle_Get_Custom_PropNameP15ScriptingObject
nYj:_Text_get_minHeight_m1562513104
uKf:_SHA512Managed_processBlock_m3220567420
xVh:_NameObjectCollectionBase_get_Keys_m446053925
Ck:_emscripten_glGetShaderiv
pLi:_Transform_1__ctor_m353209818_gshared
PZd:__ZN5physx6shdfnd13TempAllocator10deallocateEPv
TZ:__ZN4FMOD6System10getVersionEPj
kpd:__ZN5physx2Sc7BodySim10sleepCheckEffb
Kde:__ZN13WheelCollider16RecreateColliderEPK9Rigidbody
hLb:__ZN5Unity9Component7PRODUCEE18MemLabelIdentifier18ObjectCreationMode
c0f:_Array_InternalArray__IndexOf_TisSByte_t454417549_m1427585061_gshared
Saj:__Z75RuntimeInvoker_Byte_t3683104436_Il2CppObject_Int32_t2071877448_Il2CppObjectPK10MethodInfoPvPS2_
wwg:_Decimal_u64_m3991988111
IPk:_YieldInstruction_t3462875981_marshal_pinvoke
E2b:__ZNK6Object25GetClassIDVirtualInternalEv
vub:__Z42Input_CUSTOM_INTERNAL_get_mouseScrollDeltaR13Vector2fIcall
kGk:_X509Certificate_Parse_m1764345628
vAg:_Environment_GetEnvironmentVariable_m4292917946
ppl:__ZN16VirtFuncInvoker0I8IntPtr_tE6InvokeEjPv
eHm:_emscripten_glCullFace__wrapper
vuh:_RecordProtocol_get_Context_m2688493529
IIa:__ZN9GfxDevice21ReleaseSharedMeshDataEP14SharedMeshData
G4g:_SmallXmlParser_Peek_m2814840810
Wmg:_Enumerator_Reset_m466659019
xSk:_UnityAction_1_EndInvoke_m2822290096_gshared
Nal:_GC_unreachable_finalize_mark_proc
q7j:_BalancingGroup_set_Balance_m3452171919
Jtl:_maybe_finalize
mla:__ZN11LightProbes23VirtualRedirectTransferER13ProxyTransfer
mAf:__ZN20HardwareInfoReporter18ReportHardwareInfoEv
Xhd:__ZN5physx14NpShapeManagerC2Ev
mil:__ZN16VirtFuncInvoker2IbP6Type_tbE6InvokeEjPvS1_b
Qbb:__ZN8Material28UpdateHashesOnPropertyChangeEN9ShaderLab16FastPropertyNameE
$rb:__Z53Register_UnityEngine_SortingLayer_GetLayerValueFromIDv
Dch:_DirectoryInfo_get_Parent_m1198766078
Hjg:_CaseInsensitiveComparer_Compare_m1192858479
jgh:_StreamAsyncResult_set_Done_m4272090534
lVg:_LayoutRebuilder_Clear_m2390054824
DYi:_Collection_1_System_Collections_IList_Insert_m2968289909_gshared
bxi:_Default_SelectMethod_m622251293
uT:__ZN11AudioSource12AddToManagerEv
OD:__ZN8Animator23VirtualRedirectTransferER19StreamedBinaryWriteILb0EE
sQk:_Predicate_1_EndInvoke_m2487624220_gshared
r4k:__ZN6il2cpp2vm5Image13ClassFromNameEPK11Il2CppImagePKcS6_
x4e:__Z6cross3RK8Scalar4fS1_
xfc:__Z14resize_trimmedINSt3__16vectorI11ColorRGBA3213stl_allocatorIS2_L18MemLabelIdentifier1ELi16EEEEEvRT_j
zoh:_BigInteger_op_Inequality_m744282323
_Ob:__ZL32MarkLevelGameManagerDependenciesR27GarbageCollectorThreadState
omj:__Z49RuntimeInvoker_Void_t1841601450_UInt16_t986882611PK10MethodInfoPvPS2_
IGb:__ZNK13GfxDeviceGLES26HasActiveRandomWriteTargetEv
jJb:_gray_rgb_convert
$Aj:__Z37RuntimeInvoker_ILTokenInfo_t149559338PK10MethodInfoPvPS2_
Hmm:__ZNSt3__112basic_stringIwNS_11char_traitsIwEENS_9allocatorIwEEE6__initEjw
i0b:__ZN14dense_hash_mapINSt3__112basic_stringIcNS0_11char_traitsIcEE13stl_allocatorIcL18MemLabelIdentifier54ELi16EEEEP20ArchiveStorageReader11djb2_hash_tIS7_ENS0_8equal_toIS7_EES4_INS0_4pairIKS7_S9_EELS5_54ELi16EEE15set_deleted_keyERSF_
kCm:_glGetActiveUniformsiv__wrapper
Fse:__Z40setPxVehicleWheelDataMMaxHandBrakeTorquePN5physx18PxVehicleWheelDataEf
$Cj:__Z50RuntimeInvoker_Il2CppObject_ColorTween_t3438117476PK10MethodInfoPvPS2_
E6c:__ZNK5physx3Cct10Controller16getInternalStateERNS_17PxControllerStateE
fvf:__Z44Canvas_Set_Custom_PropReferencePixelsPerUnitP15ScriptingObjectf
nhm:__ZL9rshift128PyS_
qlj:__Z59RuntimeInvoker_Il2CppObject_Double_t4078015681_Il2CppObjectPK10MethodInfoPvPS2_
YC:__Z20AnimationEventToMonoRK14AnimationEventR18MonoAnimationEvent
zRl:__ZL85Mesh_t1356156583_CustomAttributesCacheGenerator_Mesh_ExtractArrayFromList_m1349408169P21CustomAttributesCache
Bnj:__Z83RuntimeInvoker_Void_t1841601450_Il2CppObject_Il2CppObject_Il2CppObject_Il2CppObjectPK10MethodInfoPvPS2_
BWd:__Z35getPxVehicleDriveSimData_EngineDataPKN5physx21PxVehicleDriveSimDataE
DRj:_Navigation_get_selectOnLeft_m3980387574_AdjustorThunk
Aik:_CustomYieldInstruction_get_Current_m1743233962
Zwb:__Z38Transform_CUSTOM_INTERNAL_set_rotationP15ScriptingObjectRK11Quaternionf
CMc:__ZN11IMGUIModule21QueryGUIDisplayTargetEP14ScriptingClass
wId:__ZN5physx10PxsContext15setScratchBlockEPvj
j3l:__ZL74UnityEventBase_t828812576_CustomAttributesCacheGenerator_m_PersistentCallsP21CustomAttributesCache
gRi:_DefaultComparer__ctor_m2265472997_gshared
KLc:__Z41GUIUtility_Get_Custom_PropKeyboardControlv
Guc:__ZN4PPtrI6SpriteE8TransferI14SafeBinaryReadEEvRT_
Ike:__ZN5physx2Cm27getDynamicGlobalPoseAlignedERKNS_11PxTransformES3_S3_RS1_
Xw:__ZN15NavMeshSettings13AwakeFromLoadE17AwakeFromLoadMode
Ogj:__Z45RuntimeInvoker_Il2CppObject_IntPtr_t_IntPtr_tPK10MethodInfoPvPS2_
DMd:__ZN5physx12solve1DBlockEPKNS_23PxcSolverConstraintDescEjRNS_16PxcSolverContextE
qZe:__ZN5physx6shdfnd5ArrayIPvNS0_19ReflectionAllocatorIN17PxcPoolMallocData10PoolData32EEEE15growAndPushBackERKS2_
Zbm:__ZL117U3CDragObjectU3Ec__Iterator0_t4075247181_CustomAttributesCacheGenerator_U3CDragObjectU3Ec__Iterator0_Reset_m472318653P21CustomAttributesCache
Bvh:_Context_get_SupportedCiphers_m2172827298
MNj:_InternalEnumerator_1_MoveNext_m252820768_gshared
FKl:__ZL79Convert_t2607082565_CustomAttributesCacheGenerator_Convert_ToSingle_m2579590104P21CustomAttributesCache
d2c:__ZN12b2WheelJoint24SolveVelocityConstraintsERK12b2SolverData
Cej:__Z170RuntimeInvoker_Int32_t2071877448_Il2CppObject_Int32_t2071877448_Int32_t2071877448_Il2CppObject_Int16_t4041245914_Int32_t2071877448_SByte_t454417549_ContextU26_t3131521781PK10MethodInfoPvPS2_
QUa:__ZN9Texture2D23VirtualRedirectTransferER18StreamedBinaryReadILb0EE
ahl:__ZN16VirtFuncInvoker0IP23CompareInfo_t2310920157E6InvokeEjPv
PEk:_ExtendedKeyUsageExtension_Encode_m3429751649
Uyg:_Double_System_IConvertible_ToUInt16_m286326038_AdjustorThunk
O5h:_TypeInfo__ctor_m1475908211
M$h:_X509Chain_WrapUp_m1072032285
_Gk:_X509CertificateEnumerator_System_Collections_IEnumerator_MoveNext_m1448966539
Jnf:_get_sfnt_table
H2e:__ZThn4_NK5physx5cloth9ClothImplINS0_7SwClothEE10getDampingEv
Luh:_TlsServerHelloDone__ctor_m2125611008
X9:_unity_z_tr_stored_block
_9i:__Z46RuntimeInvoker_Single_t2076509932_Il2CppObjectPK10MethodInfoPvPS2_
gOf:_SecuritySafeCriticalAttribute__ctor_m2508714287
ECc:__ZN18StreamedBinaryReadILb1EE21TransferSTLStyleArrayI13dynamic_arrayI13ProbeSetIndexLj8EEEEvRT_17TransferMetaFlags
R_f:_Array_compare_TisIl2CppObject_m1481822507_gshared
Eya:__ZN9ShaderLab16ParserProperties18AddTexturePropertyEPKcS2_RKNSt3__16vectorINS3_12basic_stringIcNS3_11char_traitsIcEENS3_9allocatorIcEEEENS8_ISA_EEEERKNS_21ParserTexturePropertyE
ubi:_DES_get_Key_m2584608215
$Lb:__ZL22ScheduleSceneNodesJobsP25ScheduleSceneNodesJobDataj
rNd:__ZN5physx22concludeContactCoulombERKNS_23PxcSolverConstraintDescERNS_16PxcSolverContextE
Im:_emscripten_set_canvas_size
hxl:__ZL65Il2CppArray_CustomAttributesCacheGenerator_Array_Sort_m3645766612P21CustomAttributesCache
Lid:__ZNK5physx15NpParticleFluid12getStiffnessEv
Xkg:_Hashtable__ctor_m741952536
d_g:_BigInteger_ModPow_m887553845
pqm:__ZNKSt3__110moneypunctIcLb0EE14do_curr_symbolEv
EIa:__ZN9GfxDevice20BeginDynamicBatchingERK14ChannelAssignsjjP17VertexDeclarationjj16GfxPrimitiveType
Fza:__ZN20DynamicHeapAllocatorI17LowLevelAllocatorE8AllocateEji
Ssc:__ZN12LineRenderer10LinePointsD0Ev
SNb:__ZN20DynamicPropertySheet15SetVectorQueuedERKN9ShaderLab16FastPropertyNameERK8Vector4fN19ShaderPropertySheet8SetFlagsE
aRf:_String_Format_m1263743648
Jlm:_strtoll
c5i:_ReadOnlyCollection_1_System_Collections_IEnumerable_GetEnumerator_m4248982967_gshared
mH:__ZN7mecanim9animation22EvaluateAvatarRetargetEPKNS0_14AvatarConstantEPKNS0_11AvatarInputEPNS0_12AvatarOutputEPNS0_12AvatarMemoryEPNS0_15AvatarWorkspaceEb
zVg:_LayoutRebuilder_GetHashCode_m2745108660
_al:_GC_push_conditional
yDa:__ZN17GenericDynamicVBO10AllocateVBEjR21DynamicVBOChunkHandle
OIh:_List_1_get_Item_m1547593893_gshared
Jyj:__Z70RuntimeInvoker_Void_t1841601450_CustomAttributeNamedArgument_t94157543PK10MethodInfoPvPS2_
Qfh:_Path_GetPathRoot_m1269357080
QZe:__ZL27PxcTestFacesSepAxesBackfaceRKN5physx2Gu13PolygonalDataES3_RKNS_2Cm8Matrix34ES7_RKNS4_23FastVertex2ShapeScalingESA_S7_RKNS_6PxVec3ERfRSB_RjPjSG_fSD_
kGh:_List_1_System_Collections_IList_Insert_m3497683264_gshared
f$k:_il2cpp_delegate_end_invoke
Bse:__Z33setPxVehicleWheelDataMDampingRatePN5physx18PxVehicleWheelDataEf
BLi:_Transform_1__ctor_m4161450529_gshared
cn:_glMapBufferRange
WUa:__ZN9Texture2D8TransferI18StreamedBinaryReadILb0EEEEvRT_
dPi:_Dictionary_2_Remove_m1947153975_gshared
sub:__Z31Input_CUSTOM_GetMouseButtonDowni
mxl:__ZL65Il2CppArray_CustomAttributesCacheGenerator_Array_Sort_m1730553742P21CustomAttributesCache
$kd:__ZNK5physx7NpCloth23getExternalAccelerationEv
IXa:__ZNK9Transform16GetLocalPositionEv
Mag:_Array_System_Collections_ICollection_get_Count_m2897196527
n6a:__ZN13LoadOperation19IntegrateTimeSlicedEi
Xcj:__Z36RuntimeInvoker_Il2CppObject_IntPtr_tPK10MethodInfoPvPS2_
v2h:_InterpreterFactory__ctor_m3331468903
PGd:__ZN5physx16PxsBroadPhaseMBP9updatePPUEPNS_10PxBaseTaskE
G3g:_X501__cctor_m3795360380
UGb:__ZN13GfxDeviceGLES22DispatchComputeProgramE12ObjectHandleI18ComputeProgram_TagPvE15ComputeBufferIDj
nii:_GUIStyle_set_contentOffset_m2138084868
Ppg:_Convert_ToInt32_m2297793940
Msa:__Z17TransformAABBSlowRK4AABBRK10Matrix4x4fRS_
gtc:__ZN15SerializeTraitsI13dynamic_arrayI7Hash128Lj8EEE19ResizeSTLStyleArrayERS2_i18MemLabelIdentifier
eAj:__Z96RuntimeInvoker_Void_t1841601450_Vector2U5BU5DU26_t1595685398_Int32_t2071877448_Int32_t2071877448PK10MethodInfoPvPS2_
q_h:_X509Chain_Build_m1140429528
Wh:_ftruncate
pJf:_RSAPKCS1SignatureFormatter_SetKey_m2365816458
M8g:_Int16_GetHashCode_m304503362_AdjustorThunk
Phf:_cf2_stack_pushInt
yH:__ZN7mecanim9animation20DestroyLayerConstantEPNS0_13LayerConstantERNS_6memory9AllocatorE
GWf:_CompressedStack__ctor_m276924800
tFg:_ExecuteEvents_get_cancelHandler_m1964324668
PDm:b89
ODm:b88
Bqe:__ZN5physx6shdfnd8internal8HashBaseIjjNS0_4HashIjEENS1_11HashSetBaseIjS4_NS0_9AllocatorELb0EE6GetKeyES6_Lb0EE15reserveInternalEj
uCm:b81
tCm:b80
yCm:b83
rZb:__ZN18ResourceImageGroup7CleanupEv
IDm:b85
N2d:__ZN5physx2Gu36closestPtPointTetrahedronTesselationEPNS_6shdfnd3aos5Vec3VES4_S4_RjRS3_S6_
h9h:_RuntimeFieldHandle_t2331729674_marshal_pinvoke_back
JDm:b86
HOd:__ZN5physx25PxcPCMContactSphereConvexERKNS_2Gu13GeometryUnionES3_RKNS_11PxTransformES6_RKfRNS_10PxcNpCacheERNS0_13ContactBufferE
FYj:_ToggleGroup_RegisterToggle_m3118973598
Crh:_PrivateKeyInfo_Decode_m1053025782
e0h:_X509ChainElementCollection_System_Collections_ICollection_CopyTo_m1467895312
Y6e:__ZN5physx2Cm18DelegateFanoutTaskINS_2Sc5SceneEXadL_ZNS3_20particlePostShapeGenEPNS_10PxBaseTaskEEEED0Ev
LBa:__ZN15DirectorManager18FinishConstructionEP15ScriptingObjectR9HPlayable
CZl:__ZL87Animator_t69676727_CustomAttributesCacheGenerator_Animator_SetTriggerString_m2002790359P21CustomAttributesCache
VBa:__ZN8Playable19SetOutputConnectionEPS_i
Pn:_glDeleteShader
gV:__ZN11SoundHandle8Instance15UpdateLoadStateEv
OAg:_Exception_GetType_m3898489832
czc:__ZN6prcoreL17RemapGenericFloatI15TexFormatRGHalf16TexFormatRGFloatEEvPKNS_9InnerInfoE
sSh:_Stack_1_Peek_m1548778538_gshared
$$i:_Collection_1_System_Collections_IList_get_Item_m1995028750_gshared
aPk:_Vector4_Dot_m2285943745
Zua:__ZN19RuntimeSceneManager9LoadSceneERK8UnityStrS2_S2_RK9UnityGUIDiNS_11LoadingModeE
yGl:__ZL51HMACSHA1_t1958407246_CustomAttributesCacheGeneratorP21CustomAttributesCache
oMa:__Z27scripting_add_internal_callPKcPKv
F3f:_Array_InternalArray__Insert_TisUriScheme_t1876590943_m2728325409_gshared
P$l:__ZL72GUISkin_t1436893342_CustomAttributesCacheGenerator_m_verticalSliderThumbP21CustomAttributesCache
I1a:__Z17GetPlayerSettingsv
Vue:__ZL21ContactReductionAllInRN5physx2Gu13ContactBufferEjjRKNS_7PxMat33EPKNS_6PxVec3EPKh
Gvj:__Z65RuntimeInvoker_KeyValuePair_2_t38854645_Il2CppObject_Il2CppObjectPK10MethodInfoPvPS2_
kO:__ZN34BlobWriteTransferSTLStyleArrayImplI22OffsetPtrArrayTransferIiEEclERS1_17TransferMetaFlagsR9BlobWrite
ZHk:_X509Store_CheckStore_m1027496478
zxj:__Z87RuntimeInvoker_Int32_t2071877448_UIVertex_t1204258818_UIVertex_t1204258818_Il2CppObjectPK10MethodInfoPvPS2_
gNk:_Vector4__ctor_m1222289168
ROb:__ZNSt3__112basic_stringIcNS_11char_traitsIcEE13stl_allocatorIcL18MemLabelIdentifier66ELi16EEE6appendEPKc
jTk:_UnityEvent_1_FindMethod_Impl_m3743240374_gshared
j6l:__ZL62DropdownItem_t4139978805_CustomAttributesCacheGenerator_m_TextP21CustomAttributesCache
yvf:__Z44Register_UnityEngine_Canvas_get_pixelPerfectv
RDh:_Enumerator_MoveNext_m1706162224_gshared
t9k:_GC_alloc_large
HQf:_String_Contains_m4017059963
e7f:_Array_swap_TisCustomAttributeNamedArgument_t94157543_TisCustomAttributeNamedArgument_t94157543_m3600072996_gshared
YOj:_DefaultComparer_Compare_m1606207039_gshared
Xsf:__ZN2UI14CanvasRenderer12SyncMaterialENS0_8SyncFlagE
iWg:_U24ArrayTypeU241024_t2672183894_marshal_pinvoke_cleanup
OJd:__ZN5physx16PxsFluidDynamics5clearEv
Ssh:_CipherSuite_get_ExchangeAlgorithmType_m3219223789
mWc:__Z9UpdateTplIL22MinMaxGradientEvalMode1EEvRK23ParticleSystemParticlesP11ColorRGBA32RK14MinMaxGradientRK23OptimizedMinMaxGradient
Zdl:__ZN6il2cpp2vm9Parameter30GetDefaultParameterValueObjectEPK10MethodInfoPK13ParameterInfoPb
gpm:__ZNSt3__18time_getIcNS_19istreambuf_iteratorIcNS_11char_traitsIcEEEEED2Ev
t4f:_Array_InternalArray__set_Item_TisLabelData_t3712112744_m2253365137_gshared
qEi:_MonoCMethod_get_Attributes_m3914742834
jni:_MonoBehaviour_Invoke_m666563676
pyi:_ConstructorBuilder_get_DeclaringType_m4264602248
CS:__ZN12AudioManager13RegisterClassEv
v1e:__ZN5physx5cloth9ClothImplINS0_7SwClothEE9setPlanesENS0_5RangeIKNS_6PxVec4EEEjj
dhh:_StringReader__ctor_m643998729
bXh:_IPv6Address_TryParse_m2220524278
bBe:__ZN5physx19NpRigidBodyTemplateINS_18PxArticulationLinkEE16setRigidBodyFlagENS_15PxRigidBodyFlag4EnumEb
plk:_AnimationPlayable_t1693994278_marshal_pinvoke_back
zAc:__ZN14qsort_internal31_FindAndMovePivotToLastPositionIP17RODataReplacementi19ROSorterReplacementEEvT_S4_T0_T1_
KWl:__ZL86Time_t31991979_CustomAttributesCacheGenerator_Time_get_realtimeSinceStartup_m357614587P21CustomAttributesCache
w2e:__ZThn4_NK5physx5cloth9ClothImplINS0_7SwClothEE10getFactoryEv
oSb:__ZNSt3__16vectorIN20GpuProgramParameters16TextureParameterENS_9allocatorIS2_EEE21__push_back_slow_pathIKS2_EEvRT_
PUe:__ZN5physx18RepXPropertyFilterINS_2Sn17RepXVisitorWriterINS_21PxVehicleDriveDynDataEEEEclILj650ES3_jjEEvRKNS_14PxPropertyInfoIXT_ET0_T1_T2_EEj
jjf:_UNITY_tt_face_done_kern
q0j:_Context_get_DefaultContext_m2211922324
l_j:_MarshalDirectiveException__ctor_m1606841389
cA:__ZNSt3__17__sort3IR17DetailNodeXSorterP16DetailMeshBVNodeEEjT0_S5_S5_T_
GI:__ZN7mecanim9animation17SampleClipAtIndexERKNS0_12StreamedClipERNS0_18StreamedClipMemoryEif
Trh:_RSAManaged_GetPaddedValue_m2972141669
FUj:_ScrollRect_OnDrag_m1424848249
Wwh:_TlsServerCertificate_ProcessAsSsl3_m277089231
l_f:_Array_InternalArray__IEnumerable_GetEnumerator_TisUInt16_t986882611_m3665860884_gshared
GLa:__Z19scripting_gc_enablev
_Bf:__ZN20UnityWebRequestProtoI19TransportJavaScript16AtomicRefCounter14RedirectHelper14ResponseHelper15DownloadHandler13UploadHandler12HeaderHelper14AsyncOperationE9DoRequestEv
LQe:__ZN5physx7profile11EventBufferINS_24PxDefaultContextProviderENS_6shdfnd6MutexTINS0_26WrapperReflectionAllocatorIhEEEENS0_14ScopedLockImplIS7_EENS_24PxProfileNullEventFilterEE9stopEventEty
N0b:__ZNK15dense_hashtableINSt3__14pairIKNS0_12basic_stringIcNS0_11char_traitsIcEENS0_9allocatorIcEEEES7_EES7_11djb2_hash_tIS7_EN14dense_hash_mapIS7_S7_SB_NS0_8equal_toIS7_EE13stl_allocatorIS9_L18MemLabelIdentifier54ELi16EEE9SelectKeyESE_SH_E13find_positionERS8_
dAi:_GenericTypeParameterBuilder_GetMethodImpl_m528545634
pwf:__Z55Register_UnityEngine_CanvasRenderer_DisableRectClippingv
Z2h:_Interval_CompareTo_m2909556284_AdjustorThunk
oJb:_start_pass_huff_decoder
J2e:__ZThn4_NK5physx5cloth9ClothImplINS0_7SwClothEE13getLinearDragEv
Bvc:__ZN14SafeBinaryRead21TransferSTLStyleArrayI13dynamic_arrayI11ColorRGBA32Lj4EEEEvRT_17TransferMetaFlags
Hle:__ZN5physx5cloth4copyINS0_7SwClothES2_EEvRT_RKT0_
Yzj:__Z97RuntimeInvoker_Void_t1841601450_PlayableU5BU5DU26_t2309105347_Int32_t2071877448_Int32_t2071877448PK10MethodInfoPvPS2_
wUd:__ZN5physx22PxVehicleWheelsSimData25setMinLongSlipDenominatorEf
MRj:_Navigation_t1571958496_marshal_pinvoke
T1h:_Interpreter_GetLastDefined_m2450713313
Oba:__ZN6Object24SetCachedScriptingObjectEP15ScriptingObject
x6d:__ZN5physx2Gu33MultiplePersistentContactManifold34addManifoldContactsToContactBufferERNS0_13ContactBufferERKNS_6shdfnd3aos12PsTransformVES8_RKNS5_6FloatVE
nvc:__ZNSt3__16vectorI7SubMesh13stl_allocatorIS1_L18MemLabelIdentifier16ELi16EEE6assignINS_11__wrap_iterIPS1_EEEENS_9enable_ifIXaasr21__is_forward_iteratorIT_EE5valuesr16is_constructibleIS1_NS_15iterator_traitsISB_E9referenceEEE5valueEvE4typeESB_SB_
N8j:_Parser_ParseAssertionType_m3316669790
t7a:__ZN16ScriptingManager23ClassIDToScriptingClassEi
BVj:_Selectable_get_isPointerDown_m774209881
eY:__ZN10ObjectPoolIN4FMOD3DSPENS0_4DSPIEE5CheckEv
Fgc:__ZN18StreamedBinaryReadILb1EE21TransferSTLStyleArrayINSt3__16vectorIy13stl_allocatorIyL18MemLabelIdentifier1ELi16EEEEEEvRT_17TransferMetaFlags
LPb:__ZN9ShaderLab17ParserShaderStateC2ERKS0_
Eri:_Plane_get_distance_m1834776091_AdjustorThunk
R9a:__Z20GetPersistentManagerv
Wjf:_UNITY_TT_Set_Var_Design
p0j:_Context_Finalize_m1386439645
lAb:__ZN21SystemInfoStringCache16StaticInitializeEPv
ere:__ZN5physx2Sn17readAllPropertiesINS_16PxVehicleNoDriveEEEvNS_23PxRepXInstantiationArgsERNS_9XmlReaderEPT_RNS_18XmlMemoryAllocatorERNS_12PxCollectionE
w4f:_Array_InternalArray__set_Item_TisParameterModifier_t1820634920_m3126548327_gshared
Qie:__ZN5physx2Sc7BodySim18internalWakeUpBaseEf
X6k:__ZN6il2cpp2gc16GarbageCollector23MakeDescriptorForObjectEPji
TGi:_ParameterModifier_t1820634920_marshal_pinvoke
Z4a:__ZNK13MonoBehaviour7GetNameEv
Lxj:__Z104RuntimeInvoker_Int32_t2071877448_Il2CppObject_UICharInfo_t3056636800_Int32_t2071877448_Int32_t2071877448PK10MethodInfoPvPS2_
Bsl:__ZN13dynamic_arrayIP12Il2CppObjectLj4EE9push_backEv
Z6a:__ZN19ScriptingInvocation28AdjustArgumentsToMatchMethodEv
qs:__ZN12NavMeshAgent23VirtualRedirectTransferER17RemapPPtrTransfer
y_:__Z15_CheckFMODError11FMOD_RESULTPKciS1_
$Cg:_AbstractEventData_Use_m1797212290
Zwc:__ZNSt3__16vectorI17SubstanceEnumItemNS_9allocatorIS1_EEE6assignIPS1_EENS_9enable_ifIXaasr21__is_forward_iteratorIT_EE5valuesr16is_constructibleIS1_NS_15iterator_traitsIS8_E9referenceEEE5valueEvE4typeES8_S8_
guc:__ZNSt3__17__sort3IR25ValueParameterArraySorterPN20GpuProgramParameters14ValueParameterEEEjT0_S6_S6_T_
TPb:__ZNSt3__16vectorIPN9ShaderLab16ParserSubProgramENS_9allocatorIS3_EEE21__push_back_slow_pathIKS3_EEvRT_
rZl:__ZL95Animation_t2068071072_CustomAttributesCacheGenerator_Animation_PlayDefaultAnimation_m3276120146P21CustomAttributesCache
U0k:__ZN6il2cpp2vm4Type19GetGenericParameterEPK10Il2CppType
uGj:_InternalEnumerator_1__ctor_m439810834_AdjustorThunk
Rvf:__Z51Register_UnityEngine_CanvasGroup_get_blocksRaycastsv
pNj:_InternalEnumerator_1_get_Current_m2826780083_gshared
MCe:__ZN5physx20NpRigidActorTemplateINS_13PxRigidStaticEE15exportExtraDataERNS_22PxSerializationContextE
lGm:b119
JZi:_Collection_1_IsValidItem_m2164075061_gshared
vYf:_Array_InternalArray__ICollection_Remove_TisCustomAttributeNamedArgument_t94157543_m2838387005_gshared
z1d:__ZN5physx13BigConvexData5VLoadERNS_13PxInputStreamE
nKk:_TextGenerator__ctor_m11880227
Zsi:_RaycastHit2D_get_collider_m2568504212
COj:_InternalEnumerator_1__ctor_m2782443954_AdjustorThunk
Tvi:_Assembly_GetCustomAttributes_m95309865
cfi:_GUILayoutUtility_INTERNAL_CALL_Internal_GetWindowRect_m3236664463
L8:_jpeg_alloc_huff_table
ype:__ZN5physx11NodeManager6resizeEj
UZc:__ZN10Effector2D25CheckEffectorColliderMaskEP10Collider2DS1_
cqh:_RC4__ctor_m1585026462
Xkb:__ZN20LocalFileSystemPosix10ToAbsoluteEPKc
MPg:_GridLayoutGroup__ctor_m1099847132
cKj:_InternalEnumerator_1_get_Current_m2286118957_AdjustorThunk
d0f:_Array_InternalArray__IndexOf_TisX509ChainStatus_t4278378721_m1338369069_gshared
Vng:_Convert_ToBoolean_m48997236
Bgd:__ZNK5physx7NpScene28getSceneQueryStaticTimestampEv
Bo:f0
I3b:__ZN9BehaviourD0Ev
Ohg:_ArrayListWrapper_set_Capacity_m2792463350
PIb:_UNITY_png_do_expand
xe:_getcwd
MUf:_StringBuilder_Append_m1128243247
mad:__ZN5physx18NpArticulationLinkD0Ev
nAa:__ZN25ThreadsafeLinearAllocatorD2Ev
qHe:__ZN5physx2Sq10AABBPruner11preallocateEj
kgi:_GUISkin_get_settings_m626844463
rfm:__ZNSt3__112__hash_tableINS_17__hash_value_typeINS_4pairIPKcS4_EEiEENS_22__unordered_map_hasherIS5_S6_24NamespaceAndNamePairHashLb1EEENS_21__unordered_map_equalIS5_S6_26NamespaceAndNamePairEqualsLb1EEENS_9allocatorIS6_EEE16__construct_nodeIJNS2_IS5_iEEEEENS_10unique_ptrINS_11__hash_nodeIS6_PvEENS_22__hash_node_destructorINSD_ISL_EEEEEEDpOT_
WGa:__ZN21BillboardBatchManager16StaticInitializeEPv
tgi:_Object_get_name_m2079638459
V4c:__ZN15dense_hashtableINSt3__14pairIKNS1_IPK10Collider2DS4_EE11Collision2DEES5_NS2_23ColliderPairHashFunctorEN14dense_hash_mapIS5_S7_S9_NS0_8equal_toIS5_EE13stl_allocatorIS8_L18MemLabelIdentifier65ELi16EEE9SelectKeyESC_SF_E12expand_arrayEjN21dense_hash_map_traits17integral_constantIbLb0EEE
n5:__ZNSt3__115basic_stringbufIcNS_11char_traitsIcEENS_9allocatorIcEEE7seekposENS_4fposI11__mbstate_tEEj
Kcm:__ZL64SmoothFollow_t2548964113_CustomAttributesCacheGenerator_distanceP21CustomAttributesCache
Qre:__Z41getPxVehicleDifferential4WDataMCentreBiasPKN5physx27PxVehicleDifferential4WDataE
FAg:_EventHandler_Invoke_m1137722757
Hud:__ZN5physx2Sc19ShapeInstancePairLLC2ERNS0_8ShapeSimES3_RNS0_9ActorPairENS_7PxFlagsINS_10PxPairFlag4EnumEtEE
Bkh:_MonoType_IsSubclassOf_m2211166238
n$:__ZL16FMOD_ErrorString11FMOD_RESULT884
hY:__ZN10ObjectPoolIN4FMOD6ReverbENS0_7ReverbIEE8ValidateEPS1_
gXi:_Collection_1_System_Collections_ICollection_CopyTo_m2859266050_gshared
Yua:__ZN19RuntimeSceneManagerC2Ev
rTd:__ZN5physx23PxVehicleWheels4SimData12setWheelDataEjRKNS_18PxVehicleWheelDataE
aJ:__ZN7mecanim14ValueArrayCopyEPKNS_10ValueArrayEPS0_PKNS_14ValueArrayMaskE
GP:__ZN15dense_hashtableINSt3__14pairIK7CurveIDjEES2_10hash_curveN14dense_hash_mapIS2_jS5_NS0_8equal_toIS2_EE13stl_allocatorIS4_L18MemLabelIdentifier1ELi16EEE9SelectKeyES8_SB_E9copy_fromERKSE_j
hy:__ZNSt3__16__treeINS_12__value_typeIiN15HeightMeshQuery10HeightDataEEENS_19__map_value_compareIiS4_NS_4lessIiEELb1EEENS_9allocatorIS4_EEE7destroyEPNS_11__tree_nodeIS4_PvEE
Mhg:_ArrayListWrapper_get_Count_m2207944952
f0h:_X509ChainElementCollection_System_Collections_IEnumerable_GetEnumerator_m2559704689
nKb:__ZN11AssetBundle8TransferI19StreamedBinaryWriteILb0EEEEvRT_
f6l:__ZL59Dropdown_t1985816271_CustomAttributesCacheGenerator_m_ValueP21CustomAttributesCache
z2h:_InterpreterFactory_set_Gap_m2761943153
xZh:_PublicKey_get_Key_m126090744
NQb:__ZNSt3__16vectorI7SubMesh13stl_allocatorIS1_L18MemLabelIdentifier16ELi16EEE21__push_back_slow_pathIKS1_EEvRT_
l0h:_X509ChainPolicy_Reset_m430244129
aih:_UnexceptionalStreamReader_Peek_m1725179274
ygb:__ZN17ArchiveFileSystem10AddStorageEP20ArchiveStorageReader
hBe:__ZN5physx19NpRigidBodyTemplateINS_18PxArticulationLinkEE27setMaxDepenetrationVelocityEf
MKa:__ZN9Scripting30IsSystemCollectionsGenericListEP14ScriptingClass
dAd:__ZN5physx2Sc9ClothCore16setStretchConfigENS_22PxClothFabricPhaseType4EnumERKNS_20PxClothStretchConfigE
Cgk:_Color_Equals_m661618137
AUc:__ZN9SubModule8TransferI19StreamedBinaryWriteILb0EEEEvRT_
Mnl:__ZN21InterfaceFuncInvoker1Ib22UILineInfo_t3621277874E6InvokeEjP11Il2CppClassPvS0_
WKd:__ZN5physx15PxsParticleData13onOriginShiftERKNS_6PxVec3E
Y0c:__ZNK12b2MotorJoint16GetReactionForceEf
HYk:__ZN6il2cpp2vm13MetadataCache37GetParameterDefaultValueDataFromIndexEi
BJd:__ZN5physx23collideWithConvexPlanesERNS_19PxsParticleCollDataEPKNS_7PxPlaneEjf
ZWf:_Array_InternalArray__ICollection_Contains_TisClientCertificateType_t4001384466_m516486384_gshared
lSi:_EqualityComparer_1_System_Collections_IEqualityComparer_GetHashCode_m1203798961_gshared
FFc:_decode_mcu_DC_refine
PWk:__ZN6il2cpp2vm5Class15GetEnumBaseTypeEP11Il2CppClass
Sch:_DirectoryNotFoundException__ctor_m3713860966
qPc:__ZN22ParticleSystemRenderer15UpdateLocalAABBEv
fri:_Physics_Raycast_m2009151399
v0:__ZNK8WWWAudio14GetPartialSizeEv
ASl:__ZL95AsyncOperation_t3814632279_CustomAttributesCacheGenerator_AsyncOperation_get_isDone_m1085614149P21CustomAttributesCache
XGj:_InternalEnumerator_1__ctor_m245588437_gshared
vnl:__ZL24il2cpp_codegen_no_returnv18957
c1h:_Capture_get_Text_m3472127896
ZVg:_Mask_get_rectTransform_m3304369086
xpa:__Z24RegisterClass_GUIElementv
mLk:_TooltipAttribute__ctor_m2640804852
iLb:__ZN14SafeBinaryRead21TransferSTLStyleArrayI13dynamic_arrayINSt3__14pairIi12ImmediatePtrIN5Unity9ComponentEEEELj4EEEEvRT_17TransferMetaFlags
cxe:__ZN13dynamic_arrayItLj2EE6insertEPtPKtS3_
Omj:__Z35RuntimeInvoker_Category_t1984577050PK10MethodInfoPvPS2_
eRi:_DefaultComparer_GetHashCode_m4073394827_gshared
WVe:__ZN5physx18RepXPropertyFilterINS_2Sn17RepXVisitorReaderINS_21PxVehicleDriveDynDataEEEEclILj639ES3_KbbEEvRKNS_14PxPropertyInfoIXT_ET0_T1_T2_EEj
wIa:__ZN9GfxDevice22GetDefaultVertexBufferE26GfxDefaultVertexBufferTypej
Rnj:__Z84RuntimeInvoker_Void_t1841601450_Il2CppObject_Int32_t2071877448_Vector3U26_t425862308PK10MethodInfoPvPS2_
X3i:_ReadOnlyCollection_1_System_Collections_ICollection_CopyTo_m1129689124_gshared
c9l:__ZL59Slider_t297367283_CustomAttributesCacheGenerator_m_FillRectP21CustomAttributesCache
HPl:__ZL78Cursor_t873194084_CustomAttributesCacheGenerator_Cursor_set_visible_m860533511P21CustomAttributesCache
O_i:_Collection_1_Contains_m1999290510_gshared
m5c:__ZN5physx3Cct17CapsuleControllerC2ERKNS_16PxControllerDescERNS_9PxPhysicsEPNS_7PxSceneE
vna:__ZN29RenderNodeQueuePrepareContextD2Ev
Whk:_ControllerColliderHit_get_moveDirection_m3053186297
aOk:_Vector3__ctor_m2638739322_AdjustorThunk
nXf:_Array_InternalArray__ICollection_Contains_TisInt16_t4041245914_m698926112_gshared
xAj:__Z55RuntimeInvoker_LabelFixup_t4090909514_Int32_t2071877448PK10MethodInfoPvPS2_
$G:__ZN7mecanim9animation18CreateAvatarMemoryEPKNS0_14AvatarConstantERNS_6memory9AllocatorE
bA:__ZNSt3__127__insertion_sort_incompleteIR17DetailNodeYSorterP16DetailMeshBVNodeEEbT0_S5_T_
VIi:_Enumerator_VerifyCurrent_m4246196125_AdjustorThunk
MPi:_Dictionary_2_pick_value_m3484897877_gshared
HPa:__Z29RegisterClass_QualitySettingsv
fug:_DateTime_op_Equality_m1867073872
$J:__ZN7mecanim8skeleton16SkeletonPoseCopyIN4math4trsXENS2_7affineXEEEvPKNS0_13SkeletonPoseTIT_EEPNS5_IT0_EE
rRd:__ZN5physx2Sq16BucketPrunerCore11shiftOriginERKNS_6PxVec3E
IDb:__ZN18GfxFramebufferGLES18GetFramebufferNameERK20GfxRenderTargetSetup
rbl:_GC_print_block_list
iTe:__ZN5physx18RepXPropertyFilterINS_2Sn17RepXVisitorReaderINS_22PxVehicleWheelsSimDataEEEEclILj619ES3_RKNS_27PxVehicleTireLoadFilterDataES7_EEvRKNS_14PxPropertyInfoIXT_ET0_T1_T2_EEj
Olk:_CustomAnimationPlayable_OnSetPlayState_m1903832042
ijl:__ZN23InterfaceActionInvoker1IP25AxisEventData_t1524870173E6InvokeEjP11Il2CppClassPvS1_
Y3k:__ZN6il2cpp6icalls8mscorlib6System2IO6MonoIO11GetFileTypeE12Il2CppIntPtrPi
XAh:_InternalAsyncResult_get_AsyncState_m42006015
lxf:__ZN2UIL17UnloadAllCanvasesEv
nue:__ZN5physx6shdfnd5ArrayINS_12PxDebugPointENS0_19ReflectionAllocatorIS2_EEE15growAndPushBackERKS2_
mBm:_glGetFramebufferAttachmentParameteriv__wrapper
eqm:__ZNKSt3__18time_putIcNS_19ostreambuf_iteratorIcNS_11char_traitsIcEEEEE6do_putES4_RNS_8ios_baseEcPK2tmcc
seg:_Byte_System_IConvertible_ToBoolean_m2812478835_AdjustorThunk
kNf:_SecurityElement_GetAttribute_m4288291176
INj:_InternalEnumerator_1_System_Collections_IEnumerator_get_Current_m2389982234_gshared
W8d:__ZN8Collider13AwakeFromLoadE17AwakeFromLoadMode
pic:__Z16Transfer_BuiltinIj14SafeBinaryReadLb1EEvRK29SerializationCommandArgumentsR31RuntimeSerializationCommandInfo
f9a:__ZN14SafeBinaryRead20TransferTypelessDataEjPvi
RCl:__ZL66StringFreezingAttribute_t2691375565_CustomAttributesCacheGeneratorP21CustomAttributesCache
cAm:b34
RNh:_List_1_AddCollection_m3284813601_gshared
EVg:_LayoutRebuilder_U3CRebuildU3Em__8_m259142987
rqf:_Horizontal_Sweep_Init
cpj:__Z69RuntimeInvoker_Single_t2076509932_Int32_t2071877448_Int32_t2071877448PK10MethodInfoPvPS2_
LZa:__Z19GetActiveColorSpacev
jUc:__ZN17SizeBySpeedModule8TransferI18StreamedBinaryReadILb0EEEEvRT_
zSi:_EqualityComparer_1__cctor_m1672307556_gshared
V3h:_SoapTypeAttribute_get_IsInteropXmlElement_m2941294827
X7f:_Dictionary_2_Do_CopyTo_TisKeyValuePair_2_t38854645_TisIl2CppObject_m591971964_gshared
bGa:__ZN14SpriteRenderer18UpdateCachedSpriteEv
DEh:_Enumerator_System_Collections_IEnumerator_get_Current_m3542273247_gshared
B1a:__Z32AddPathRemapsForBuiltinResourcesRKNSt3__112basic_stringIcNS_11char_traitsIcEENS_9allocatorIcEEEE
$Tf:_Encoding_get_UTF8Unmarked_m628720656
bmh:_NumberFormatter_RoundBits_m1545255255
Nnb:__Z6StrCmpPKcS0_
TK:__Z49Animator_Get_Custom_PropRuntimeAnimatorControllerP15ScriptingObject
mMj:_InternalEnumerator_1_MoveNext_m2906956792_gshared
aKa:__Z21CheckGpuProgramUsable20ShaderGpuProgramType
ixj:__Z55RuntimeInvoker_Boolean_t3825574718_Keyframe_t1449471340PK10MethodInfoPvPS2_
Owi:_Binder__cctor_m3736115807
Qpa:__ZN13BatchRenderer5FlushEv
okm:__ZNKSt8bad_cast4whatEv
V9d:__ZN5Unity5Joint7SetAxisERK8Vector3f
Ncg:_Attribute_GetHashCode_m2653962112
Udf:__ZN20TextRenderingPrivate19NativeTextGenerator5SetupEv
b2j:_AsyncResult_GetReplyMessage_m262842621
Goa:__ZNK15SharedLightData24GetFinalShadowResolutionEv
Drm:__ZNKSt3__18messagesIcE7do_openERKNS_12basic_stringIcNS_11char_traitsIcEENS_9allocatorIcEEEERKNS_6localeE
TCh:_Enumerator__ctor_m3021143890_AdjustorThunk
Cge:__ZN5physx6shdfnd8PoolBaseINS_16NpConnectorArrayENS0_19ReflectionAllocatorIS2_EEE15disposeElementsEv
nrc:__ZN12AspectRatios8TransferI18StreamedBinaryReadILb0EEEEvRT_
bbe:__ZN14PhysicsManager19CreatePvdConnectionEv
Qyl:__ZL66X509ExtensionCollection_t1640144839_CustomAttributesCacheGeneratorP21CustomAttributesCache
fea:__ZN10GameObject14CopyPropertiesERS_
cLc:__Z44Register_UnityEngine_GUIStyle_get_fixedWidthv
KIf:_RSACryptoServiceProvider_Common_m2581564813
W8a:__ZN14SafeBinaryRead4InitERK16TypeTreeIteratorii24TransferInstructionFlags18MemLabelIdentifier
FAf:__ZN11UnityEngine7Connect15DeviceInfoEvent17SetAppInstallModeERK8UnityStr
w7b:__ZNK13ScreenManager12IsFullScreenEv
tlm:_rand
QBm:_emscripten_glFramebufferRenderbuffer__wrapper
kJe:__ZNK8Collider16SupportsMaterialEv
sGj:_InternalEnumerator_1_get_Current_m2345377791_AdjustorThunk
cbd:__ZNK5physx12NpConstraint9getActorsERPNS_12PxRigidActorES3_
vC:__ZN11UnityEngine9Animation33SetGenericTransformPropertyValuesERKNS0_30AnimatorGenericBindingConstantERKN7mecanim10ValueArrayEP9Transform
E7i:_ReadOnlyCollection_1_GetEnumerator_m2481390116_gshared
J8h:_SerializationInfo_GetInt32_m4039439501
Lsb:__Z60Register_UnityEngine_AsyncOperation_set_allowSceneActivationv
xZe:__ZN5physx6shdfnd8PoolBaseIN17PxcPoolMallocData10PoolData16ENS0_19ReflectionAllocatorIS3_EEE15disposeElementsEv
Mce:__ZN9Rigidbody23UpdateInterpolationNodeEv
k0k:__ZN6il2cpp2os4File10DeleteFileERKNSt3__112basic_stringIcNS2_11char_traitsIcEENS2_9allocatorIcEEEEPi
hta:__Z22PrepareOptimizedPlanesPK5PlaneiPKN4math7_float4E
uCj:__Z47RuntimeInvoker_Vector3_t2243707580_Il2CppObjectPK10MethodInfoPvPS2_
C2d:__ZN5physx2Gu3EPA16addInitialFacet5Ev
COg:_Graphic_SetVerticesDirty_m1607014370
A9d:__ZN8Collider8TransferI13ProxyTransferEEvRT_
Enb:__ZN17UniqueIDGenerator15CreatePureIndexEv
Bqh:_MD2__ctor_m3133818738
xC:__ZN11UnityEngine9Animation28GenericAnimationBindingCache15DidReloadDomainEv
x5g:_AppDomain_InternalGetProcessGuid_m1278588156
yTg:_InputField_MoveRight_m386206014
nmi:_Matrix4x4_Equals_m1321236479
ZPa:__Z48InitializeRectTransformAnimationBindingInterfacev
Ped:__ZN5physx7NpScene8addActorERNS_7PxActorE
uYf:_Array_InternalArray__ICollection_Remove_TisIl2CppObject_m2425110446_gshared
PTj:_ScrollRect_set_inertia_m2575649134
CDc:__ZNSt3__16vectorI4PPtrI23ShaderVariantCollectionE13stl_allocatorIS3_L18MemLabelIdentifier52ELi16EEE6assignINS_11__wrap_iterIPS3_EEEENS_9enable_ifIXaasr21__is_forward_iteratorIT_EE5valuesr16is_constructibleIS3_NS_15iterator_traitsISD_E9referenceEEE5valueEvE4typeESD_SD_
kch:_BinaryReader_ReadBoolean_m2892291883
g1c:__ZNK12b2MouseJoint17GetReactionTorqueEf
H1k:__ZN6il2cpp6icalls8mscorlib6System9Threading6Thread22CurrentThread_internalEv
xxc:__ZN6prcoreL29inner_stretch_rgb565_bilinearEPKNS_9InnerInfoE
Mlj:__Z91RuntimeInvoker_Boolean_t3825574718_Il2CppObject_Il2CppObject_Il2CppObject_Int32_t2071877448PK10MethodInfoPvPS2_
mMc:__Z14GUIClipTextureP9Texture2DPhiiii
Fqj:__Z67RuntimeInvoker_Void_t1841601450_GenericMixerPlayableU26_t1620735334PK10MethodInfoPvPS2_
eGl:__ZL73AsymmetricSignatureDeformatter_t3580832979_CustomAttributesCacheGeneratorP21CustomAttributesCache
Dvj:__Z95RuntimeInvoker_Void_t1841601450_ObjectU5BU5DU26_t3223402458_Int32_t2071877448_Int32_t2071877448PK10MethodInfoPvPS2_
Zwh:_TlsServerCertificate_validateCertificates_m1988583701
rjj:__Z52RuntimeInvoker_DateTime_t693205669_Int16_t4041245914PK10MethodInfoPvPS2_
d9j:_Uri__ctor_m3927533881
gyl:__ZL61DllImportAttribute_t3000813225_CustomAttributesCacheGeneratorP21CustomAttributesCache
FVg:_LayoutRebuilder_U3CRebuildU3Em__9_m2892665286
upc:__Z16Transfer_BuiltinI4AABB19StreamedBinaryWriteILb0EELb1EEvRK29SerializationCommandArgumentsR31RuntimeSerializationCommandInfo
Ari:_Physics2D_INTERNAL_CALL_GetRayIntersectionAll_m161475998
ZWa:__ZNK9Transform18TransformDirectionERK8Vector3f
cGd:__ZN5physx21PxsBodyTransformVault6updateEv
b$e:__ZN21PxsCreateFinalizeTask11runInternalEv
hhb:__ZNK17ArchiveFileSystem12GetAssetGUIDERK13FileEntryData
eAe:__ZThn12_N5physx3Ext5JointINS_15PxDistanceJointENS_30PxDistanceJointGeneratedValuesEE19onConstraintReleaseEv
gHm:_emscripten_glClearStencil__wrapper
kIe:__ZL29GeomMTDCallback_CapsuleConvexRN5physx6PxVec3ERfRKNS_10PxGeometryERKNS_11PxTransformES5_S8_
e$j:_ChannelInfo_get_ChannelData_m2401378984
RSi:_EqualityComparer_1_get_Default_m1852501307_gshared
rnj:__Z94RuntimeInvoker_Void_t1841601450_Il2CppObject_ByteU5BU5DU26_t790777611_ByteU5BU5DU26_t790777611PK10MethodInfoPvPS2_
WSe:__ZN5physx2Sn21RepXVisitorReaderBaseINS_22PxVehicleWheelsDynDataEE8pushNameEPKc
ykm:__ZNK10__cxxabiv120__si_class_type_info27has_unambiguous_public_baseEPNS_19__dynamic_cast_infoEPvi
P6g:_NumberFormatInfo_get_PercentNegativePattern_m1162448153
yzl:__ZL56SyncHashtable_t1343674558_CustomAttributesCacheGeneratorP21CustomAttributesCache
dkb:__ZN24RingBufferMemoryFileData9SetLengthEy
tzm:_glTexSubImage3D__wrapper
o1h:_FactoryCache_Add_m2602974721
n0a:__Z21WriteImageAsyncThreadPv
GGc:__ZL16GetInterfaceImpl18UnityInterfaceGUID
J_a:__Z15AngularDistanceRK11QuaternionfS1_
JRl:__ZL105RectTransform_t3349966182_CustomAttributesCacheGenerator_RectTransform_INTERNAL_get_anchorMin_m3180545469P21CustomAttributesCache
nHh:_List_1_System_Collections_IList_get_Item_m936612973_gshared
wzb:__ZN13EmscriptenWWW7GetSizeEv
B8k:__ZN6il2cpp6icalls8mscorlib6System15MonoCustomAttrs27GetCustomAttributesInternalEP12Il2CppObjectP20Il2CppReflectionTypeb
Ujf:_UNITY_TT_Set_MM_Blend
l7h:_ObjectReader_ReadAssembly_m869834280
wye:__ZNK5physx3Cct13BoxController11getPositionEv
W5a:__ZN14PreloadManager35WaitForAllAsyncOperationsToCompleteEv
zdd:__ZN5physx14NpRigidDynamicC2ERKNS_11PxTransformE
Y6i:_ReadOnlyCollection_1_System_Collections_IList_get_Item_m1831743662_gshared
tzi:_EnumBuilder_GetPropertyImpl_m2717304076
t_d:__Z27sweepCCTBox_HeightFieldGeomRKN5physx10PxGeometryERKNS_11PxTransformERKNS_2Gu3BoxERKNS_6PxVec3EfRNS_10PxSweepHitENS_7PxFlagsINS_9PxHitFlag4EnumEtEEf
eFg:_ExecuteEvents_Execute_m1617536317
yXj:_Text_get_cachedTextGeneratorForLayout_m1357670532
z$:__ZL31InitializeAudioScriptingClassesv
ONb:__Z14SortGUIByDepthP10GUIElementS0_
d9g:_NumberFormatter_NumberToString_m126384393
mWd:__Z37getPxVehicleDriveDynData_UseAutoGearsPKN5physx21PxVehicleDriveDynDataE
rDm:_emscripten_glVertexAttrib4fv__wrapper
hhl:__ZN16VirtFuncInvoker7IiP8String_tiiS1_iiiE6InvokeEjPvS1_iiS1_iii
S2j:_LogicalCallContext__ctor_m3173272863
bLb:__ZNSt3__16__treeINS_12__value_typeINS_12basic_stringIcNS_11char_traitsIcEENS_9allocatorIcEEEEiEENS_19__map_value_compareIS7_S8_NS_4lessIS7_EELb1EEENS5_IS8_EEE7destroyEPNS_11__tree_nodeIS8_PvEE
Fuj:__Z68RuntimeInvoker_Void_t1841601450_Single_t2076509932_Int32_t2071877448PK10MethodInfoPvPS2_
FPb:__ZNSt3__16__treeINS_12__value_typeIiiEENS_19__map_value_compareIiS2_NS_4lessIiEELb1EEENS_9allocatorIS2_EEE12__find_equalIS2_EERPNS_16__tree_node_baseIPvEENS_21__tree_const_iteratorIS2_PNS_11__tree_nodeIS2_SC_EEiEESF_RKT_
M5c:__ZN5physx3Cct9SweepTest18updateTouchedGeomsEPKNS0_30InternalCBData_FindTouchedGeomERKNS0_13UserObstaclesERKNS_17PxExtendedBounds3ERKNS_19PxControllerFiltersERKNS_6PxVec3E
ojh:_MonoCustomAttrs__cctor_m2608447972
W9g:_Int32_FindSign_m3803672540
j4:__ZN11UnityEngine15CloudWebService14JsonBaseObject11AddKeyValueIyEEbPKcT_
nRk:_Predicate_1__ctor_m2995226103_gshared
eth:_CipherSuite_InitializeCipher_m229247572
KRc:__ZN11ForceModule25CalculateProceduralBoundsER10MinMaxAABBRK10Matrix4x4ff
mJa:__ZNK9GfxDevice14GetWorldMatrixEv
sCd:__ZN5physx5cloth11SwCollisionI8Scalar4fE15collideConvexesERKNS0_14IterationStateIS2_EE
iGi:_MonoProperty_GetGetMethod_m1100580870
mPi:_Dictionary_2__ctor_m1950568359_gshared
gJi:_Enumerator_System_Collections_IDictionaryEnumerator_get_Key_m1214978221_AdjustorThunk
qV:__ZN11SoundHandle13CreateChannelEb
wtc:__ZN14SafeBinaryRead21TransferSTLStyleArrayI13dynamic_arrayI12LightmapDataLj4EEEEvRT_17TransferMetaFlags
R5g:_ArgumentException__ctor_m3312963299
C9b:__ZN21AssetBundleFileSystem11CreateAsDirER13FileEntryData
Z5i:_ReadOnlyCollection_1_get_Item_m1696267180_gshared
Ebm:__ZL87VirtualAxis_t2691167515_CustomAttributesCacheGenerator_VirtualAxis_get_name_m3494760485P21CustomAttributesCache
rqb:__Z51Quaternion_CUSTOM_INTERNAL_CALL_Internal_ToEulerRadRK11QuaternionfR8Vector3f
BDf:__ZNK22DownloadHandlerTexture11GetProgressEv
u$l:__ZL124GUILayoutUtility_t996096873_CustomAttributesCacheGenerator_GUILayoutUtility_INTERNAL_CALL_Internal_GetWindowRect_m3236664463P21CustomAttributesCache
b6j:_QuickSearch_GetShiftDistance_m2364008966
MCh:_Enumerator_System_Collections_IEnumerator_get_Current_m2853089017_AdjustorThunk
e2c:__ZN12b2WheelJoint24SolvePositionConstraintsERK12b2SolverData
Ryd:__ZNK5physx2Sc9ClothCore20getNbCollisionPlanesEv
ai:_emscripten_exit_fullscreen
P8e:__ZN5physx6shdfnd5ArrayINS_9PxBounds3ENS0_15InlineAllocatorILj192ENS0_19ReflectionAllocatorIS2_EEEEE8recreateEj
QGe:__ZNK5physx23PxsBroadPhaseContextSap7getTypeEv
F$d:__ZNK5physx13GuMeshFactory17getNbHeightFieldsEv
GRg:_InputField_get_mesh_m3276583786
z2g:_ContentInfo_set_Content_m899108905
VZj:_GCHandle_Free_m1639542352_AdjustorThunk
lHc:__ZN13RuntimeStaticI18AssetBundleManagerE7DestroyEv
Ivh:_Context_set_ClientRandom_m631392719
m7k:__ZN6il2cpp6icalls8mscorlib6System6String19InternalAllocateStrEi
BWc:__Z9UpdateTplIL27ParticleSystemCurveEvalMode3EEvRK11MinMaxCurveR23ParticleSystemParticlesjjPK8Vector3f
TEl:__ZL65SoapParameterAttribute_t2780084514_CustomAttributesCacheGeneratorP21CustomAttributesCache
pZe:__ZNK5physx2Gu12OBBAABBTestsILb1EEclENS_6shdfnd3aos5Vec3VES5_
Dpj:__Z47RuntimeInvoker_Vector4_t2243707581_Il2CppObjectPK10MethodInfoPvPS2_
jga:__ZN12BaseRenderer25FlattenSharedMaterialDataILb0EEEbRS_R22PerThreadPageAllocatorRN15RenderNodeQueue4NodeE
Zia:__Z15GetFlareManagerv
E5c:__ZN5physx3Cct9SweepTestD2Ev
isa:__ZN9Behaviour8TransferI18StreamedBinaryReadILb0EEEEvRT_
V4j:_Enumerator_System_Collections_IEnumerator_get_Current_m1429268283
vLd:__ZNK5physx20PxsParticleSystemSim19getSimParticleDataVERNS_28PxvParticleSystemSimDataDescEb
hMe:__ZN26IntersectAnyVsMeshCallbackILi0ELb0EED2Ev
ulm:___toread
p1:__ZN19CloudServiceHandler10QueueEventEPN11UnityEngine15CloudWebService14CloudEventInfoE
Ook:_EnemyController_Start_m2470974037
JRg:_InputField_get_shouldHideMobileInput_m3694613599
uHb:__ZN4gles20DestroyRenderSurfaceEP7ApiGLESP17RenderSurfaceGLES
LCh:_Enumerator_System_Collections_IEnumerator_get_Current_m2853089017_gshared
ofa:__ZN17MessageIdentifier13StaticDestroyEPv
LOe:__ZN12_GLOBAL__N_141SphereMeshContactGenerationCallback_ScaleD0Ev
Mrj:__Z69RuntimeInvoker_Boolean_t3825574718_TextGenerationSettings_t2543476768PK10MethodInfoPvPS2_
$ye:__ZN5physx3Cct17CapsuleController16setContactOffsetEf
UEh:_Enumerator_get_Current_m827571811_AdjustorThunk
cuc:__ZN15dense_hashtableINSt3__14pairIK9TextureIDiEES2_N12TextureIdMap20TextureIDHashFunctorEN14dense_hash_mapIS2_iS6_NS0_8equal_toIS2_EE13stl_allocatorIS4_L18MemLabelIdentifier65ELi16EEE9SelectKeyES9_SC_E9copy_fromERKSF_j
cab:__ZN17PersistentManager40GlobalToLocalSerializedFileIndexInternalERK26SerializedObjectIdentifier
jDg:_BaseEventData_get_selectedObject_m3551206992
IYg:_SimpleCollator_CompareOrdinal_m2176988387
YQl:__ZL47Rect_t3681755626_CustomAttributesCacheGeneratorP21CustomAttributesCache
sBg:_CCGregorianCalendar_GetYear_m1289900195
See:__Z62Register_UnityEngine_CharacterController_INTERNAL_get_velocityv
G8e:__ZN12GeomQueryAnyIN5physx10PxSweepHitEE7geomHitERKNS0_2Sq17SceneQueryManagerERKNS0_15MultiQueryInputERKNS3_9ShapeDataERKNS0_10PxGeometryERKNS0_11PxTransformENS0_7PxFlagsINS0_9PxHitFlag4EnumEtEEjPS1_fbPNS0_9PxBounds3E
a9g:_Int16_ToString_m2592645088
oCb:__ZN13TranslateGLES4InitERK12GraphicsCaps16GfxDeviceLevelGL
ROe:__ZN43CapsuleHeightfieldContactGenerationCallback7onEventEjPj
Fae:__ZThn4_N12MemoryStream4readEPvj
O8h:_SerializationInfoEnumerator_Reset_m2206466680
Hyj:__Z48RuntimeInvoker_Void_t1841601450_Slot_t2267560602PK10MethodInfoPvPS2_
OBm:_emscripten_glGetShaderPrecisionFormat__wrapper
h$l:__ZL78Event_t3028476042_CustomAttributesCacheGenerator_Event_get_keyCode_m3364681288P21CustomAttributesCache
Jzl:__ZL57DebuggingModes_t2073970606_CustomAttributesCacheGeneratorP21CustomAttributesCache
wkl:__ZN16VirtFuncInvoker0IP12MethodInfo_tE6InvokeEjPv
Zjb:__ZN24RingBufferMemoryFileDataD0Ev
HYi:_Collection_1_System_Collections_IList_get_IsFixedSize_m993584401_gshared
V6l:__ZL79GraphicRaycaster_t410733016_CustomAttributesCacheGenerator_U3CU3Ef__amU24cache6P21CustomAttributesCache
lhe:__ZN5physx6shdfnd8internal8HashBaseIPNS_13NpVolumeCacheES4_NS0_4HashIS4_EENS1_11HashSetBaseIS4_S6_NS0_9AllocatorELb0EE6GetKeyES8_Lb0EE15reserveInternalEj
tnj:__Z84RuntimeInvoker_Il2CppObject_Il2CppObject_Il2CppObject_Il2CppObject_Int32_t2071877448PK10MethodInfoPvPS2_
yel:__ZN6il2cpp2os6Memory12AlignedAllocEjj
ehe:__ZN5physx6shdfnd8internal8HashBaseIPKNS_6PxBaseES5_NS0_4HashIS5_EENS1_11HashSetBaseIS5_S7_NS0_9AllocatorELb0EE6GetKeyES9_Lb0EE6createERKS5_Rb
qfc:__ZNSt3__16vectorI17AnimationCurveTplIfE13stl_allocatorIS2_L18MemLabelIdentifier1ELi16EEE8__appendEj
hNd:__ZN5physx28solveFrictionCoulombPreBlockEPKNS_23PxcSolverConstraintDescEjRNS_16PxcSolverContextE
n7f:_Array_swap_TisPlayable_t3667545548_m817366036_gshared
dyi:_TypeBuilder_get_is_created_m736553860
Tnk:_GameObject_set_layer_m2712461877
Agk:_Color_op_Implicit_m1067945802
Lrh:_RSAManaged__ctor_m1370411656
pYb:__ZL27GetComponentsImplementationILb0ELi0EEbR10GameObjectbRK17CompareParametersRK39GetComponentsImplementation_ReturnValue
R2c:__ZL30RegisterModuleICalls_Physics2Dv
pEm:_emscripten_glGetActiveAttrib__wrapper
Hgc:__ZNSt3__16vectorIy13stl_allocatorIyL18MemLabelIdentifier1ELi16EEE6assignINS_11__wrap_iterIPyEEEENS_9enable_ifIXaasr21__is_forward_iteratorIT_EE5valuesr16is_constructibleIyNS_15iterator_traitsISA_E9referenceEEE5valueEvE4typeESA_SA_
o7j:_BalancingGroup__ctor_m2474435406
rbd:__ZN5physx12NpConstraint12actorDeletedEPNS_12PxRigidActorE
mrb:__Z38RectTransform_CUSTOM_INTERNAL_get_rectP15ScriptingObjectR5RectTIfE
V_b:__ZL16ReadTypeTreeImplILb0EEbR8TypeTreeRK16TypeTreeIteratorRPKhS6_i
w4e:__ZN5physx5cloth17UnalignedIteratorI8Scalar4fLj3EEppEv
nol:__ZN18VirtActionInvoker1IfE6InvokeEjPvf
g2l:__ZL115UnityWebRequest_t254341728_CustomAttributesCacheGenerator_UnityWebRequest_InternalGetResponseHeaderKeys_m1297904277P21CustomAttributesCache
Keg:_Byte_System_IConvertible_ToInt32_m1032609763_AdjustorThunk
lcc:__ZNSt3__16vectorI4PPtrI6ShaderENS_9allocatorIS3_EEE8__appendEj
nvd:__ZN5physx2Sc8ShapeSim18reinsertBroadPhaseEv
GFk:_PKCS12_GetSymmetricAlgorithm_m3196291685
nUg:_U3CMouseDragOutsideRectU3Ec__Iterator4_System_Collections_Generic_IEnumeratorU3CobjectU3E_get_Current_m2060207907
Hpb:__Z42Register_UnityEngine_RectOffset_set_bottomv
Yhg:_ArrayListWrapper_IndexOf_m3574835167
rtd:__ZN5physx2Sc5Scene11removeShapeERNS0_8ShapeSimEb
ejk:_DrivenRectTransformTracker_t154385424_marshal_pinvoke
Jqa:__ZN28LightProbeProxyVolumeContext8CopyFromERKS_
Qnb:__Z19ConcatWithSeparatorRKNSt3__112basic_stringIcNS_11char_traitsIcEE13stl_allocatorIcL18MemLabelIdentifier1ELi16EEEES8_S8_
ATj:_U3CClickRepeatU3Ec__Iterator5_Dispose_m955690132
bEf:__ZN12HeaderHelper13SetAllHeadersEPKcj
KKf:_SymmetricAlgorithm_get_FeedbackSize_m544664262
Xpa:__ZN18DeferredRenderLoop15RenderFinalPassEP13RenderTextureS1_
uBb:__ZN7ApiGLES18DeleteRenderbufferERj
eaf:__ZN5physx6shdfnd5ArrayIPvNS0_15InlineAllocatorILj256ENS0_19ReflectionAllocatorINS_16NpConnectorArrayEEEEEE15growAndPushBackERKS2_
eac:__ZL23ProgramUniformMatrix4fvPK7ApiGLESjiihPKv
h0d:__ZN5physx2Gu17RadixSortBuffered4SortEPKfj
HFd:__ZN5physx14SingleAABBTaskC2Ev
KLj:_InternalEnumerator_1_MoveNext_m3629145604_gshared
_cg:_BitConverter_AmILittleEndian_m2716658112
Qj:_emscripten_glCheckFramebufferStatus
Xdm:__ZN6il2cpp2vm13ComObjectBaseINS0_12_GLOBAL__N_113ManagedObjectE14Il2CppIMarshal20Il2CppIManagedObjectNS0_7details6ComNilES7_S7_S7_S7_S7_S7_S7_E6AddRefEv
gec:__Z16Transfer_BuiltinI10Matrix4x4f18StreamedBinaryReadILb1EELb0EEvRK29SerializationCommandArgumentsR31RuntimeSerializationCommandInfo
tpf:_Round_Down_To_Grid
yWf:_UTF8Decoder__ctor_m1460357288
QRa:__ZN13RenderTexture7ReleaseEv
PEa:__ZN10MeshFilter23VirtualRedirectTransferER14SafeBinaryRead
nwj:__Z74RuntimeInvoker_Boolean_t3825574718_BooleanU26_t3168250738_SByte_t454417549PK10MethodInfoPvPS2_
O5j:_PatternCompiler_EmitBranchEnd_m3390109636
iog:_Convert_ToByte_m1201588964
gFa:__ZN12MeshRenderer17MainThreadCleanupEv
nBb:__ZN7ApiGLES15BlitFramebufferEN2gl17FramebufferHandleENS0_15FramebufferReadES1_S1_iiiiiiiiNS0_15FramebufferMaskE
Noi:_UnityWebRequest_SerializeFormSections_m616620563
jKa:__ZN22CreateGpuProgramOutput12CreateParamsEv
t9h:_RuntimeMethodHandle_GetHashCode_m2682236001_AdjustorThunk
wlh:_NumberFormatter_GetTenPowerOf_m755691503
uad:__ZNK5physx18NpArticulationLink11getChildrenEPPNS_18PxArticulationLinkEj
T_j:_ActivationServices_AllocateUninitializedClassInstance_m3410698501
dJk:_Vector3_t2243707580_marshal_pinvoke_back
lEb:__ZNK14GfxContextGLES13GetDefaultFBOEv
EYf:_Array_InternalArray__ICollection_Remove_TisSByte_t454417549_m2474211570_gshared
oRg:_Image_AddQuad_m1600600902
fJd:__Z15atomIntegrationfPKPN5physx11PxsBodyCoreEPKPNS_12PxsRigidBodyEjPKNS_2Cm13SpatialVectorEPNS_13PxcSolverBodyEPNS_17PxcSolverBodyDataEPS9_RjSH_
e7k:__ZN6il2cpp2vm5Array9GetLengthEP11Il2CppArray
ted:__ZN5physx13NpRigidStatic11createShapeERKNS_10PxGeometryEPKPNS_10PxMaterialEtNS_7PxFlagsINS_11PxShapeFlag4EnumEhEE
Yrc:__ZN18StreamedBinaryReadILb1EE21TransferSTLStyleArrayI13dynamic_arrayI12SpriteVertexLj4EEEEvRT_17TransferMetaFlags
p_k:_il2cpp_class_is_enum
sBh:_AuthorityKeyIdentifierExtension_get_Identifier_m3535568551
P9f:_GameObject_AddComponent_TisIl2CppObject_m3813873105_gshared
luk:_U3CStartU3Ec__Iterator5_System_Collections_IEnumerator_get_Current_m1872395119
J8a:__ZN13ProxyTransfer10SetVersionEi
pXg:_Locale_GetText_m1954433032
y8c:__ZN5physx11NpAggregate22removeActorAndReinsertERNS_7PxActorEb
UTl:__ZL93Input_t1785128008_CustomAttributesCacheGenerator_Input_INTERNAL_get_mousePosition_m2302165941P21CustomAttributesCache
RQe:__ZZL19ExtractHullPolygonsRjRN5physx2Gu9ContainerERKNS0_17ConvexHullBuilderEPS2_S3_EN5Local9FloodFillES3_PKNS0_11AdjTriangleEjPb
jZi:_Collection_1_System_Collections_IList_Contains_m1897568526_gshared
Jzi:_FieldBuilder_get_FieldType_m2267463269
ucg:_SimpleEnumerator_Clone_m3032847657
I5j:_PatternCompiler_EmitInfo_m597931026
tYk:__ZN6il2cpp2vm13MetadataCache34GetTypeInfoFromTypeDefinitionIndexEi
pph:_ModulusRing_Multiply_m3113924743
vie:__ZN5physx3Scb4Body9syncStateEv
qk:_emscripten_glVertexAttrib4f
ZDh:_Enumerator_System_Collections_IEnumerator_get_Current_m3461301268_AdjustorThunk
lP:__ZN17PackedFloatVector8TransferI13ProxyTransferEEvRT_
Wxe:__ZL28RegisterModuleICalls_Physicsv
U5j:_Link_t3337276394_marshal_pinvoke
N6f:_Array_Sort_TisUILineInfo_t3621277874_m3105833015_gshared
B2a:__ZN15ResourceManager23VirtualRedirectTransferER18StreamedBinaryReadILb1EE
hq:FUNCTION_TABLE_vf
Xkh:_MonoType_GetGenericArguments_m2708198481
K1l:__ZL109UnityWebRequest_t254341728_CustomAttributesCacheGenerator_UnityWebRequest_InternalSetCustomMethod_m1107638252P21CustomAttributesCache
XNj:_InternalEnumerator_1_MoveNext_m3850699098_AdjustorThunk
sHh:_List_1_AddEnumerable_m2489692396_gshared
W8c:__ZN5physx14NpArticulation26setMaxProjectionIterationsEj
Q6c:__ZN5physx3Cct15ObstacleContext14removeObstacleEj
LZl:__ZL93TextGenerator_t647235000_CustomAttributesCacheGenerator_TextGenerator_Dispose_cpp_m1755131202P21CustomAttributesCache
YTi:_GenericEqualityComparer_1_GetHashCode_m3450627064_gshared
Fvk:_WaitHandle__ctor_m1256161634
Nic:__ZN14SafeBinaryRead21TransferSTLStyleArrayINSt3__16vectorI11GradientNEW13stl_allocatorIS3_L18MemLabelIdentifier1ELi16EEEEEEvRT_17TransferMetaFlags
xK:__ZN7mecanim12statemachine24CreateStateMachineMemoryEPKNS0_20StateMachineConstantERNS_6memory9AllocatorE
Szk:_Type_GetMethod_m1930231379
N5b:__ZN9GfxDevice18SetGlobalDepthBiasEff
H1j:_Identity_get_ChannelSink_m3989446673
bZk:__ZN6il2cpp6icalls8mscorlib6System8MonoType12get_AssemblyEP20Il2CppReflectionType
OWc:__ZN4PPtrI12MeshRendererE8TransferI14SafeBinaryReadEEvRT_
uXe:__ZN5physx18RepXPropertyFilterINS_2Sn17RepXVisitorReaderINS_30PxVehicleAckermannGeometryDataEEEEclILj550ES3_ffEEvRKNS_14PxPropertyInfoIXT_ET0_T1_T2_EEj
eOg:_FontData_get_richText_m2013560754
HNf:_SecurityException_get_PermissionType_m3543350822
Gk:_emscripten_glGetPointerv
wmk:_GenericMixerPlayable_Destroy_m3608330239_AdjustorThunk
GBe:__ZNK5physx15NpActorTemplateINS_14PxRigidDynamicEE13getActorFlagsEv
LJd:__ZN5physx24updateCellsSubpacketPairENS_16PxsSphUpdateTypeEPNS_6PxVec3ES2_PNS_16PxsFluidParticleES4_PKNS_15PxsParticleCellES7_PKjS9_jjbRKNS_26PxsFluidDynamicsParametersERNS_27PxsFluidDynamicsTempBuffersEb
uE:__ZN8Animator22ApplyBuiltinRootMotionEv
APe:__ZN5physx7profile8ZoneImplINS_28PxProfileNameProviderForwardEE17handleBufferFlushEPKhj
Hne:__ZN5physx5cloth21IterationStateFactoryC2INS0_7SwClothEEERT_f
OBb:__ZN7ApiGLES26BindDispatchIndirectBufferEj
Qxd:__ZN5physx2Sc5ActorC2ERNS0_16InteractionSceneEhNS0_14IslandNodeInfo4TypeE
nam:__ZL79LayoutRebuilder_t2155218138_CustomAttributesCacheGenerator_U3CU3Ef__amU24cache5P21CustomAttributesCache
bHf:_RandomNumberGenerator_Create_m2275686895
Qlj:__Z74RuntimeInvoker_Boolean_t3825574718_Il2CppObject_IPv6AddressU26_t2456310193PK10MethodInfoPvPS2_
nXe:__ZN5physx18RepXPropertyFilterINS_2Sn17RepXVisitorReaderINS_23PxVehicleDriveSimData4WEEEEclILj657ENS_21PxVehicleDriveSimDataERKNS_18PxVehicleGearsDataES8_EEvRKNS_14PxPropertyInfoIXT_ET0_T1_T2_EEj
NQa:__ZN8Renderer23VirtualRedirectTransferER14SafeBinaryRead
IAl:__ZL55StreamReader_t2360341767_CustomAttributesCacheGeneratorP21CustomAttributesCache
VFg:_PointerEventData_get_rawPointerPress_m448871540
jgj:__Z135RuntimeInvoker_IntPtr_t_Il2CppObject_Int32_t2071877448_Int32_t2071877448_Int32_t2071877448_Int32_t2071877448_MonoIOErrorU26_t1029615899PK10MethodInfoPvPS2_
fzd:__ZN5physx2Sc9ClothCore16setRestPositionsEPKNS_6PxVec4E
t4d:__ZN5physx2Gu12TriangleMesh4loadERNS_13PxInputStreamE
y1b:__ZL13MotionHandleriPK27EmscriptenDeviceMotionEventPv
u_h:_X509Certificate2Collection__ctor_m819526826
tjm:_MUSL_vfscanf
dRa:__ZN8Renderer10SetVisibleEb
PR:__ZN12AudioManager5ResetEv
nqh:_KeyBuilder_Key_m3814433741
Cji:_HumanBone_get_humanName_m2091758568_AdjustorThunk
S5g:_ArgumentException__ctor_m158205422
$_f:_Array_compare_TisVector3_t2243707580_m3709184876_gshared
pQg:_HorizontalLayoutGroup_SetLayoutHorizontal_m3237355818
RJ:__ZN7mecanim5human14RetargetToTDoFEPKNS0_5HumanEPNS0_9HumanPoseEPNS_8skeleton13SkeletonPoseTIN4math4trsXEEESB_
S7k:__ZN6il2cpp6icalls8mscorlib6System11Environment20GetWindowsFolderPathEi
A9l:__ZL60AspectRatioFitter_t3114550109_CustomAttributesCacheGeneratorP21CustomAttributesCache
JJ:__ZN7mecanim5human18HumanPoseBlendNodeERNS0_9HumanPoseEPS1_f
tef:_UNITY_FT_RoundFix
$0:__ZN23CloudWebServicesManager23VirtualRedirectTransferER17RemapPPtrTransfer
W7l:__ZL78MaskableGraphic_t540192618_CustomAttributesCacheGenerator_m_OnCullStateChangedP21CustomAttributesCache
fwe:__ZNK5physx2Gu15HeightFieldUtil12traceSegmentI24ConvexVsHeightfieldSweepLb0ELb0ELb1EEEvRKNS_6PxVec3ES6_PT_PS5_
BHe:__ZNK5physx12PxConvexMesh19getConcreteTypeNameEv
dkc:__Z16Transfer_BuiltinI10Matrix4x4f13ProxyTransferLb0EEvRK29SerializationCommandArgumentsR31RuntimeSerializationCommandInfo
INe:__ZN5physx2Gu19gjkLocalPenetrationINS0_9TriangleVENS0_17ShrunkConvexHullVEEEjRKT_RKT0_RKNS_6shdfnd3aos6FloatVERNSB_5Vec3VESG_SG_RSC_PhSI_Rhb
d2i:_ReadOnlyCollection_1_get_Item_m191392387_gshared
vOg:_Graphic_set_color_m646149893
U2d:__ZN5physx2Gu15GJKLocalRayCastERNS0_9TriangleVERNS0_4BoxVERKNS_6shdfnd3aos6FloatVERKNS6_5Vec3VESC_RS7_RSA_SE_fb
nXd:__ZN5physx18AdjacenciesBuilderC2Ev
kQi:_Dictionary_2_System_Collections_ICollection_get_IsSynchronized_m960517203_gshared
$ud:__ZN5physx2Sc13ShapeIterator4initERKNS0_8ActorSimE
lDc:__ZNK20LightPropertyBinding9BindValueER6ObjectRKN11UnityEngine9Animation14GenericBindingERNS3_10BoundCurveE
QUd:__Z31setPxVehicleAutoBoxData_LatencyPN5physx20PxVehicleAutoBoxDataEf
huf:__ZN2UI6Canvas27UpdateEventIndexesRecursiveERi
mSg:_InputField_set_characterLimit_m4114734597
Cff:_UNITY_FT_Outline_New
qkc:__ZN13GUIStyleState8TransferI13ProxyTransferEEvRT_
ktl:__ZNSt3__113__vector_baseIN6il2cpp2os10ThreadImpl10APCRequestENS_9allocatorIS4_EEED2Ev
dTi:_EqualityComparer_1_System_Collections_IEqualityComparer_Equals_m1738053269_gshared
OXi:_Collection_1__ctor_m1566657168_gshared
jDf:__ZN16UploadHandlerRaw13TransmitBytesEPvjj
dTh:_Collection_1_IsSynchronized_m2731255799_gshared
Spc:__Z19TransferField_ArrayI19StreamedBinaryWriteILb0EE27Converter_SimpleNativeClassI8GUIStyleEEvRK23StaticTransferFieldInfoR31RuntimeSerializationCommandInfoRT0_
sua:__ZN17ProceduralTexture8SetOwnerEP18ProceduralMaterial
LOl:__ZL118HttpsClientStream_t3823629320_CustomAttributesCacheGenerator_HttpsClientStream_U3CHttpsClientStreamU3Em__0_m3176353714P21CustomAttributesCache
Qjl:__ZN18VirtActionInvoker1IP22ByteU5BU5D_t3397334013E6InvokeEjPvS1_
YVe:__ZN5physx18RepXPropertyFilterINS_2Sn17RepXVisitorReaderINS_21PxVehicleDriveDynDataEEEEclILj641ES3_jjEEvRKNS_14PxPropertyInfoIXT_ET0_T1_T2_EEj
OTd:__ZN5physx46solveTankInternaDynamicsEnginePlusDrivenWheelsERKNS_19ImplicitSolverInputEPKbPKfPNS_20ImplicitSolverOutputE
M8c:__ZN5physx14NpArticulationC2Ev
dEm:_emscripten_glCopyTexSubImage2D__wrapper
r7b:__ZNK13ScreenManager12GetIsFocusedEv
Q5l:__ZL75U3COnFinishSubmitU3Ec__Iterator1_t2828018738_CustomAttributesCacheGeneratorP21CustomAttributesCache
r5h:_RemotingServices_RegisterInternalChannels_m1827304423
Tgi:_GUIStyle_get_onNormal_m1675201777
D$h:_X509ChainPolicy_get_VerificationTime_m4100358726
Bea:__Z24RegisterClass_GameObjectv
cPc:__ZN22ParticleSystemRenderer16UpdateCachedMeshEv
o$g:_ASN1_get_Length_m3359111015
agi:_GUISkin_get_verticalScrollbarThumb_m649633186
Qii:_GUIStyleState_Cleanup_m705006206
Eaa:__ZN33AssetBundleLoadFromAsyncOperation21InitializeAssetBundleERKNSt3__112basic_stringIcNS0_11char_traitsIcEENS0_9allocatorIcEEEE
lPa:__Z26RegisterClass_LineRendererv
zwk:_Thread_GetCachedCurrentUICulture_m5590127
mOk:_Vector3_Dot_m3161182818
D5b:__ZN9GfxDevice5FlushEv
sKg:_ColorBlock_set_pressedColor_m587704489_AdjustorThunk
KCd:__ZNK5physx5cloth11SwCollisionI8Scalar4fE12collideConesEPKS2_PS2_RNS3_18ImpulseAccumulatorE
tKl:__ZL78Convert_t2607082565_CustomAttributesCacheGenerator_Convert_ToSByte_m3768984293P21CustomAttributesCache
pje:__ZN5physx6shdfnd8PoolBaseINS_2Sc9ActorPairENS0_19ReflectionAllocatorIS3_EEE12allocateSlabEv
$hj:__Z89RuntimeInvoker_Boolean_t3825574718_Il2CppObject_Il2CppObject_StreamingContext_t1417235061PK10MethodInfoPvPS2_
xeg:_Byte_System_IConvertible_ToDateTime_m1583041031
nAk:_Type_get_IsGenericParameter_m161434704
Uxk:_TimeSpan_get_Milliseconds_m4029737139_AdjustorThunk
Num:__ZNSt3__16locale5__imp7installINS_9money_putIwNS_19ostreambuf_iteratorIwNS_11char_traitsIwEEEEEEEEvPT_
f$l:__ZL80Event_t3028476042_CustomAttributesCacheGenerator_Event_get_character_m3740896233P21CustomAttributesCache
U_l:__ZL98CanvasRenderer_t261436805_CustomAttributesCacheGenerator_CanvasRenderer_get_absoluteDepth_m4243141P21CustomAttributesCache
E2g:_EncryptedData_get_EncryptionAlgorithm_m1301274243
_Si:_EqualityComparer_1_System_Collections_IEqualityComparer_Equals_m1089835085_gshared
yRb:__ZNSt3__16__treeINS_12__value_typeI18VertexChannelsInfo16MeshVertexFormatEENS_19__map_value_compareIS2_S4_NS_4lessIS2_EELb1EEE13stl_allocatorIS4_L18MemLabelIdentifier16ELi16EEE12__find_equalIS4_EERPNS_16__tree_node_baseIPvEENS_21__tree_const_iteratorIS4_PNS_11__tree_nodeIS4_SF_EEiEESI_RKT_
wre:__Z31getPxVehicleEngineDataMMaxOmegaPKN5physx19PxVehicleEngineDataE
CMg:_Dropdown__cctor_m264401557
UTb:__ZN16LightmapSettings8TransferI13ProxyTransferEEvRT_
Nbg:_Array_IndexOf_m2819632474
CQj:_Comparer_1__cctor_m3996541505_gshared
sK:__ZN7mecanim12statemachine20GetBlendTreeConstantERKNS0_13StateConstantEi
wVc:__ZZN14ParticleSystem15InitializeClassEvEN16cleanupAfterLoad7ForwardEv
kgd:__ZN5physx7NpScene21setDominanceGroupPairEhhRKNS_20PxDominanceGroupPairE
lob:__Z40GetTemporaryCachePathApplicationSpecificv
yIa:__ZN9GfxDevice16EndAsyncJobFrameEv
g2b:__ZL39PatchShaderSourceForAdrenoES3WorkaroundNSt3__112basic_stringIcNS_11char_traitsIcEENS_9allocatorIcEEEEPS5_
tRg:_Image_get_minWidth_m1809071077
Nif:_UNITY_tt_face_load_hhea
l1j:_ContextAttribute_IsNewContextOK_m2186905629
dkk:_PersistentCall__ctor_m2079279187
Lng:_Convert_ToBase64String_m1936815455
dEe:__ZNK5physx15NpActorTemplateINS_16PxParticleSystemEE7getNameEv
F5b:__ZN9GfxDevice15GetNextCPUFenceEv
Oni:_DownloadHandler_t1216180266_marshal_pinvoke
axg:_Decimal_ToString_m759431975
pIh:_List_1_AddRange_m550906382_gshared
Yqb:__Z32Mesh_Get_Custom_PropSubMeshCountP15ScriptingObject
Ywe:__ZN8Collider7PRODUCEE18MemLabelIdentifier18ObjectCreationMode
eJg:_ColorBlock_get_fadeDuration_m987725262
SAl:__ZL94EnumBuilder_t2808714468_CustomAttributesCacheGenerator_EnumBuilder_GetConstructors_m3240699827P21CustomAttributesCache
GDk:_UIntPtr_op_Explicit_m1113914169
ibj:__Z59RuntimeInvoker_UnicodeCategory_t682236799_Int16_t4041245914PK10MethodInfoPvPS2_
fKh:_List_1_AddCollection_m3266731889_gshared
ZEl:__ZL59ITrackingHandler_t2759960940_CustomAttributesCacheGeneratorP21CustomAttributesCache
Fg:_emscripten_glShaderBinary
Zwk:_DelegatePInvokeWrapper_ThreadStart_t3437517264
v5f:_Array_qsort_TisVector2_t2243707579_TisVector2_t2243707579_m3308480721_gshared
Qag:_Array_InternalArray__RemoveAt_m1126483634
jlb:__ZNK20LocalFileSystemPosix6ExistsERK13FileEntryData
LIj:_InternalEnumerator_1_Dispose_m4038440306_AdjustorThunk
w0b:__Z16FlaggedAsSkippedINSt3__112basic_stringIcNS0_11char_traitsIcEENS0_9allocatorIcEEEEEbRK13FileEntryInfoRKT_19FileEnumerationFlag
nuk:_U3CStartU3Ec__Iterator5_Dispose_m2515779966
Dck:_AsyncOperation_get_priority_m966065939
tR:__ZN13AudioListener23VirtualRedirectTransferER13ProxyTransfer
gad:__ZN5physx35NpArticulationJointGetBodiesFromScbERNS_3Scb17ArticulationJointERPNS0_4BodyES5_
Lwg:_DivideByZeroException__ctor_m280382972
PAd:__ZNK5physx2Sc15ClothFabricCore16getTetherLengthsEPfj
E4l:__ZL114PointerEventData_t1599784723_CustomAttributesCacheGenerator_PointerEventData_get_pointerCurrentRaycast_m1374279130P21CustomAttributesCache
TQl:__ZL103Quaternion_t4030073918_CustomAttributesCacheGenerator_Quaternion_INTERNAL_CALL_LookRotation_m3606560944P21CustomAttributesCache
Zmi:_Mesh_get_colors32_m4153271224
_Jb:_access_virt_sarray
Wkk:_AnimationPlayable_SetInputs_m370531328_AdjustorThunk
Ivf:__Z58Register_UnityEngine_Canvas_GetETC1SupportedCanvasMaterialv
UAf:__ZN11UnityEngine7Connect20BasePersistentValuesC2Ev
QQb:__ZN4Mesh8TransferI13ProxyTransferEEvRT_
OXh:_ServicePoint_set_UseNagleAlgorithm_m2618011464
ZRg:_InputField_get_textComponent_m2074509413
IZk:_il2cpp_set_data_dir
hqd:__ZN5physx2Sc13ConstraintSim8getForceERNS_6PxVec3ES3_
dCk:_UInt32_GetHashCode_m2903162199
z9j:_Uri_get_IsUnc_m2111738174
ada:__ZN16LevelGameManager23VirtualRedirectTransferER19StreamedBinaryWriteILb0EE
Ovc:__Z32TransferEnumWithNameForceIntSizeI14SafeBinaryRead16GfxPrimitiveTypeEvRT_RT0_PKc17TransferMetaFlags
Kt:__ZN24dtObstacleAvoidanceQuery22sampleVelocityAdaptiveEPKfS1_fffPffPK25dtObstacleAvoidanceParamsP21dtCrowdAgentDebugInfo
hPj:_DefaultComparer__ctor_m1961329658_gshared
KL:__ZN11UnityEngine9AnimationL22GetComponentWithScriptER9Transform4PPtrI6ObjectE
CFc:_post_process_1pass
EJk:_DataUtility_INTERNAL_CALL_GetPadding_m1621366113
o9a:__ZN18StreamedBinaryReadILb1EE21TransferResourceImageE19ActiveResourceImagePKcR13StreamingInfoPvj
X_d:__ZN5physx15PxGeometryQuery18computePenetrationERNS_6PxVec3ERfRKNS_10PxGeometryERKNS_11PxTransformES6_S9_
zag:_Array_get_Rank_m3837250695
aWd:__ZN5physx35PxVehicleWheelsDynDataGeneratedInfoC2Ev
oKi:_Enumerator_VerifyState_m262343092_AdjustorThunk
ice:__ZN5Unity12PhysicsQueryC2Ev
FKh:_List_1_get_Count_m1752597149_gshared
vrh:_EncryptedPrivateKeyInfo_Decode_m1706190306
DNi:_ValueCollection_GetEnumerator_m401908452_gshared
LId:__ZN5physx10PxsContext13updateIslandsEfPNS_10PxBaseTaskE
_hk:_ControllerColliderHit_t4070855101_marshal_pinvoke
KUe:__ZN5physx3Pvd17PvdPropertyFilterINS_2Sn17RepXVisitorWriterINS_21PxVehicleDriveDynDataEEEE14handleAccessorILj642ENS_22PxRepXPropertyAccessorILj642ES4_KffEEEEvRKT0_
Jql:__ZN6il2cpp6icalls8mscorlib6System18CollectTypeMethodsINS_5utils10functional6FilterINSt3__112basic_stringIcNS7_11char_traitsIcEENS7_9allocatorIcEEEENS4_11StringUtils21CaseSensitiveComparerEEEEEvP11Il2CppClassPKSH_jRKT_RNS7_6vectorIPK10MethodInfoNSB_ISR_EEEERA65535_b
s9i:_Converter_2_BeginInvoke_m898151494_gshared
eZb:__ZN8Remapper25GetAllLoadedObjectsAtPathEiPNSt3__13setIiNS0_4lessIiEENS0_9allocatorIiEEEE
FXj:_Text_get_supportRichText_m3291105891
Kui:_RectTransform_GetParentSize_m1571597933
$N:__ZN9BlobWrite8TransferI22OffsetPtrArrayTransferIKN4math7_float4EEEEvRT_PKc17TransferMetaFlags
xUg:_LayoutElement_set_ignoreLayout_m1530090081
wrk:_CrossPlatformInputManager_SetVirtualMousePositionX_m3377712833
F_c:__ZNK11b2EdgeShape7RayCastEP15b2RayCastOutputRK14b2RayCastInputRK11b2Transformi
Xlk:_Playables_GetInputWeightValidated_m2453142047
Ncj:__Z52RuntimeInvoker_Decimal_t724701077_Double_t4078015681PK10MethodInfoPvPS2_
S4j:_MatchCollection_GetEnumerator_m3516985966
Zlj:__Z100RuntimeInvoker_Void_t1841601450_Il2CppObject_Int32U26_t455636984_Int32_t2071877448_Int32_t2071877448PK10MethodInfoPvPS2_
JVf:_UTF7Encoding__ctor_m2365939916
Vjb:__ZN25MultiBlocksMemoryFileData9SetLengthEy
fR:__Z30GetAudioSpatializerDefinitionsR13dynamic_arrayIP29AudioEffectInternalDefinitionLj4EE
SGd:__ZN5physx16PxsBroadPhaseMBP15getCreatedPairsEv
jKk:_TextGenerationSettings_Equals_m3944651893_AdjustorThunk
RDf:__ZN24DownloadHandlerAudioClipD0Ev
tXj:_MatEntry__ctor_m3650167335
dki:_Input_get_touches_m388011594
duj:__Z143RuntimeInvoker_Void_t1841601450_Il2CppObject_Vector2_t2243707579_Vector2_t2243707579_Color32_t874517518_Vector2_t2243707579_Vector2_t2243707579PK10MethodInfoPvPS2_
ilc:__Z16Transfer_BuiltinIy17RemapPPtrTransferLb0EEvRK29SerializationCommandArgumentsR31RuntimeSerializationCommandInfo
IUa:__ZNK9Texture2D20GetRuntimeMemorySizeEv
xAk:_TypeInitializationException__ctor_m2993591639
ZMd:__ZN5physx14solve1D4_BlockEPKNS_23PxcSolverConstraintDescEjRNS_16PxcSolverContextE
po:_emscripten_glUniform2iv
nGl:__ZL46DES_t1353513560_CustomAttributesCacheGeneratorP21CustomAttributesCache
tIe:__ZL33GeomMTDCallback_ConvexHeightFieldRN5physx6PxVec3ERfRKNS_10PxGeometryERKNS_11PxTransformES5_S8_
_Sh:_Collection_1_set_Item_m2791481417_gshared
Jff:_UNITY_FT_Outline_Transform
zgi:_SkinChangedDelegate_BeginInvoke_m4259161711
tsb:__Z60Register_UnityEngine_Sprites_DataUtility_Internal_GetMinSizev
Npi:_UploadHandler_InternalCreateRaw_m3935811756
Lgm:__ZN6il2cpp2gc9AllocatorINSt3__111__hash_nodeINS2_17__hash_value_typeINS2_4pairIPK11Il2CppImageP11Il2CppClassEEP22Il2CppReflectionModuleEEPvEEE10deallocateESF_j
_Wk:__ZN6il2cpp2vm5Class10GetMethodsEP11Il2CppClassPPv
kSe:__ZN5physx6shdfnd5ArrayINS_17PxVehicleTireDataENS0_15InlineAllocatorILj320ENS0_19ReflectionAllocatorIS2_EEEEE8recreateEj
hti:_Rect_get_x_m1393582490_AdjustorThunk
jxl:__ZL65Il2CppArray_CustomAttributesCacheGenerator_Array_Sort_m3500510484P21CustomAttributesCache
xMf:_Hash_GetObjectData_m315532943
Kim:__ZN13dynamic_arrayIP11Il2CppClassLj4EE7reserveEj
Oac:__ZN15UniformTFMethod13MapBoneBufferEj
Ayh:_RecordProtocol_SendAlert_m2816808523
Mxf:__ZN2UI14CanvasRendererD2Ev
lJj:_InternalEnumerator_1_get_Current_m3296972783_gshared
yca:__ZN15EditorExtension13RegisterClassEv
yOd:__ZN5physx26PxcPCMContactCapsuleConvexERKNS_2Gu13GeometryUnionES3_RKNS_11PxTransformES6_RKfRNS_10PxcNpCacheERNS0_13ContactBufferE
JUd:__ZN5physx28PxVehicleComputeSprungMassesEjPKNS_6PxVec3ERS1_fjPf
KEi:_MonoEvent_get_Name_m2796714646
fmb:__Z9SetupArgviPPKc
x_f:_Array_InternalArray__IEnumerable_GetEnumerator_TisHitInfo_t1761367055_m2486283755_gshared
cPb:__ZN13dynamic_arrayIP10UnitySceneLj4EE9push_backERKS1_
iGg:_PointerEventData_set_worldNormal_m2025727441
reg:_Convert_ToBoolean_m2032547942
Xwb:__Z43Transform_CUSTOM_INTERNAL_set_localPositionP15ScriptingObjectRK8Vector3f
zvh:_Context_get_SentConnectionEnd_m3114190867
sId:__ZN5physx10PxsContext17addParticleSystemEPNS_15PxsParticleDataERKNS_26PxvParticleSystemParameterEb
kie:__ZN5physx3Scb5Scene13addRigidNoSimINS0_4BodyELb1ELb1EEEvRT_RNS0_13ObjectTrackerE
fLb:__ZN12ImmediatePtrI10GameObjectE8TransferI19StreamedBinaryWriteILb0EEEEvRT_
ifb:__ZN12FileAccessor4OpenER15FileSystemEntry14FilePermission16FileAutoBehavior
m$b:__ZN4PPtrI6ShaderE8TransferI18StreamedBinaryReadILb0EEEEvRT_
rue:__ZL19sweepBoxVsTrianglesjPKN5physx10PxTriangleERKNS_2Gu3BoxERKNS_6PxVec3EfRNS_10PxSweepHitENS_7PxFlagsINS_9PxHitFlag4EnumEtEEbPKj
Puk:_U3CActivateU3Ec__Iterator6_Reset_m323877751
NFg:_PointerEventData_set_clickTime_m3931922487
sdi:_WindowFunction__ctor_m977095815
Xmh:_NumberFormatter_AppendNonNegativeNumber_m629862866
Sce:__ZN9Rigidbody18AddForceAtPositionERK8Vector3fS2_i
iFh:_List_1_System_Collections_Generic_IEnumerableU3CTU3E_GetEnumerator_m533999703_gshared
thb:__ZN15ArchiveReadFile5WriteEyPKvPy
THi:_ResourceInfo__ctor_m2401359321_AdjustorThunk
Qkg:_Hashtable__ctor_m392789568
mBf:__ZN22CrashReportingSettings27OnPlayerSessionStateChangedEjyy
KVf:_UTF7Encoding__cctor_m4192443836
Kqj:__Z73RuntimeInvoker_Boolean_t3825574718_Playable_t3667545548_Int32_t2071877448PK10MethodInfoPvPS2_
oGc:__ZN13RuntimeStaticI15ApplicationInfoE13StaticDestroyEPv
D:tempValue
B_b:__Z29StdTemplateConversionFunctionIaiEbPvR14SafeBinaryRead
Rel:__ZN6il2cpp8metadata24Il2CppGenericContextHash4HashEPK20Il2CppGenericContext
Z$l:__ZL65GUISkin_t1436893342_CustomAttributesCacheGenerator_m_CustomStylesP21CustomAttributesCache
jUb:__ZN15QualitySettings8TransferI18StreamedBinaryReadILb1EEEEvRT_
y8g:_Int16_System_IConvertible_ToSingle_m3277935657
yLa:__Z29scripting_class_from_fullnamePKcS0_S0_
Bmm:__ZNKSt3__112basic_stringIcNS_11char_traitsIcEENS_9allocatorIcEEE5rfindEcj
kHg:_StandaloneInputModule_get_inputMode_m1415645893
xoi:_UnityWebRequest_GetAudioClip_m3990624924
BVl:__ZL97GameObject_t1756533147_CustomAttributesCacheGenerator_GameObject_GetComponentInParent_m1235194528P21CustomAttributesCache
O6l:__ZL98Graphic_t2426225576_CustomAttributesCacheGenerator_Graphic_set_useLegacyMeshGeneration_m3023904722P21CustomAttributesCache
l1d:__ZN5physx2Gu29ConvexVsMeshContactGeneration20generateLastContactsEv
Rem:__ZN4utf88internal20is_overlong_sequenceIiEEbjT_
zVc:__ZN14ParticleSystem7PRODUCEE18MemLabelIdentifier18ObjectCreationMode
WNe:__ZNK5physx2Gu22SupportMapRelativeImplINS0_4BoxVEE14doSupportSweepERKNS_6shdfnd3aos5Vec3VE
pHd:__ZN5physx14SapPairManagerD2Ev
DT:__ZN11AudioSource19CreateOpenALRolloffEfff
j$l:__ZL83Event_t3028476042_CustomAttributesCacheGenerator_Event_set_displayIndex_m3631666901P21CustomAttributesCache
Vff:_UNITY_FT_Stream_ReadAt
qUl:__ZL111Object_t1021602117_CustomAttributesCacheGenerator_Object_DestroyImmediate_m3563317232____allowDestroyingAssets1P21CustomAttributesCache
E2c:__ZN14dense_hash_mapINSt3__14pairIPK10Collider2DS4_EE11Collision2DNS2_23ColliderPairHashFunctorENS0_8equal_toIS5_EE13stl_allocatorINS1_IKS5_S6_EEL18MemLabelIdentifier65ELi16EEE4findERSB_
yxd:__ZN5physx2Sc17ParticleSystemSim16getParticleStateEv
BGf:__ZNK26DownloadHandlerAssetBundle8GetBytesEv
I$e:__ZN5physx6shdfnd5ArrayINS_25PxsCompoundContactManagerENS0_19ReflectionAllocatorIS2_EEE8recreateEj
shi:_GUIStyle_get_lineHeight_m2132859383
xmc:__Z46EmitSerializationCommandsForManagedObjectFieldI18StreamedBinaryReadILb0EEEvRK18TransferField_InfoR32SerializationCommandQueueBuilderRP20AllowNameConversions
M3k:__ZN6il2cpp2vm3COM27CreateFreeThreadedMarshalerEP14Il2CppIUnknownPS3_
FUd:__ZN5physx15PxVehicleWheels5setupEPNS_9PxPhysicsEPNS_14PxRigidDynamicERKNS_22PxVehicleWheelsSimDataEjj
Nxj:__Z102RuntimeInvoker_Int32_t2071877448_Il2CppObject_UIVertex_t1204258818_Int32_t2071877448_Int32_t2071877448PK10MethodInfoPvPS2_
p3i:_ReadOnlyCollection_1_System_Collections_Generic_IListU3CTU3E_RemoveAt_m2137782652_gshared
xkk:_UnityEvent_FindMethod_Impl_m3303953986
ee:_glReadBuffer
CAk:_UInt16_System_IConvertible_ToBoolean_m887616848
PRb:__Z26TransformVerticesInnerLoopILb1ELb1ELb1EEvPhRK10Matrix4x4fRK10Matrix3x3fjPKhiiiS8_ii25GfxTransformVerticesFlags
KEd:__ZN5physx14PxsAABBManagerC2ERNS_2Cm13EventProfilerERNS_19PxcScratchAllocatorE
DPl:__ZL120ScriptableObject_t1975622470_CustomAttributesCacheGenerator_ScriptableObject_Internal_CreateScriptableObject_m1778903390P21CustomAttributesCache
ASj:_Scrollbar_set_handleRect_m596734077
FUf:_StringBuilder_set_Length_m3039225444
TZi:_Collection_1_System_Collections_IList_Contains_m3870109702_gshared
kse:__Z48getPxVehicleTireLoadFilterDataMMinNormalisedLoadPKN5physx27PxVehicleTireLoadFilterDataE
NXf:_Array_InternalArray__ICollection_Contains_TisRaycastResult_t21186376_m3188614988_gshared
yrg:_CultureAwareComparer_GetHashCode_m3681260951
vxf:__ZZN2UI23InitializeCanvasManagerEvEN50UIEventsCanvasmanagerEmitWorldCanvasGeometrystruct7ForwardEv
FUk:_U3CStartU3Ec__Iterator0__ctor_m951808111_gshared
Pwc:__Z14resize_trimmedINSt3__16vectorI17SubstanceEnumItemNS0_9allocatorIS2_EEEEEvRT_j
Xs:__ZN7dtCrowd17requestMoveTargetEiyPKf
ySj:_Selectable__ctor_m1440593935
cli:_Light_set_shadowBias_m2553631738
Q0g:_KeyPairPersistence_ProtectUser_m4103539639
Twl:__ZL65Il2CppArray_CustomAttributesCacheGenerator_Array_Clear_m782967417P21CustomAttributesCache
se:___cxa_guard_abort
Nxi:_CustomAttributeTypedArgument_t1498197914_marshal_pinvoke_back
lfa:__ZN14MessageHandler28MessageIDToMessageIdentifierEi
HWh:_HttpRequestCreator_Create_m3607509610
D$l:__ZL50GUISkin_t1436893342_CustomAttributesCacheGeneratorP21CustomAttributesCache
NRh:_List_1_Shift_m3824049528_gshared
o6h:_ArrayFixupRecord__ctor_m3659990982
Lvh:_Context_get_RandomCS_m3946020109
Pvl:__ZL72IntPtr_t_CustomAttributesCacheGenerator_IntPtr_op_Inequality_m3044532593P21CustomAttributesCache
NMg:_Dropdown_get_onValueChanged_m3334401942
hdl:__ZN6il2cpp2vm10WaitHandle19NewManualResetEventEb
$wi:_Default_ReorderArgumentArray_m3980835731
AEk:_Version_GetHashCode_m880841176
IPa:__ZN15QualitySettings13RegisterClassEv
oQk:_Nullable_1_ToString_m1238126148_AdjustorThunk
Rq:FUNCTION_TABLE_iiiiiiiiiii
o2d:__ZN5physx2Gu19sweepCapsuleCapsuleERKNS0_7CapsuleES3_RKNS_6PxVec3EfRfRS4_S8_jRt
pNe:__ZN5physx2Gu29EPASupportMapPairRelativeImplINS0_9TriangleVENS0_11ConvexHullVEED0Ev
Vrc:__Z32TransferEnumWithNameForceIntSizeI14SafeBinaryRead13TextureFormatEvRT_RT0_PKc17TransferMetaFlags
pUk:_IndexedSet_1_CopyTo_m91125111_gshared
o8l:__ZL86Scrollbar_t3248359358_CustomAttributesCacheGenerator_Scrollbar_ClickRepeat_m3403943364P21CustomAttributesCache
Ykk:_Playables_CheckInputBounds_m2953342617
FNb:__ZL10CleanUpJobP20CullingGroupsJobData
kgg:_Char_CompareTo_m3044885427_AdjustorThunk
lRf:_String_Join_m1966872927
B4e:__ZN13Simd4fFactoryIN6detail9FourTupleEEC2Effff
MKj:_InternalEnumerator_1_System_Collections_IEnumerator_get_Current_m2035754659_AdjustorThunk
A1d:__ZN5physx13BigConvexData4LoadERNS_13PxInputStreamE
bna:__ZN13RenderManager15BatchModeUpdateEv
a9:_jpeg_resync_to_restart
QQk:_Predicate_1_EndInvoke_m973058386_gshared
IQl:__ZL52LayerMask_t3188175821_CustomAttributesCacheGeneratorP21CustomAttributesCache
UDg:_RaycasterManager_RemoveRaycasters_m3465850111
Dsi:_Ray_t2469606224_marshal_pinvoke_cleanup
ZRb:__ZN14SafeBinaryRead21TransferSTLStyleArrayI13dynamic_arrayI8Vector2fLj4EEEEvRT_17TransferMetaFlags
dab:__ZN17PersistentManager51InstanceIDToLocalSerializedObjectIdentifierInternalEiR31LocalSerializedObjectIdentifier
dHi:_StrongNameKeyPair_System_Runtime_Serialization_IDeserializationCallback_OnDeserialization_m2330221363
ygf:_UNITY_FT_Create_Class_cff_services
Bkj:__Z116RuntimeInvoker_Boolean_t3825574718_Il2CppObject_Int32_t2071877448_Int32_t2071877448_Il2CppObject_Int32U26_t455636984PK10MethodInfoPvPS2_
Ye:_glVertexAttribIPointer
STl:__ZL83Input_t1785128008_CustomAttributesCacheGenerator_Input_GetMouseButtonDown_m47917805P21CustomAttributesCache
UDk:_UnhandledExceptionEventHandler_EndInvoke_m2207457167
ONi:_Dictionary_2_System_Collections_ICollection_get_IsSynchronized_m304009368_gshared
BS:__Z26RegisterClass_AudioManagerv
YWf:_Array_InternalArray__ICollection_Contains_TisTableRange_t2011406615_m605506746_gshared
MHh:_List_1_Sort_m785723827_gshared
hSd:__ZN5physx27PxVehicleDifferentialNWData20setDrivenWheelStatusEj
xqg:_Decimal_op_Explicit_m729046406
N6c:__ZN5physx3Cct15ObstacleContext7releaseEv
SOg:_Graphic_OnEnable_m2900261811
uNd:__ZN5physx27solveFrictionBlockWriteBackEPKNS_23PxcSolverConstraintDescEjRNS_16PxcSolverContextEPNS_25PxcThresholdStreamElementEjPi
$ai:_CryptographicUnexpectedOperationException__ctor_m3552441227
Uhg:_ArrayListWrapper_Clear_m321161741
ITg:_InputField_LineDownCharacterPosition_m2690468785
Xef:_UNITY_ft_glyphslot_alloc_bitmap
MAj:__Z56RuntimeInvoker_ContentType_t1028629049_Int32_t2071877448PK10MethodInfoPvPS2_
EPj:_Comparer_1__cctor_m2347159423_gshared
AAf:__ZN11UnityEngine7Connect15DeviceInfoEvent16SetAdvertisingIdERK8UnityStr
R6f:_Array_Sort_TisVector2_t2243707579_TisVector2_t2243707579_m2582252549_gshared
Zga:__ZN6Camera4CullER11CullResultsb
pSe:__ZN5physx3Pvd17PvdPropertyFilterINS_2Sn17RepXVisitorWriterINS_18PxVehicleWheelDataEEEE14handleAccessorILj571ENS_22PxRepXPropertyAccessorILj571ES4_ffEEEEvRKT0_
yDf:__ZN22DownloadHandlerTexture17OnCompleteContentEv
Mfj:__Z45RuntimeInvoker_Il2CppObject_Int16_t4041245914PK10MethodInfoPvPS2_
cUj:_ScrollRect_set_verticalScrollbarVisibility_m2424788384
SMh:_List_1_System_Collections_IList_set_Item_m1129584681_gshared
bqf:_ft_raster1_render
v$b:__ZN18StreamedBinaryReadILb1EE19TransferSTLStyleMapINSt3__13mapIN9ShaderLab16FastPropertyNameE10ColorRGBAfNS2_4lessIS5_EENS2_9allocatorINS2_4pairIKS5_S6_EEEEEEEEvRT_17TransferMetaFlags
Evi:_Rigidbody_INTERNAL_CALL_AddForceAtPosition_m1863309522
Brb:__Z57Register_UnityEngine_RectTransform_INTERNAL_set_anchorMaxv
oxh:_HandshakeMessage_Compare_m2025941142
QHh:_List_1_set_Capacity_m491101164_gshared
VUf:_StringBuilder_Insert_m1733097906
vnj:__Z88RuntimeInvoker_Void_t1841601450_Il2CppObject_Int32_t2071877448_Il2CppObject_Il2CppObjectPK10MethodInfoPvPS2_
Rk:_JS_SystemInfo_GetMemory
Mrl:__ZNSt3__112basic_stringIcNS_11char_traitsIcEENS_9allocatorIcEEE6assignINS_11__wrap_iterIPKcEEEENS_9enable_ifIXsr21__is_forward_iteratorIT_EE5valueERS5_E4typeESC_SC_
HTe:__ZN5physx18RepXPropertyFilterINS_2Sn17RepXVisitorReaderINS_18PxVehicleWheelDataEEEEclILj570ES3_ffEEvRKNS_14PxPropertyInfoIXT_ET0_T1_T2_EEj
oee:__Z41CharacterController_Get_Custom_PropRadiusP15ScriptingObject
FQj:_Comparer_1__ctor_m1157133632_gshared
mAh:_SslStreamBase_get_HashStrength_m480059173
BHb:__ZN18GfxFramebufferGLES13ReadbackImageER14ImageReferenceiiiiii
FMi:_ValueCollection_System_Collections_Generic_ICollectionU3CTValueU3E_Clear_m3271993638_gshared
OGc:__ZN13RuntimeStaticI11WindManagerE13StaticDestroyEPv
Zxc:__ZN6prcoreL12RemapGenericI17TexFormatARGB888815TexFormatRGB565EEvPKNS_9InnerInfoE
uY:__ZN4FMOD7Channel19setReverbPropertiesEPK29FMOD_REVERB_CHANNELPROPERTIES
T4a:__ZN13MonoBehaviour22GetScriptFullClassNameEv
W_k:_il2cpp_object_get_class
a_j:_GuidAttribute__ctor_m1099153635
Rwb:__Z48Register_UnityEngine_GameObject_BroadcastMessagev
Npa:__ZN13BatchRendererC2ER15RenderLoopStatsRK15RenderNodeQueuebb
RWh:_ServicePointManager_FindServicePoint_m3137356168
Wk:_emscripten_glGetVertexAttribfv
T_a:__ZN20SphericalHarmonicsL211AddWeightedERKS_f
GMj:_InternalEnumerator_1_MoveNext_m725174512_gshared
zqd:__ZN5physx2Sc24ElementInteractionMarker12onDeactivateEj
zGg:_PointerInputModule_GetPointerData_m1695674453
Dml:__Z14bankers_roundff
TV:__ZN4FMOD7SystemI19setSoftwareChannelsEi
rmc:__Z19TransferField_ArrayI17RemapPPtrTransfer27Converter_SimpleNativeClassI8GUIStyleEEvRK23StaticTransferFieldInfoR31RuntimeSerializationCommandInfoRT0_
_Fc:__ZL22StaticInitializeShaderPv
trg:_Convert_ToUInt64_m345450801
JJb:_h2v1_fancy_upsample
vQk:_Predicate_1_BeginInvoke_m2559992383_gshared
s8k:__ZN6il2cpp2vm3RCW7CleanupEP15Il2CppComObject
zFb:__ZN13GfxDeviceGLES17CaptureScreenshotEiiiiPh
cce:__ZN14PhysicsManager23VirtualRedirectTransferER19StreamedBinaryWriteILb0EE
wvm:__ZNSt13runtime_errorC2EPKc
su:__Z20dtAllocProximityGridv
Krb:__Z35Register_UnityEngine_Resources_Loadv
ijc:__Z19TransferField_ArrayI14SafeBinaryRead16Converter_StringEvRK23StaticTransferFieldInfoR31RuntimeSerializationCommandInfoRT0_
Wpk:_FirstPersonController_ProgressStepCycle_m1725865410
Zf:_rename
Ebl:_GC_exit_check
MMk:_Transform_INTERNAL_CALL_TransformDirection_m2899991790
olh:_NotSupportedException__ctor_m3232764727
XAf:__ZN11UnityEngine7Connect20BasePersistentValues10SaveValuesERNS_15CloudWebService12JsonDocumentE
s3d:__ZNK5physx2Gu15OBBTriangleTest10obbTriTestERKNS_6PxVec3ES4_S4_
vba:__Z20UnlockObjectCreationv
T4c:__ZN15dense_hashtableINSt3__14pairIKNS1_IPK10Collider2DS4_EE11Collision2DEES5_NS2_23ColliderPairHashFunctorEN14dense_hash_mapIS5_S7_S9_NS0_8equal_toIS5_EE13stl_allocatorIS8_L18MemLabelIdentifier65ELi16EEE9SelectKeyESC_SF_E12maybe_shrinkEv
iSe:__ZN5physx3Pvd17PvdPropertyFilterINS_2Sn17RepXVisitorWriterINS_17PxVehicleTireDataEEEE27extendedDualIndexedPropertyILj602ES4_jjfEEvjRKNS_33PxExtendedDualIndexedPropertyInfoIXT_ET0_T1_T2_T3_EEjj
Ppm:__ZNKSt3__18time_getIwNS_19istreambuf_iteratorIwNS_11char_traitsIwEEEEE10__get_yearERiRS4_S4_RjRKNS_5ctypeIwEE
Ztg:_DateTime_ToString_m1117481977
Lmj:__Z55RuntimeInvoker_Il2CppObject_RegexOptionsU26_t3063574985PK10MethodInfoPvPS2_
Gch:_MonoIO_CreateDirectory_m379525469
EM:__ZN9BlobWrite8TransferI22OffsetPtrArrayTransferI9OffsetPtrIN7mecanim12statemachine18StateMachineMemoryEEEEEvRT_PKc17TransferMetaFlags
Hkf:_UNITY_ft_smooth_renderer_class_pic_free
zPh:_List_1_System_Collections_IList_Remove_m3763718607_gshared
xdk:_Bounds_get_center_m129401026
sg:_emscripten_glStencilOpSeparate
QPf:_String_Concat_m2000667605
ieb:__ZN19ShaderPropertySheet18AddTextureFromInfoERKN9ShaderLab16FastPropertyNameEPKNS0_21ParserTexturePropertyE
gee:__Z38SpringJoint_Set_Custom_PropMaxDistanceP15ScriptingObjectf
Voa:__ZN15SkyboxGenerator28GetCubemapSkyboxVertexFormatEv
fql:__ZN6il2cpp2os19SocketHandleWrapperC2ERKS1_
nDf:__Z19GetDownloadProgressbjj
m8k:__ZN6il2cpp2vm6String8NewUtf16EPKDsi
jLa:__Z36scripting_class_get_method_from_nameP14ScriptingClassPKci
q6k:__ZN6il2cpp2os10ThreadImpl12QueueUserAPCEPFvPvES2_
F0:__Z32TransferEnumWithNameForceIntSizeI14SafeBinaryReadN10SampleClip17CompressionFormatEEvRT_RT0_PKc17TransferMetaFlags
Hbf:__ZN5physx12PxControllerD2Ev
ium:__ZNSt3__112__asprintf_lEPPcP15__locale_structPKcz
ZTl:__ZL81Input_t1785128008_CustomAttributesCacheGenerator_Input_get_touchCount_m2050827666P21CustomAttributesCache
Rzg:_Enum_IsDefined_m92789062
dwe:__ZNK5physx2Gu15HeightFieldUtil12traceSegmentI25CapsuleTraceSegmentReportLb0ELb0ELb1EEEvRKNS_6PxVec3ES6_PT_PS5_
Zw:__ZN15NavMeshSettings23VirtualRedirectTransferER13ProxyTransfer
UIb:_UNITY_png_read_filter_row_up
b_:__Z31AudioClip_Get_Custom_PropLengthP15ScriptingObject
P0:__ZN23CloudWebServicesManager25RemoveCloudServiceHandlerEP19CloudServiceHandler
wya:__ZN9ShaderLab16ParserSubProgram6BindCBEPKci
vef:_UNITY_FT_Hypot
DId:__ZN5physx10PxsContext23prepareCMDiscreteUpdateEPNS_10PxBaseTaskE
UK:__Z28Animator_CUSTOM_StringToHashP15ScriptingString
Kee:__Z43Register_UnityEngine_SpringJoint_set_damperv
THl:__ZL95ASCIIEncoding_t3022927988_CustomAttributesCacheGenerator_ASCIIEncoding_GetByteCount_m1396020051P21CustomAttributesCache
X5e:__ZN5physx6shdfnd5ArrayIPvNS0_19ReflectionAllocatorINS_2Cm5BlockIhLj256EEEEEE4copyINS0_15InlineAllocatorILj256ES7_EEEEvRKNS1_IS2_T_EE
Sqc:__ZNSt3__16vectorIN30RuntimeInitializeOnLoadManager9ClassInfoE13stl_allocatorIS2_L18MemLabelIdentifier12ELi16EEE7reserveEj
Sg:_emscripten_glGetError
JR:__Z14FMOD_FILE_SeekPvjS_
mWh:_DefaultCertificatePolicy__ctor_m4075407028
kwl:__ZL72Enum_t2459695545_CustomAttributesCacheGenerator_Enum_ToObject_m604645223P21CustomAttributesCache
tKi:_ShimEnumerator_get_Entry_m2387156530_gshared
qMe:__ZThn4_N16RayRTreeCallbackILi1ELb1EE14processResultsEjPj
QPl:__ZL75Screen_t786852042_CustomAttributesCacheGenerator_Screen_get_dpi_m3345126327P21CustomAttributesCache
nAb:__ZN10systeminfo18GetOperatingSystemEv
HTk:_UnityEvent_1_Invoke_m1298892870_gshared
Uti:_Rect_GetHashCode_m559954498_AdjustorThunk
DOb:__ZN6prcoreL18BlitIntegerToFloatERK14ImageReferenceRS0_
Hrk:_VirtualAxis_get_GetValueRaw_m2709463510
iqj:__Z36RuntimeInvoker_Matrix4x4_t2933234003PK10MethodInfoPvPS2_
SMk:_Transform_DetachChildren_m2873894053
pWi:_Collection_1_set_Item_m3803272710_gshared
cni:_Mesh_SetUVs_m841280343
WSb:__Z14resize_trimmedINSt3__16vectorI4PPtrI9Texture2DENS0_9allocatorIS4_EEEEEvRT_j
c_h:_X509Certificate2_get_SignatureAlgorithm_m3069898012
GWh:_HttpRequestCreator__ctor_m2513916021
Yve:__ZN27ConvexVsMeshOverlapCallbackC2ERKN5physx2Gu10ConvexMeshERKNS0_11PxMeshScaleERKNS0_2Cm23FastVertex2ShapeScalingERKNS0_11PxTransformESE_bRKNS1_3BoxE
JZa:__Z18SetIParticleSystemP15IParticleSystem
Fii:_GUIStyle_INTERNAL_CALL_Internal_CalcSizeWithConstraints_m1203344891
OJ:__ZN7mecanim5human13HumanFixTwistEPKNS0_5HumanEPNS_8skeleton13SkeletonPoseTIN4math4trsXEEES9_iiRKf
YNb:__ZL24AssignProjectorQueuesJobP30AssignProjectorQueuesJobHeader
Sxk:_TimeSpan_get_Hours_m3804628138
dOg:_FontData_set_alignByGeometry_m2819509290
c6j:_Regex__ctor_m3250610064
pTc:__ZN11ShapeModule9ResetSeedERK27ParticleSystemReadOnlyState
W5g:_ArgumentNullException__ctor_m911049464
GKe:__ZN13PhysicsModule17SetRigidBodyStateER9RigidbodyRKN8IPhysics14RigidBodyStateE
lSk:_InvokableCall_4_Find_m1467690987_gshared
J8i:_Comparison_1_Invoke_m345024424_gshared
lhf:_cf2_getStdVW
L5i:_ReadOnlyCollection_1_System_Collections_IList_Insert_m3936197025_gshared
kRa:__ZN8Renderer12GetTransformEv
GAg:_EventHandler_BeginInvoke_m3027583606
pRa:__ZN8Renderer17HealSubsetIndicesEv
Trk:_VirtualButton_get_GetButtonUp_m3641920231
ARd:__ZN5physx2Sq12BucketPruner11shiftOriginERKNS_6PxVec3E
Yqk:_ButtonHandler_SetAxisNeutralState_m331019132
mNj:_InternalEnumerator_1__ctor_m3220229132_AdjustorThunk
eke:__ZN5physx6shdfnd5ArrayIPNS_2Sc16ArticulationCoreENS0_19ReflectionAllocatorIS4_EEE15growAndPushBackERKS4_
PJk:_StateMachineBehaviour_OnStateEnter_m1095276890
fec:__Z16Transfer_BuiltinI11Quaternionf18StreamedBinaryReadILb1EELb0EEvRK29SerializationCommandArgumentsR31RuntimeSerializationCommandInfo
$uc:__ZN15SerializeTraitsI13dynamic_arrayI13BoneInfluenceLj16EEE19ResizeSTLStyleArrayERS2_i18MemLabelIdentifier
e1j:_ContextAttribute__ctor_m4006843177
mKj:_InternalEnumerator_1_get_Current_m314017974_AdjustorThunk
Ih:__setLetterbox
lYl:__ZL90Rigidbody_t4233889191_CustomAttributesCacheGenerator_Rigidbody_get_isKinematic_m2907467582P21CustomAttributesCache
izl:__ZL57CollectionBase_t1101587467_CustomAttributesCacheGeneratorP21CustomAttributesCache
Pue:__ZN18ContactCapsuleMesh20processTriangleCacheILj16EEEbRN5physx2Gu13TriangleCacheIXT_EEE
GUg:_LayoutElement_set_preferredWidth_m3072758716
gIa:__Z12SetGfxDeviceP9GfxDevice
wak:_Animation_Play_m112733823
PYh:_AsnEncodedData_ToString_m724151831
bZa:__ZN11TimeManager11GetRealtimeEv
pVi:_Collection_1_System_Collections_IList_get_IsFixedSize_m2408637569_gshared
CWf:_UTF8Encoding_GetByteCount_m1469571127
Ufe:__ZN5physx6shdfnd5ArrayIN12_GLOBAL__N_119VertexDistanceCountENS0_19ReflectionAllocatorIS3_EEE15growAndPushBackERKS3_
lyd:__ZN5physx2Sc16InteractionScene25removeFromActiveActorListERNS0_5ActorE
f1a:__Z15WeldVertexArrayR13dynamic_arrayI8Vector3fLj4EERS_I13BoneInfluenceLj16EERS_ItLj2EES7_
wEi:_MonoMethodInfo_GetDeclaringType_m4186531677
X3h:_SoapTypeAttribute_SetReflectionObject_m1566293812
BO:__ZN4PPtrI6AvatarE8TransferI18StreamedBinaryReadILb0EEEEvRT_
HPc:__ZNK11MinMaxCurve20FindMinMaxIntegratedEv
Taf:__ZN5physx3Ext21InertiaTensorComputer6rotateERKNS_7PxMat33E
yUi:_Enumerator_System_Collections_IEnumerator_Reset_m2573763156_AdjustorThunk
C5h:_RemotingServices_CreateClientProxy_m1631035355
hDk:_UInt64_ToString_m2892887310
nPa:__ZN12LineRenderer15InitializeClassEv
E0l:__ZL88GUIStyle_t1799908754_CustomAttributesCacheGenerator_GUIStyle_set_fixedHeight_m1517737608P21CustomAttributesCache
PRe:__ZN5physx3Pvd17PvdPropertyFilterINS_2Sn17RepXVisitorWriterINS_27PxVehicleTireLoadFilterDataEEEE14handleAccessorILj565ENS_22PxRepXPropertyAccessorILj565ES4_ffEEEEvRKT0_
yqc:__ZN15SerializeTraitsINSt3__14pairI8UnityStr4PPtrI6ObjectEEEE8TransferI13ProxyTransferEEvRS6_RT_
szf:__ZN18UnityConnectClient27OnPlayerSessionStateChangedEjyy
Etl:__ZNSt3__112__hash_tableINS_17__hash_value_typeIP14Il2CppIUnknownP15Il2CppComObjectEENS_22__unordered_map_hasherIS3_S6_NS_4hashIS3_EELb1EEENS_21__unordered_map_equalIS3_S6_NS_8equal_toIS3_EELb1EEENS_9allocatorIS6_EEE4findIS3_EENS_15__hash_iteratorIPNS_11__hash_nodeIS6_PvEEEERKT_
aaa:_stbir_resize
jsf:__ZNSt3__16vectorIN20TextRenderingPrivate4Font13CharacterInfoE13stl_allocatorIS3_L18MemLabelIdentifier34ELi16EEE6insertENS_11__wrap_iterIPKS3_EERS9_
Gl:_asinf
Ygc:__ZNSt3__16vectorIs13stl_allocatorIsL18MemLabelIdentifier1ELi16EEE8__appendEj
cRb:__ZN4PPtrI4MeshE8TransferI14SafeBinaryReadEEvRT_
wOd:__ZN5physx23PxcPCMContactCapsuleBoxERKNS_2Gu13GeometryUnionES3_RKNS_11PxTransformES6_RKfRNS_10PxcNpCacheERNS0_13ContactBufferE
VNc:__ZN14ParticleSystem31PlaybackSubEmitterCommandBufferERKS_R19ParticleSystemStateb
eib:__Z37ReadDirectoryInfo_UnityWebAndUnityRawR12FileAccessorRKN20ArchiveStorageHeader6HeaderERNS1_13DirectoryInfoE
WZf:_Array_InternalArray__IEnumerable_GetEnumerator_TisInt64_t909078037_m1219751804_gshared
srl:__ZNSt3__112__hash_tableINS_17__hash_value_typeINS_4pairIPK9EventInfoP11Il2CppClassEEP21Il2CppReflectionEventEENS_22__unordered_map_hasherIS8_SB_17ReflectionMapHashIS8_ELb1EEENS_21__unordered_map_equalIS8_SB_19ReflectionMapEqualsIS8_ELb1EEEN6il2cpp2gc9AllocatorISB_EEE15__insert_uniqueINS2_IKS8_SA_EEEENS2_INS_15__hash_iteratorIPNS_11__hash_nodeISB_PvEEEEbEEOT_
cyl:__ZL96RuntimeTypeHandle_t2330101084_CustomAttributesCacheGenerator_RuntimeTypeHandle_Equals_m452760426P21CustomAttributesCache
PQi:_Dictionary_2_ToTValue_m1381983709_gshared
flh:_MulticastDelegate_KPM_m1592985119
bv:__ZN9dtNavMesh17removeLinkBetweenEyy
lUg:_U3CCaretBlinkU3Ec__Iterator3_Dispose_m3510726682
_si:_RaycastHit2D_get_collider_m2568504212_AdjustorThunk
s0i:_Collection_1_ConvertItem_m3941916604_gshared
Stf:__ZN2UI6Canvas26MarkAllNestedCanvasesDirtyEv
oKa:__ZN16GeometryJobTasks20ScheduleGeometryJobsER9GfxDevicePFvP15GeometryJobDataEPK22GeometryJobInstructionjb
J8b:__ZN25PathNamePersistentManagerD2Ev
kab:__ZN17PersistentManager48IntegrateObjectAndUnlockIntegrationMutexInternalEi
t6i:_ReadOnlyCollection_1_System_Collections_IList_get_IsReadOnly_m3872065502_gshared
sBl:__ZL112TypeBuilder_t3308873219_CustomAttributesCacheGenerator_TypeBuilder_MakeGenericType_m4282022646____typeArguments0P21CustomAttributesCache
vyf:__ZN20UnityConnectSettings23VirtualRedirectTransferER13ProxyTransfer
_Cj:__Z89RuntimeInvoker_Il2CppObject_Scene_t1684909666_Scene_t1684909666_Il2CppObject_Il2CppObjectPK10MethodInfoPvPS2_
p$c:__ZN9b2Fixture11SynchronizeEP12b2BroadPhaseRK11b2TransformS4_
nde:__ZN9Rigidbody23VirtualRedirectTransferER14SafeBinaryRead
tvl:__ZL58Decimal_t724701077_CustomAttributesCacheGenerator_MinusOneP21CustomAttributesCache
Ji:_glStencilFunc
Hma:__ZN13RendererScene15InitializeUmbraEv
Sqg:_Convert_ToUInt16_m3991499696
Rbk:_AnimatorTransitionInfo_IsName_m2561957738_AdjustorThunk
Upk:_FirstPersonController_GetInput_m2030187255
vGg:_PointerEventData_ToString_m1218584363
Vi:___ctype_toupper_loc
Hfg:_Char_System_IConvertible_ToChar_m1489061093_AdjustorThunk
SVf:_UTF7Encoding_GetCharCount_m2589913583
hLd:__ZNK5physx15PxsParticleData15getWorldBoundsVEv
E8:_UNITY_png_write_sCAL_s
Jwa:__ZN9ShaderLab9IntShader8PostLoadEv
e3e:__ZThn4_N5physx5cloth9ClothImplINS0_7SwClothEE12setTrianglesENS0_5RangeIKNS_6PxVec3EEEjj
ffh:_MemoryStream_CalculateNewCapacity_m3533542025
r3l:__ZL66ExcludeFromDocsAttribute_t665825653_CustomAttributesCacheGeneratorP21CustomAttributesCache
RMe:__ZN12_GLOBAL__N_124HfTrianglesEntityReport27onEventEjPj
x4a:__ZN13MonoBehaviour14StartCoroutineEPKcP15ScriptingObject
Xee:__GLOBAL__sub_I_ExtDefaultSimulationFilterShader_cpp
LEe:__ZN5physx22NpParticleBaseTemplateINS_16PxParticleSystemENS_16NpParticleSystemEE17setStaticFrictionEf
K9j:_Uri_Reduce_m2577728307
ryk:_TimeSpan_Equals_m4102942751_AdjustorThunk
EMi:_ValueCollection_System_Collections_Generic_ICollectionU3CTValueU3E_Add_m1903672223_gshared
mgc:__ZNSt3__16vectorI8MonoPPtr13stl_allocatorIS1_L18MemLabelIdentifier1ELi16EEE6assignINS_11__wrap_iterIPS1_EEEENS_9enable_ifIXaasr21__is_forward_iteratorIT_EE5valuesr16is_constructibleIS1_NS_15iterator_traitsISB_E9referenceEEE5valueEvE4typeESB_SB_
BTc:__ZN15CollisionModule8AllocateERK27ParticleSystemReadOnlyStateR19ParticleSystemState
kX:__ZN4FMOD6SoundI7releaseEv
YJe:__ZN5physx20NpRigidActorTemplateINS_14PxRigidDynamicEE15setActorSimFlagEb
kGa:__ZN14SpriteRenderer13AwakeFromLoadE17AwakeFromLoadMode
UGg:_MouseButtonEventData__ctor_m618518000
Jjb:__ZN10MemoryFile9SetLengthEy
rBk:_UInt16_ToString_m2038947049_AdjustorThunk
LGf:__ZL24StaticInitializeIUnityVRPv
G1c:__ZNK15b2RevoluteJoint10GetAnchorBEv
d6c:__ZNK5physx3Cct26CharacterControllerManager16getNbControllersEv
hj:_glTexStorage2D
N3f:_Array_InternalArray__Insert_TisRaycastHit2D_t4063908774_m3174907903_gshared
Zwa:__ZNK9ShaderLab10SubProgram14EnsureCompiledEv
tZe:__ZN5physx6shdfnd4sortIPvNS0_4LessIS2_EENS0_19ReflectionAllocatorIN17PxcPoolMallocData10PoolData16EEEEEvPT_jRKT0_RKT1_
_7h:_ObjectManager_RecordFixup_m3572285566
dZf:_ExecuteEvents_CanHandleEvent_TisIl2CppObject_m1201779629_gshared
Zzl:__ZL55DaylightTime_t3800227331_CustomAttributesCacheGeneratorP21CustomAttributesCache
PQe:__ZN5physx7profile10DataBufferINS_6shdfnd6MutexTINS0_26WrapperReflectionAllocatorIhEEEENS0_14ScopedLockImplIS6_EEE17handleBufferFlushEPKhj
umg:_SortedList_InitTable_m460350503
Zvi:_Assembly_GetType_m2378249586
RNc:__ZN14ParticleSystem17SimulateParticlesERK27ParticleSystemReadOnlyStateR19ParticleSystemStateR23ParticleSystemParticlesjRKfPj
eHj:_InternalEnumerator_1_get_Current_m4279678504_AdjustorThunk
mWb:__ZNK11GradientNEW8EvaluateEf
Pbf:__ZN13RuntimeStaticINSt3__16vectorIjNS0_9allocatorIjEEEEE13StaticDestroyEPv
Fz:__ZNK16LevelGameManager7GetNameEv
YBd:__ZThn4_N5physx5cloth9ClothImplINS0_7SwClothEE23setSelfCollisionIndicesENS0_5RangeIKjEE
rVi:_Collection_1_System_Collections_IList_get_Item_m2415649949_gshared
cVl:__ZL93Component_t3819376471_CustomAttributesCacheGenerator_Component_SendMessageUpwards_m2584088787P21CustomAttributesCache
aBi:_ILTokenInfo_t149559338_marshal_pinvoke_cleanup
U_i:_Collection_1_Remove_m2358120395_gshared
Oh:_JS_SystemInfo_HasWebGL
wzf:__ZN18UnityConnectClient15GetCloudServiceEv
WHd:__ZN5physx20PxsConstraintProjectEPKNS_13PxsConstraintEbf
Khd:__ZN5physx7NpShape7setFlagENS_11PxShapeFlag4EnumEb
hdm:__ZL86WaypointCircuit_t2375210762_CustomAttributesCacheGenerator_U3CLengthU3Ek__BackingFieldP21CustomAttributesCache
P$c:__ZN15b2CircleContact6CreateEP9b2FixtureiS1_iP16b2BlockAllocator
dDh:_Enumerator_System_Collections_IEnumerator_Reset_m1436660297_gshared
EBm:_emscripten_glBufferData__wrapper
Jfa:__ZN10TagManager32RegisterDefaultTagsAndLayerMasksEv
dCd:__ZN5physx5cloth9ClothImplINS0_7SwClothEE19setVirtualParticlesENS0_5RangeIA4_KjEENS4_IKNS_6PxVec3EEE
RTb:__ZL11term_sourceP22jpeg_decompress_struct
qNi:_ValueCollection_get_Count_m4142113966_gshared
w2l:__ZL118AttributeHelperEngine_t958797062_CustomAttributesCacheGenerator_AttributeHelperEngine_GetRequiredComponents_m120894667P21CustomAttributesCache
cwd:__ZN5physx2Sc35ParticleElementRbElementInteraction12onDeactivateEj
cUe:__ZNK5physx27PxVehicleDriveGeneratedInfo23visitInstancePropertiesINS_18RepXPropertyFilterINS_2Sn17RepXVisitorWriterINS_16PxVehicleDriveNWEEEEEEEjT_j
mwk:_SynchronizationLockException__ctor_m549086841
PRl:__ZL105RectTransform_t3349966182_CustomAttributesCacheGenerator_RectTransform_INTERNAL_get_sizeDelta_m3975625099P21CustomAttributesCache
PWd:__Z36getPxVehicleDrive4W_ConcreteTypeNamePKN5physx16PxVehicleDrive4WE
l8d:__ZN19CharacterController9GetBoundsEv
qTd:__ZN5physx23PxVehicleWheels4SimData17setSuspensionDataEjRKNS_23PxVehicleSuspensionDataE
rhg:_ArrayList_InsertRange_m1478230997
oHb:__ZN4gles8InitCapsEP7ApiGLESP12GraphicsCapsR16GfxDeviceLevelGL
Ail:__ZN21InterfaceFuncInvoker1IP8String_tP12Il2CppObjectE6InvokeEjP11Il2CppClassPvS3_
Eta:__ZN6prcore14BlitImageFloatERK14ImageReferenceRS0_NS0_8BlitModeE
xcg:_Swapper_EndInvoke_m677693941
Dla:__Z24CalculateVertexLightDataRK15SharedLightDataR14GfxVertexLight
omi:_Matrix4x4_Equals_m1321236479_AdjustorThunk
Wj:_glEnable
Klb:__ZNK13Lz4Compressor29CalculateCompressedBufferSizeEj
ixa:__ZNK9ShaderLab7Program28BeginReadUnsupportedVariantsEv
I1l:__ZL99UnityWebRequest_t254341728_CustomAttributesCacheGenerator_UnityWebRequest_InternalAbort_m1744334222P21CustomAttributesCache
n9h:_RuntimeMethodHandle__ctor_m2437574937_AdjustorThunk
Ypa:__Z20DoDeferredRenderLoopR17RenderLoopContextR13dynamic_arrayI16RenderObjectDataLj4EES4_RK11CullResultsRP13RenderTextureSA_Pb
VQd:__ZN5physx2Sq8AABBTreeC2Ev
TAk:_UInt16_System_IConvertible_ToInt64_m2835280558_AdjustorThunk
bCc:__ZN20SphericalHarmonicsL28TransferI18StreamedBinaryReadILb1EEEEvRT_
fsi:_Quaternion_GetHashCode_m2270520528_AdjustorThunk
gPl:__ZL53g_UnityEngine_Assembly_CustomAttributesCacheGeneratorP21CustomAttributesCache
dRk:_Predicate_1_BeginInvoke_m3926587117_gshared
G5f:_Array_Resize_TisIl2CppObject_m1113434054_gshared
wwi:_AssemblyName_get_Name_m1815759940
ysb:__Z37AsyncOperation_CUSTOM_InternalDestroyP15ScriptingObject
vgl:__ZN16VirtFuncInvoker5IiP22ByteU5BU5D_t3397334013iiS1_iE6InvokeEjPvS1_iiS1_i
dmb:_LzmaDec_Allocate
Yem:__ZNSt3__16vectorI20Il2CppStackFrameInfoNS_9allocatorIS1_EEE7reserveEj
jRh:_List_1__cctor_m1022807427_gshared
NEc:__ZN15dense_hashtableINSt3__14pairIKiN11AssetBundle18ClassCompatibilityEEEi21InstanceIDHashFunctorN14dense_hash_mapIiS4_S6_NS0_8equal_toIiEE13stl_allocatorIS5_L18MemLabelIdentifier65ELi16EEE9SelectKeyES9_SC_E12resize_deltaEjj
mSd:__ZN5physx21PxVehicleDriveDynDataC2Ev
LFf:__Z68Register_UnityEngine_Networking_UnityWebRequest_get_downloadProgressv
Xng:_Convert_ToBoolean_m2188088811
Dkj:__Z115RuntimeInvoker_Boolean_t3825574718_Il2CppObject_Int32_t2071877448_Il2CppObject_SByte_t454417549_Int32U26_t455636984PK10MethodInfoPvPS2_
Hlk:_CustomAnimationPlayable__ctor_m2580931540
H1d:__ZN5physx2Gu10ConvexMeshD2Ev
fVf:_UnicodeEncoding_GetChars_m3765282346
tbh:_IntPtr__ctor_m4104029105
xFl:__ZL114BinaryFormatter_t1866979105_CustomAttributesCacheGenerator_BinaryFormatter_get_DefaultSurrogateSelector_m219714691P21CustomAttributesCache
dkh:_MonoType_get_attributes_m1493788675
Elm:_atol
pdl:__ZN6il2cpp6icalls8mscorlib6System10Reflection9FieldInfo25internal_from_handle_typeE12Il2CppIntPtrS5_
QWd:__ZN5physx29PxVehicleDrive4WGeneratedInfoC2Ev
rpg:_Convert_ToDouble_m4236754739
J2c:__ZN15dense_hashtableINSt3__14pairIKNS1_IPK10Collider2DS4_EEjEES5_NS2_23ColliderPairHashFunctorEN14dense_hash_mapIS5_jS8_NS0_8equal_toIS5_EE13stl_allocatorIS7_L18MemLabelIdentifier65ELi16EEE9SelectKeyESB_SE_E14squash_deletedEv
sNg:_Dropdown_CreateItem_m2702141380
qTa:__ZNK6Sprite24GetRenderDataForPlayModeEv
Fzl:__ZL48Stack_t1043988394_CustomAttributesCacheGeneratorP21CustomAttributesCache
Uq:FUNCTION_TABLE_viifi
Xq:FUNCTION_TABLE_viiff
oPa:__ZN12LineRenderer12CleanupClassEv
Ypm:__ZNKSt3__18time_getIwNS_19istreambuf_iteratorIwNS_11char_traitsIwEEEEE11__get_am_pmERiRS4_S4_RjRKNS_5ctypeIwEE
npb:__Z30RectOffset_Get_Custom_PropLeftP15ScriptingObject
Ite:__Z32getPxVehicleDriveNWMDriveSimDataPKN5physx16PxVehicleDriveNWE
HEi:_MonoEvent_GetAddMethod_m4289563120
Nxl:__ZL37Type_t_CustomAttributesCacheGeneratorP21CustomAttributesCache
Njf:_UNITY_tt_face_free_hdmx
x0k:__ZN6il2cpp2vm14TypeNameParser5ParseEb
Fmk:_Playable_INTERNAL_CALL_IsValidInternal_m3509544226
irk:_VirtualInput_RegisterVirtualAxis_m702313030
Fjj:__Z51RuntimeInvoker_Int16_t4041245914_Single_t2076509932PK10MethodInfoPvPS2_
dzl:__ZL71SynchronizedArrayListWrapper_t3317806524_CustomAttributesCacheGeneratorP21CustomAttributesCache
a6e:__ZN5physx6shdfnd5ArrayIPvNS0_19ReflectionAllocatorINS_2Cm5BlockIhLj128EEEEEE15growAndPushBackERKS2_
xBf:__ZN23UnityPurchasingSettingsC2Ev
lzg:_Double_ToString_m1864290157
rWa:__ZNK9Transform13GetWorldScaleEv
FPk:_WWWTranscoder_Encode_m4207510302
UJj:_InternalEnumerator_1_get_Current_m4154059426_AdjustorThunk
AFe:__ZN5physx2Sc11Interaction10onActivateEj
gOe:__ZNK5physx2Gu29EPASupportMapPairRelativeImplINS0_4BoxVENS0_11ConvexHullVEE6getDirEv
eid:__ZN5physx14NpShapeManager15setupSceneQueryERNS_2Sq17SceneQueryManagerERKNS_12PxRigidActorERKNS_7NpShapeE
IRe:__ZN5physx3Pvd17PvdPropertyFilterINS_2Sn17RepXVisitorWriterINS_22PxVehicleWheelsSimDataEEEE27handleExtendedIndexPropertyILj616ES4_NS_6PxVec3EKjNS_18PxUnknownClassInfoEEEvjRKNS_29PxExtendedIndexedPropertyInfoIXT_ET0_T2_T1_EERKT3_
Trf:__ZN18StreamedBinaryReadILb0EE21TransferSTLStyleArrayI10vector_mapINSt3__14pairIttEEfN20TextRenderingPrivate4Font14KerningCompareENS3_9allocatorINS4_IS5_fEEEEEEEvRT_17TransferMetaFlags
J_i:_Collection_1_System_Collections_IList_get_Item_m1122792492_gshared
lFc:__ZL37stbir__resample_horizontal_downsampleP11stbir__infoiPf
Fgj:__Z78RuntimeInvoker_IntPtr_t_Il2CppObject_Int32U26_t455636984_ModuleU26_t4102634234PK10MethodInfoPvPS2_
nea:__ZNK5Unity9Component38MarkGameObjectAndComponentDependenciesER27GarbageCollectorThreadState
Dkl:__ZL24il2cpp_codegen_no_returnv514
gCd:__ZNK5physx5cloth11SwClothData9reconcileERNS0_7SwClothE
Yyd:__ZNK5physx2Sc9ClothCore23getExternalAccelerationEv
Vzf:__ZN11UnityEngine15PlatformWrapper13IsDebugDeviceEv
T$:__ZNK7Texture21GetShadowSamplingModeEv
hve:__ZN5physx2Gu13coarseCullingERKNS_6PxVec3ES3_ffRKNS_10PxTriangleE
C7b:__ZN13ScreenManager21OnWindowRegainedFocusEv
tCd:__ZN5physx5cloth11SwCollisionI8Scalar4fE16collideTrianglesERKNS0_14IterationStateIS2_EE
Zek:_WillRenderCanvases_BeginInvoke_m1914028027
Fdh:_FileStream_get_CanRead_m4148920720
Msd:__ZN5physx2Sc5Scene29processNarrowPhaseTouchEventsEv
PMa:__ZN4crnd12symbol_codec32decode_receive_static_data_modelERNS_25static_huffman_data_modelE
dmk:_Playables_GetTimeValidated_m788360268
H6a:__ZN18ScriptingArguments8AddFloatEf
es:__ZN12NavMeshAgent16AddToCrowdSystemEv
ALg:_FloatTween_get_targetValue_m2120061648_AdjustorThunk
Vy:__ZNSt3__16__treeIiNS_4lessIiEENS_9allocatorIiEEE7destroyEPNS_11__tree_nodeIiPvEE
ylk:_AnimatorControllerPlayable_get_node_m127621219_AdjustorThunk
Azj:__Z71RuntimeInvoker_Void_t1841601450_Int32_t2071877448_UriScheme_t1876590943PK10MethodInfoPvPS2_
YXf:_Array_InternalArray__ICollection_Contains_TisVector2_t2243707579_m3625698589_gshared
YYb:__ZN8Remapper21GetOrGenerateMemoryIDERK26SerializedObjectIdentifier
Ovl:__ZL70IntPtr_t_CustomAttributesCacheGenerator_IntPtr_op_Equality_m1573482188P21CustomAttributesCache
qye:__ZN5Unity11SpringJoint8TransferI19StreamedBinaryWriteILb0EEEEvRT_
g2:__ZN11UnityEngine15CloudWebService14DataDispatcher34OnSessionContainerArchivedAndReadyERNS0_16SessionContainerE
C$c:__ZN7b2World11CreateJointEPK10b2JointDef
qzb:__ZN13EmscriptenWWW10OnResponseEPviS0_jPc
MOc:__ZN23ParticleSystemParticles20SetUsesTriggerEventsEb
T6c:__ZNK5physx3Cct15ObstacleContext11getObstacleEj
zth:_CipherSuiteCollection__ctor_m2154226461
A$c:__ZN7b2World11DestroyBodyEP6b2Body
Np:FUNCTION_TABLE_vifiiiiiiiiiiiiiiiiiii
Ock:_AudioClip_get_length_m3881628918
NXe:__ZN5physx2Sn21RepXVisitorReaderBaseINS_23PxVehicleDriveSimData4WEE15complexPropertyINS_22PxRepXPropertyAccessorILj657ENS_21PxVehicleDriveSimDataERKNS_18PxVehicleGearsDataES7_EEKNS_31PxVehicleGearsDataGeneratedInfoEEEvPjRKT_RT0_
hgc:__ZNSt3__16vectorINS_12basic_stringIcNS_11char_traitsIcEE13stl_allocatorIcL18MemLabelIdentifier1ELi16EEEES4_IS7_LS5_1ELi16EEE7reserveEj
Uqf:_gray_move_to
oNl:__ZL62WebHeaderCollection_t3028142837_CustomAttributesCacheGeneratorP21CustomAttributesCache
Eqa:__Z34GetNonInterpolatedLightAttenuationRK17LightProbeContextjPK15SharedLightData
qkk:_UnityAction_BeginInvoke_m407736228
R$i:_Collection_1_System_Collections_IEnumerable_GetEnumerator_m4174600764_gshared
n2j:_ConstructionCall_InitDictionary_m4046452035
PFh:_List_1_Remove_m2059743237_gshared
grm:__ZNKSt3__19money_getIcNS_19istreambuf_iteratorIcNS_11char_traitsIcEEEEE6do_getES4_S4_bRNS_8ios_baseERjRNS_12basic_stringIcS3_NS_9allocatorIcEEEE
P$k:__ZN6il2cpp2vm10Reflection14GetEventObjectEP11Il2CppClassPK9EventInfo
Utj:__Z43RuntimeInvoker_VerticalWrapMode_t3668245347PK10MethodInfoPvPS2_
Lwh:_TlsStream_Write_m2271546135
I9b:__ZN20LocalFileSystemPosixD0Ev
ymb:__Z23GetGlobalBoolPreferencePKcb
gCg:_CultureInfo_ConstructInternalLocaleFromCurrentLocale_m1342751405
Zjj:__Z50RuntimeInvoker_UInt16_t986882611_Int16_t4041245914PK10MethodInfoPvPS2_
u9b:__ZN21AssetBundleFileSystem5WriteER13FileEntryDatayPvPy
Dqh:_MD2_Create_m539024737
uUf:_Latin1Encoding_GetString_m3553289597
cXc:__ZN4PPtrI14ParticleSystemE8TransferI19StreamedBinaryWriteILb0EEEEvRT_
zpe:__ZN5physx13IslandManager6resizeEj
Nnf:_tt_cmap_init
Kgk:_Color_get_grey_m1961362537
Nb:invoke_viidi
euk:_U3CResetCoroutineU3Ec__Iterator4_Dispose_m112201023
VOc:__ZN22ParticleSystemRenderer23VirtualRedirectTransferER13ProxyTransfer
nJi:_Enumerator_get_Current_m1020413567_AdjustorThunk
hIh:_List_1_System_Collections_IList_get_IsFixedSize_m1122077912_gshared
mAj:__Z48RuntimeInvoker_Link_t865133271_Int32_t2071877448PK10MethodInfoPvPS2_
ble:__ZN5physx6shdfnd8PoolBaseINS_2Cm5BlockIPvLj16EEENS0_19ReflectionAllocatorIS5_EEE17releaseEmptySlabsEv
bHh:_List_1_System_Collections_ICollection_CopyTo_m2020941110_gshared
Vik:_Display_RecreateDisplayList_m3412638488
IQ:__ZN9AudioClip7CleanupEv
mLl:__ZL79Convert_t2607082565_CustomAttributesCacheGenerator_Convert_ToUInt64_m2215781574P21CustomAttributesCache
pMb:__ZNSt3__16vectorIN11HaloManager4HaloENS_9allocatorIS2_EEE21__push_back_slow_pathIKS2_EEvRT_
oVa:__ZN14Texture2DArray13RegisterClassEv
LHm:_emscripten_glCheckFramebufferStatus__wrapper
Ark:_CrossPlatformInputManager_SetVirtualMousePositionZ_m2822278327
dge:__ZL20updateMassAndInertiabRN5physx11PxRigidBodyEPKfjPKNS_6PxVec3Eb
KXe:__ZN5physx2Sn21RepXVisitorReaderBaseINS_27PxVehicleDifferential4WDataEE12readPropertyIfEEbRT_
N5j:_PatternLinkStack_GetOffset_m2889934101
bZg:_SimpleCollator_LastIndexOfOrdinalIgnoreCase_m550798345
$wb:__Z43Transform_CUSTOM_INTERNAL_set_localRotationP15ScriptingObjectRK11Quaternionf
WYk:__ZN6il2cpp2vm21ThreadPoolCompartment13QueueWorkItemEP17Il2CppAsyncResult
PSh:_Collection_1_Contains_m3864746967_gshared
_o:FUNCTION_TABLE_viiiiiifiii
nJa:__ZNK9GfxDevice13GetViewMatrixEv
O8a:__ZN17RemapPPtrTransferC2E24TransferInstructionFlagsb
c5l:__ZL100PointerEventData_t1599784723_CustomAttributesCacheGenerator_PointerEventData_get_dragging_m220490640P21CustomAttributesCache
sbb:__ZN8TypeTree8BlobReadERPKhS1_ib
Shg:_ArrayListWrapper_get_SyncRoot_m2617104509
yOb:__ZNSt3__16vectorINS_4pairIiiEE13stl_allocatorIS2_L18MemLabelIdentifier1ELi16EEE21__push_back_slow_pathIKS2_EEvRT_
r6a:__ZN18LoadSceneOperation23GetAllowSceneActivationEv
pLb:__ZN15SerializeTraitsI14ConstantStringE8TransferI19StreamedBinaryWriteILb0EEEEvRS0_RT_
F7:_UNITY_png_set_bKGD
j3b:__ZN6CameraD0Ev
VVl:__ZL105GameObject_t1756533147_CustomAttributesCacheGenerator_GameObject_BroadcastMessage_m3472370570____options2P21CustomAttributesCache
S_g:_ModulusRing_Multiply_m386339435
Wja:__ZN31CanvasBatchIntermediateRenderer16StaticInitializeEPv
B3i:_ReadOnlyCollection_1_System_Collections_IList_RemoveAt_m3004588099_gshared
bpg:_Decimal_op_Implicit_m4246329390
Y5g:_ArgumentNullException__ctor_m2252076819
uda:__ZN10GameObjectC2E18MemLabelIdentifier18ObjectCreationMode
Amf:_raccess_guess_apple_double
qMk:_Transform_INTERNAL_set_localScale_m3680777866
eVh:_ListDictionary_GetEnumerator_m1511032609
Qyi:_TypeBuilder_get_FullName_m1626507516
Uya:__Z16realloc_internalPvji18MemLabelIdentifieriPKci
v7h:_SerializationInfo__ctor_m4016423422
jac:__ZL18ProgramUniform1uivPK7ApiGLESjiihPKv
jVa:__ZN14Texture2DArray13RebuildMipMapEv
cWi:_Collection_1_Clear_m2734620236_gshared
bU:__ZN24AudioScriptBufferManager15GetPCMReadArrayEjRP14ScriptingArray
Crm:__ZNSt3__18messagesIcED0Ev
btf:__ZN2UI14CanvasRenderer12CleanupClassEv
gBe:__ZNK5physx19NpRigidBodyTemplateINS_18PxArticulationLinkEE27getMinCCDAdvanceCoefficientEv
GNf:_SecurityException_get_PermissionState_m824616682
yme:__ZN12_GLOBAL__N_111storeBoundsI8Scalar4fEEvPfRKN5physx5cloth11BoundingBoxIT_EE
gIi:_ResourceSet_ReadResources_m1669023823
Nz:__ZN11DynamicMesh10DetailHullaSERKS0_
iu:__ZN11dtPathQueueC2Ev
AXl:__ZL107Collision_t2876846408_CustomAttributesCacheGenerator_Collision_t2876846408____frictionForceSum_PropertyInfoP21CustomAttributesCache
mz:__ZN6Object23VirtualRedirectTransferER19StreamedBinaryWriteILb1EE
RSa:__ZN13ScreenManager18SetAllowCursorLockEb
frc:__ZN30RuntimeInitializeOnLoadManager15ClassMethodInfo8TransferI14SafeBinaryReadEEvRT_
VFe:__ZNK5physx2Sc10ClothShape8isActiveEv
QOc:__ZN23ParticleSystemParticles14element_assignEjj
U7a:__ZN9TextAsset8TransferI14SafeBinaryReadEEvRT_
s$:__ZL22InitializeModule_Audiov
HRd:__ZN5physx2Sq11PruningPoolD0Ev
ijb:__ZN16MemoryFileSystem8IsLockedERK13FileEntryData
xGd:__ZN3MBP15removeBoxPrunerEj
jdm:__ZL97WaypointCircuit_t2375210762_CustomAttributesCacheGenerator_WaypointCircuit_set_Length_m3662637174P21CustomAttributesCache
Jec:__Z16Transfer_BuiltinIj18StreamedBinaryReadILb1EELb1EEvRK29SerializationCommandArgumentsR31RuntimeSerializationCommandInfo
wNk:_Vector2_get_Item_m2792130561_AdjustorThunk
MNc:__ZN14ParticleSystem23OnGeometryJobsScheduledEj
nIi:_SatelliteContractVersionAttribute__ctor_m2605651717
Um:_emscripten_glBindRenderbuffer
ASf:_DecoderExceptionFallbackBuffer_GetNextChar_m1727394816
Gbl:_GC_dirty_init
yte:__Z39getPxVehicleDriveDynDataMGearSwitchTimePKN5physx21PxVehicleDriveDynDataE
X6h:_MessageFormatter_ReadMethodResponse_m4134629501
r5k:__ZN6il2cpp2vm5Field14GetValueObjectEP9FieldInfoP12Il2CppObject
nuf:__ZNK2UI6Canvas16GetTargetDisplayEv
aQc:__Z25GetTransformationMatricesRPK10Matrix4x4fS2_bbRS0_S3_
tAg:_Environment_get_OSVersion_m1247315981
A0e:__ZN5physx6shdfnd4sortIPvNS0_4LessIS2_EENS0_19ReflectionAllocatorINS_21PxsBodyTransformVault13PxsBody2WorldEEEEEvPT_jRKT0_RKT1_
zbf:__ZL15SweepBoxCapsulePKN5physx3Cct9SweepTestEPKNS0_11SweptVolumeEPKNS0_11TouchedGeomERKNS_14PxExtendedVec3ERKNS_6PxVec3ERNS0_12SweptContactE
$0h:_Capture_get_Length_m1952322390
dPd:__ZN5physx22getImpulseResponseSlowERKNS_9PxcFsDataEjRKNS_14PxcSIMDSpatialERS3_jS5_S6_
hmc:__Z16Transfer_BuiltinI8BitField17RemapPPtrTransferLb1EEvRK29SerializationCommandArgumentsR31RuntimeSerializationCommandInfo
g4a:__ZN13MonoBehaviour17RemoveFromManagerEv
nVe:__ZN5physx2Sn21RepXVisitorReaderBaseINS_23PxVehicleDriveSimDataNWEE15complexPropertyINS_22PxRepXPropertyAccessorILj659ENS_21PxVehicleDriveSimDataERKNS_20PxVehicleAutoBoxDataES7_EEKNS_33PxVehicleAutoBoxDataGeneratedInfoEEEvPjRKT_RT0_
fwd:__ZN5physx2Sc19ParticlePacketShapeD2Ev
Hxf:__ZL23RegisterModuleICalls_UIv
lbc:__ZL11DecodeValuePPKcS0_
NKi:_ShimEnumerator_MoveNext_m2013866013_gshared
zFa:__ZN12SkinMeshInfo10DeallocateEPS_
wMk:_Transform_SetParent_m1963830867
Gib:__ZN20ArchiveStorageReader28AcquireAndPrefillUnusedBlockEjPNS_11CacheResultE
Oml:__ZN21InterfaceFuncInvoker1I40CustomAttributeTypedArgument_t1498197914iE6InvokeEjP11Il2CppClassPvi
alj:__Z78RuntimeInvoker_Il2CppObject_SByte_t454417549_SByte_t454417549_SByte_t454417549PK10MethodInfoPvPS2_
DTb:__Z12NHxRoughnessIA4_tEvP9Texture2DPT_iiii
sLk:_Touch_get_phase_m196706494_AdjustorThunk
x3j:_MethodDictionary_get_SyncRoot_m673971424
Bcf:__Z6simd4iiiii
kWa:__ZN9Transform5ResetEv
hQc:__ZN29ParticleSystemPropertyBinding49InitializeParticleSystemAnimationBindingInterfaceEv
H7a:__ZN9TextAsset9SetScriptERK8UnityStr
kVc:__ZL35RegisterModuleICalls_ParticleSystemv
ozb:__Z17MainLoopKeepalivePv
Qed:__ZN5physx7NpScene16addActorInternalERNS_7PxActorE
K4j:_MatchCollection__ctor_m1944681790
tBf:__ZN18CrashReportHandler25UnregisterGlobalCallbacksEv
cdi:_HMACSHA512__ctor_m1667460019
apa:__Z24ScheduleCullingAllGroupsR8JobFenceRK22SceneCullingParameters4PPtrI6CameraERK13CullingOutputRK13dynamic_arrayIP12CullingGroupLj4EERKS_
zLk:_Touch_t407273883_marshal_pinvoke_cleanup
$Kf:_ToBase64Transform_get_OutputBlockSize_m949275583
p0i:_Collection_1_set_Item_m3254085220_gshared
Ssa:__Z14CalcHullBoundsPK8Vector3fPKhhRK5PlaneRK10Matrix4x4fR10MinMaxAABB
D4h:_RealProxy__ctor_m2147093603
Usi:_RaycastHit2D_get_point_m442317739_AdjustorThunk
B8b:__ZN11PreloadData39ShouldIgnoreInGarbageDependencyTrackingEv
oPh:_List_1__ctor_m3511181530_gshared
Pqa:__Z19SetupLODFadeKeywordR17ShaderPassContexti
BEe:__ZN5physx22NpParticleBaseTemplateINS_16PxParticleSystemENS_16NpParticleSystemEE23setExternalAccelerationERKNS_6PxVec3E
M3i:_ReadOnlyCollection_1_get_Count_m2180604490_gshared
Fvl:__ZL81Decimal_t724701077_CustomAttributesCacheGenerator_Decimal_op_Implicit_m2135798419P21CustomAttributesCache
Z1b:__ZL25CheckCopyTextureArgumentsRK7ApiGLESP11GLESTextureS3_
eTb:__ZN13dynamic_arrayI26EnlightenSystemInformationLj8EE6insertEPS0_PKS0_S4_
Gre:__Z30getPxVehicleGearsDataMNbRatiosPKN5physx18PxVehicleGearsDataE
hlh:_MulticastNotSupportedException__ctor_m2164514827
esg:_DateTime_System_IConvertible_ToChar_m2489529194_AdjustorThunk
all:__ZN23InterfaceActionInvoker2IP24ObjectU5BU5D_t3614634134iE6InvokeEjP11Il2CppClassPvS1_i
bce:__ZN14PhysicsManager23VirtualRedirectTransferER18StreamedBinaryReadILb1EE
EX:__ZN4FMOD7SystemI9playSoundE17FMOD_CHANNELINDEXPNS_5SoundEbPPNS_7ChannelE
m_:__Z42Register_UnityEngine_AudioSource_set_pitchv
Mck:_AttributeHelperEngine_GetRequiredComponents_m120894667
NTl:__ZL77Input_t1785128008_CustomAttributesCacheGenerator_Input_GetAxisRaw_m4133353720P21CustomAttributesCache
r6j:_Regex_GetGroupIndex_m1686599756
Uui:_RectTransformUtility_PixelAdjustRect_m93024038
Ild:__ZNK5physx7NpCloth16getStretchConfigENS_22PxClothFabricPhaseType4EnumE
iqk:_RigidbodyFirstPersonController_get_Velocity_m2413726977
ulk:_AnimationPlayableUtilities_SetInputValidated_m2748997465
Kse:__Z41getPxVehicleSuspensionDataMSpringStrengthPKN5physx23PxVehicleSuspensionDataE
LGh:_List_1_Remove_m2616693989_gshared
ERb:__ZN14SpriteRenderer8TransferI18StreamedBinaryReadILb0EEEEvRT_
ONd:__ZN5physx16solveExtFrictionERKNS_23PxcSolverConstraintDescERNS_16PxcSolverContextE
Xlm:_realloc
tRc:__ZN27ColorModulePropertyBindings13GetFloatValueERK14ParticleSystemi
wxb:__Z57Register_UnityEngine_Transform_INTERNAL_get_localRotationv
k8l:__ZL60Scrollbar_t3248359358_CustomAttributesCacheGenerator_m_ValueP21CustomAttributesCache
j2a:__ZN30RuntimeInitializeOnLoadManager23VirtualRedirectTransferER17RemapPPtrTransfer
nym:dynCall_viif
_Ei:_MonoField_get_DeclaringType_m1591666235
CEj:_InternalEnumerator_1__ctor_m2111763266_AdjustorThunk
_Wc:__Z9UpdateTplIL27ParticleSystemCurveEvalMode3EEvRK11MinMaxCurveRK23ParticleSystemParticlesPf8Vector2f
mqj:__Z90RuntimeInvoker_Void_t1841601450_Vector3_t2243707580_Vector3_t2243707580_Single_t2076509932PK10MethodInfoPvPS2_
Spb:__Z39RenderTexture_CUSTOM_Internal_GetHeightP15ScriptingObject
PAc:__ZN29MotionVectorRenderLoopScratchD2Ev
sfm:__ZNSt3__112__hash_tableINS_17__hash_value_typeINS_4pairIPKcS4_EEiEENS_22__unordered_map_hasherIS5_S6_24NamespaceAndNamePairHashLb1EEENS_21__unordered_map_equalIS5_S6_26NamespaceAndNamePairEqualsLb1EEENS_9allocatorIS6_EEE20__node_insert_uniqueEPNS_11__hash_nodeIS6_PvEE
bfe:__GLOBAL__sub_I_PxsFluidDynamics_cpp
hBc:__ZN14qsort_internal8_QSortMTIP16RenderObjectDatai26RenderDeferredObjectSorterE14SortMTInternalES2_S2_iS3_RK8JobFence
uF:__ZN17AnimationPlayable26DisconnectNoTopologyChangeEPS_i
w4b:__ZN3WWW12SetAudioClipEP9AudioClip
Bba:__Z43DestroyWithoutLoadingButDontDestroyFromFilei
Ind:__ZN5physx2Sc21ArticulationJointCore28setSwingLimitContactDistanceEf
ekh:_MonoType_GetDefaultConstructor_m925465120
RAe:__ZNK5physx20NpRigidActorTemplateINS_18PxArticulationLinkEE14getConstraintsEPPNS_12PxConstraintEjj
Vym:dynCall_viifffi
FGf:__ZN13UploadHandlerD2Ev
swm:dynCall_viiiiiffi
LYl:__ZL95Physics2D_t2540166467_CustomAttributesCacheGenerator_Physics2D_Raycast_m2303387255____distance2P21CustomAttributesCache
qd:_emscripten_glBlendFuncSeparate
lAi:_GenericTypeParameterBuilder_IsPrimitiveImpl_m1198748291
wLa:__Z20scripting_string_newPKc
Xth:_CipherSuiteCollection_Add_m3114709461
Cyb:__Z86Register_UnityEngine_Experimental_Director_Playable_INTERNAL_CALL_SetPlayStateInternalv
xgj:__Z45RuntimeInvoker_RuntimeFieldHandle_t2331729674PK10MethodInfoPvPS2_
raa:__ZN29AssetBundleLoadAssetOperation34CollectFullPreloadDataDependenciesER13dynamic_arrayIiLj4EE
hTh:_Collection_1_System_Collections_ICollection_CopyTo_m1047946700_gshared
Hee:__Z44Register_UnityEngine_Joint_set_connectedBodyv
fqg:_Convert_ToInt64_m4057339019
iBe:__ZNK5physx19NpRigidBodyTemplateINS_18PxArticulationLinkEE27getMaxDepenetrationVelocityEv
PAf:__ZN11UnityEngine7Connect13ConnectConfig22RestoreAnalyticsConfigERNS_15CloudWebService10JsonObjectE
RSh:_Collection_1_GetEnumerator_m1406254468_gshared
B4d:__ZThn8_N5physx2Gu11HeightFieldD1Ev
K9e:__ZN5physx19NpRigidBodyTemplateINS_14PxRigidDynamicEED0Ev
qAe:__ZNK5physx19PxArticulationJoint19getConcreteTypeNameEv
TT:__ZN17AudioCustomFilterD2Ev
AMc:__ZN11IMGUIModule26SetDeveloperConsoleVisibleEb
asm:__ZNSt3__16locale2id6__initEv
vIc:__ZNK8GUIStyle13GetLineHeightEv
QDb:__ZN18GfxFramebufferGLES18ReleaseFramebufferEP17RenderSurfaceBaseP14GfxContextGLES
x0j:_Context_GetDynamicPropertyCollection_m1987747444
f_h:_X509Certificate2_get_Version_m1927399907
lCb:__ZNK7ApiGLES15GetDriverStringEN2gl11DriverQueryE
pRg:_Image_RadialCut_m3229543088
s1:__ZN19CloudServiceHandler34HandleSaveFileWebRequestPlayerLoopEv
$I:__ZN7mecanim21ValueArrayReverseCopyEPKNS_18ValueArrayConstantEPKNS_10ValueArrayES2_PS3_PKi
FV:__Z31GetParentSampleClipFromInstancePN11SoundHandle8InstanceE
xw:__ZNK14NavMeshManager19GetSourceTileDataAtEiii
nbf:__ZN5physx11PxHitBufferINS_12PxOverlapHitEE14processTouchesEPKS1_j
f8e:__ZL22addOrRemoveRigidObjectILb0ELb0ELb0ELb1EN5physx3Scb11RigidStaticEEvRNS0_2Sc5SceneERT3_b
cfl:__ZN6il2cpp2os16ThreadLocalValue8GetValueEPPv
BMj:_InternalEnumerator_1_System_Collections_IEnumerator_Reset_m196087328_AdjustorThunk
Inl:__ZN18VirtActionInvoker2Ii22UICharInfo_t3056636800E6InvokeEjPviS0_
VTe:__ZN5physx18RepXPropertyFilterINS_2Sn17RepXVisitorReaderINS_23PxVehicleSuspensionDataEEEEclILj586ES3_ffEEvRKNS_14PxPropertyInfoIXT_ET0_T1_T2_EEj
$Jf:_SHA384Managed_Initialize_m712692291
xFj:_InternalEnumerator_1__ctor_m2688327768_gshared
c$j:_ChannelInfo__ctor_m2502026239
Mpb:__Z33Texture_CUSTOM_Internal_GetHeightP15ScriptingObject
bYi:_Collection_1_Add_m123318341_gshared
YCl:__ZL60CallingConvention_t3354538265_CustomAttributesCacheGeneratorP21CustomAttributesCache
RO:__ZN17PackedFloatVector8TransferI18StreamedBinaryReadILb1EEEEvRT_
avb:__Z52Object_CUSTOM_GetOffsetOfInstanceIDInCPlusPlusObjectv
aMk:_Transform_get_right_m440863970
CQ:__ZN9AudioClip15InitializeClassEv
Icd:__ZNK5physx9NpPhysics11getNbShapesEv
Nr:setThrew
s2l:__ZL108DownloadHandler_t1216180266_CustomAttributesCacheGenerator_DownloadHandler_InternalCreateAudioClip_m86520921P21CustomAttributesCache
Vcj:__Z36RuntimeInvoker_IntPtr_t_Il2CppObjectPK10MethodInfoPvPS2_
LCf:__ZN13RuntimeStaticI20HardwareInfoReporterE10InitializeEv
AHg:_StandaloneInputModule_set_cancelButton_m2642677329
Gyc:__ZN6prcoreL17RemapGenericFloatI17TexFormatRGBFloat15TexFormatRGHalfEEvPKNS_9InnerInfoE
uqa:__Z25DoForwardShaderRenderLoopR17RenderLoopContextR13dynamic_arrayI16RenderObjectDataLj4EERK11CullResultsbbbN6Camera10RenderFlagE
yif:_sfnt_load_face
d3g:_PKCS12_GetSymmetricAlgorithm_m1812022677
gWf:_UTF8Encoding_GetByteCount_m2372933408
u0j:_Context_get_NeedsContextSink_m1907794755
Ref:_UNITY_ft_service_list_lookup
mqh:_ARC4Managed_GenerateKey_m716135508
lkc:__ZN10RectOffset8TransferI13ProxyTransferEEvRT_
col:__ZN16VirtFuncInvoker2Ii40CustomAttributeTypedArgument_t1498197914S0_E6InvokeEjPvS0_S0_
p3d:__ZN5physx2Gu20intersectTriangleBoxERKNS_6PxVec3ES3_S3_S3_S3_
rcd:__ZN5physx10NpMaterial8setFlagsENS_7PxFlagsINS_14PxMaterialFlag4EnumEtEE
kza:__ZN13BaseAllocator13TryDeallocateEPv
ubg:_Array_CreateInstance_m1054139389
Mgi:_GUIStyleState_GetGUIStyleState_m2816150617
SFj:_InternalEnumerator_1__ctor_m967618647_AdjustorThunk
H1e:__ZNK5physx5cloth9ClothImplINS0_7SwClothEE11getFrictionEv
Zib:__ZN16MemoryFileSystem5WriteER13FileEntryDatayPvPy
fxi:_Default_check_arguments_with_score_m1714931543
cgk:_Collision_get_impactForceSum_m521972354
sJf:_SHA1_Create_m4086509717
hmb:__Z20GetFirstValueForARGVRKNSt3__112basic_stringIcNS_11char_traitsIcEENS_9allocatorIcEEEE
Rdj:__Z57RuntimeInvoker_Il2CppObject_RuntimeTypeHandle_t2330101084PK10MethodInfoPvPS2_
zTk:_UnityEvent_1_GetDelegate_m3098147632_gshared
JFi:_MonoMethodInfo_GetMethodInfo_m3298558752
hR:__ZN13AudioListener17RemoveFromManagerEv
ke:_glAttachShader
xNg:_Dropdown_SetAlpha_m2769981009
y_e:__ZN5physx23PxsFluidDynamicsSphTaskD0Ev
Mga:__ZNK6Camera19GetProjectionMatrixEv
HQk:_Predicate_1_BeginInvoke_m1856151290_gshared
c7e:__ZNK5physx2Cm12DelegateTaskINS_2Sc5SceneEXadL_ZNS3_18clothPreprocessingEPNS_10PxBaseTaskEEEE7getNameEv
Pgd:__ZNK5physx7NpScene24getWakeCounterResetValueEv
oCe:__ZN5physx20NpRigidActorTemplateINS_14PxRigidDynamicEE17resolveReferencesERNS_24PxDeserializationContextE
f5i:_ReadOnlyCollection_1_System_Collections_IList_Contains_m673434054_gshared
iei:_Rect_get_xMax_m2915145014
$vb:__Z30Light_Set_Custom_PropIntensityP15ScriptingObjectf
x5d:__ZN5physx2Gu32PCMConvexVsMeshContactGeneration20generateLastContactsEv
Aba:__Z38PreallocateObjectFromPersistentManagerib
ssg:_DateTime_System_IConvertible_ToSingle_m3927769066
ecd:__ZThn12_N5physx10NpMaterialD0Ev
o3h:_CostDelegate__ctor_m80452417
DUa:__ZNK9Texture2D20GetUnscaledTextureIDEv
A_:__ZN9AudioClip7PRODUCEE18MemLabelIdentifier18ObjectCreationMode
qqg:_Convert_ToSByte_m883113940
DEm:_glFenceSync__wrapper
Ykh:_MonoType_get_ContainsGenericParameters_m3229732653
chd:__ZN5physx7NpShape14onRefCountZeroEv
oOc:__ZNK14ParticleSystem7GetLoopEv
m0f:_Array_InternalArray__IndexOf_TisContactPoint_t1376425630_m3651364246_gshared
aXe:__ZN5physx3Pvd17PvdPropertyFilterINS_2Sn17RepXVisitorWriterINS_27PxVehicleDifferential4WDataEEEE14handleAccessorILj540ENS_22PxRepXPropertyAccessorILj540ES4_ffEEEEvRKT0_
Bic:__Z16Transfer_BuiltinI11Quaternionf14SafeBinaryReadLb1EEvRK29SerializationCommandArgumentsR31RuntimeSerializationCommandInfo
w6e:__ZN5physx2Cm18DelegateFanoutTaskINS_2Sc5SceneEXadL_ZNS3_14postBroadPhaseEPNS_10PxBaseTaskEEEED0Ev
bue:__ZL15TestContainmentRKN5physx6PxVec3EPKfjPKNS_2Gu15HullPolygonDataE
yIb:__GLOBAL__sub_I_GUIEventManager_cpp
ALd:__ZN5physx20PxsParticleSystemSim18packetShapesUpdateEPNS_10PxBaseTaskE
NWc:__ZNSt3__16__sortIRPFbRK16MeshTriangleDataS3_EPS1_EEvT0_S8_T_
VIg:_ButtonClickedEvent__ctor_m938038541
$Za:__ZN10Matrix3x3f8SetBasisERK8Vector3fS2_S2_
NAk:_UInt16_System_IConvertible_ToDouble_m4100549304_AdjustorThunk
Ooi:_UnityWebRequest_Post_m2879499414
egj:__Z116RuntimeInvoker_Il2CppObject_Il2CppObject_Il2CppObject_Int32_t2071877448_Int32_t2071877448_MonoIOErrorU26_t1029615899PK10MethodInfoPvPS2_
Wec:__Z16Transfer_BuiltinI10Matrix4x4f18StreamedBinaryReadILb1EELb1EEvRK29SerializationCommandArgumentsR31RuntimeSerializationCommandInfo
p3k:__ZN6il2cpp2vm9Exception25GetNullReferenceExceptionEv
oMc:__ZN13TextRendering17TextMeshGenerator13GetTextOffsetERK5RectTIfE
ITb:__ZL35LoadMemoryBufferIntoTextureInternalR9Texture2DPKhj20LoadImageCompressionb
eUb:__ZN15QualitySettings12CleanupClassEv
STb:__ZN21EnlightenSceneMappingaSERKS_
y9h:_RuntimeTypeHandle_get_Value_m2239757882
Trm:__ZNSt3__16locale5__imp11make_globalEv
yfl:__ZNK6il2cpp8metadata21Il2CppGenericInstHashclEPK17Il2CppGenericInst
KOf:_Single_System_IConvertible_ToUInt32_m2447833283
H5i:_ReadOnlyCollection_1_System_Collections_IList_Add_m3806843030_gshared
PAb:__ZN7ApiGLESD2Ev
FUe:__ZN5physx2Sn21RepXVisitorWriterBaseINS_19PxVehicleEngineDataEE23extendedIndexedPropertyINS_3Pvd36PxPvdExtendedIndexedPropertyAccessorILj518ES2_jfEEKNS_18PxUnknownClassInfoEEEvPjRKT_RT0_
AJj:_InternalEnumerator_1_get_Current_m4083613828_AdjustorThunk
ick:_Application_LoadLevel_m393995325
Ooe:__ZN5physx6shdfnd8PoolBaseINS_2Gu30LargePersistentContactManifoldENS0_19ReflectionAllocatorIS3_EEE12allocateSlabEv
jcd:__ZNK5physx10NpMaterial17getReferenceCountEv
AHf:_RijndaelManaged_GenerateKey_m3366247933
ych:_BinaryReader_ReadUInt64_m1893783375
Udk:_Bounds_op_Equality_m2161830280
vVe:__ZN5physx2Sn21RepXVisitorReaderBaseINS_19PxVehicleClutchDataEE8pushNameEPKc
kia:__ZN6Camera23VirtualRedirectTransferER19StreamedBinaryWriteILb0EE
Kym:dynCall_fidi
TKc:__Z47Register_UnityEngine_GUIStyle_set_imagePositionv
h_e:__ZN5physx2Cm12DelegateTaskINS_20PxsParticleSystemSimEXadL_ZNS2_24packetShapesFinalizationEPNS_10PxBaseTaskEEEED0Ev
LTj:_ScrollRect_set_movementType_m3292965850
mif:_cf2_glyphpath_curveTo
Uje:__ZN5physx6shdfnd5ArrayIPNS_2Sc8BodyCoreENS0_19ReflectionAllocatorIS4_EEE6resizeEjRKS4_
kui:_RectTransform_set_anchorMin_m4247668187
Iab:__ZN17PersistentManager14IsStreamLoadedERKNSt3__112basic_stringIcNS0_11char_traitsIcEENS0_9allocatorIcEEEE
pze:__ZN5physx3Cct26CharacterControllerManager16createControllerERNS_9PxPhysicsEPNS_7PxSceneERKNS_16PxControllerDescE
w5:__ZN11UnityEngine15CloudWebService14RestDownloaderD2Ev
XZb:__Z29StdTemplateConversionFunctionIjhEbPvR14SafeBinaryRead
nta:__ZN22RenderingCommandBufferC2ERKS_
uGh:_List_1_GrowIfNeeded_m2986672263_gshared
_Dj:_ArrayReadOnlyList_1_Remove_m2325516426_gshared
$kg:_Hashtable_get_Count_m830088216
$4a:__ZNK13MonoBehaviour13GetScriptTypeEv
ZRa:__ZN13RenderTexture12SetDimensionE16TextureDimension
AIk:_ScriptableObject_CreateInstance_m3921674852
vWd:__Z39setPxVehicleDriveDynData_GearSwitchTimePN5physx21PxVehicleDriveDynDataEf
$xe:__ZNSt3__16vectorIN5physx12PxOverlapHitENS_9allocatorIS2_EEE8__appendEj
mf:_SDL_FreeRW
U8e:__ZN5physx6shdfnd8PoolBaseINS_2Cm5BlockIhLj128EEENS0_19ReflectionAllocatorIS4_EEE15disposeElementsEv
N_d:__ZN5physx2Gu5Debug9visualizeERKNS_21PxHeightFieldGeometryERNS_2Cm12RenderOutputERKNS5_8Matrix34ERKNS_9PxBounds3Eyfj
GJf:_SHA1Internal_FillBuff_m891541953
RMl:__ZL62ResolveEventHandler_t3842432458_CustomAttributesCacheGeneratorP21CustomAttributesCache
Tbk:_AnimatorTransitionInfo_IsUserName_m3771933881_AdjustorThunk
ijd:__ZN5physx3Scb14ParticleSystem14setRestOffsetsEjRKNS_16PxStrideIteratorIKjEERKNS2_IKfEE
fae:__ZN12MeshCollider11CreateShapeEPvPK9RigidbodyRK8Vector3f
GU:__ZN20SoundChannelInstance8getDelayE14FMOD_DELAYTYPEPjS1_
qkb:__ZN21AssetBundleFileSystemC2EPKc
AX:__ZN4FMOD7SystemI17getSoftwareFormatEPiP17FMOD_SOUND_FORMATS1_S1_P18FMOD_DSP_RESAMPLERS1_
cSg:_InputField_set_customCaretColor_m3534590098
VTj:_ScrollRect_set_viewport_m323693490
XGl:__ZL66RijndaelManagedTransform_t135163252_CustomAttributesCacheGeneratorP21CustomAttributesCache
Qmh:_NumberFormatter_FormatExponential_m3975285307
x:tempBigInt
xf:_emscripten_glVertexAttrib1fv
Alh:_NumberFormatter_InitDecHexDigits_m1612588520
j9f:_Array_InternalArray__get_Item_TisTypeTag_t141209596_m1747911007_gshared
Fkb:__Z18ReadStringFromFilePNSt3__112basic_stringIcNS_11char_traitsIcEE13stl_allocatorIcL18MemLabelIdentifier1ELi16EEEERKNS0_IcS2_NS_9allocatorIcEEEE
Gak:_AnimationCurve_Init_m1486386337
qhk:_Component_GetComponents_m3712441745
kid:__ZN5physx13NpVolumeCacheC2EPNS_2Sq17SceneQueryManagerEjj
uya:__ZN9ShaderLab16ParserSubProgram11SetKeywordsERKNSt3__16vectorINS1_12basic_stringIcNS1_11char_traitsIcEENS1_9allocatorIcEEEENS6_IS8_EEEE
Ond:__ZThn24_N5physx2Sc20ArticulationJointSimD1Ev
QSg:_InputField_get_selectionAnchorPosition_m466595604
aJl:__ZL99Thread_t241561612_CustomAttributesCacheGenerator_Thread_t241561612____ExecutionContext_PropertyInfoP21CustomAttributesCache
CR:__ZN12AudioManager14systemCallbackEP11FMOD_SYSTEM24FMOD_SYSTEM_CALLBACKTYPEPvS3_
dTk:_UnityAction_4_Invoke_m3312096275_gshared
BAj:__Z57RuntimeInvoker_ResourceInfo_t3933049236_Int32_t2071877448PK10MethodInfoPvPS2_
hxd:__ZN5physx2Sc18ParticleSystemCore14setRestOffsetsEjRKNS_16PxStrideIteratorIKjEERKNS2_IKfEE
$Mk:_UICharInfo_t3056636800_marshal_pinvoke
Xui:_RectTransformUtility_ScreenPointToRay_m1842507230
mma:__ZN16ReflectionProbes16UpdateSampleDataEv
oCf:__ZNSt3__16__treeINS_12__value_typeI7Hash12816CrashReportEventEENS_19__map_value_compareIS2_S4_NS_4lessIS2_EELb1EEE13stl_allocatorIS4_L18MemLabelIdentifier5ELi16EEE12__find_equalIS4_EERPNS_16__tree_node_baseIPvEENS_21__tree_const_iteratorIS4_PNS_11__tree_nodeIS4_SF_EEiEESI_RKT_
Kom:__ZNSt3__114__num_put_base12__format_intEPcPKcbj
kgl:__GLOBAL__sub_I_MemoryMappedFile_cpp
G5e:__ZN5physx2Sc17ParticleSystemSimD0Ev
Dtl:__ZNSt3__112__hash_tableINS_17__hash_value_typeIP14Il2CppIUnknownP15Il2CppComObjectEENS_22__unordered_map_hasherIS3_S6_NS_4hashIS3_EELb1EEENS_21__unordered_map_equalIS3_S6_NS_8equal_toIS3_EELb1EEENS_9allocatorIS6_EEE14__erase_uniqueIS3_EEjRKT_
whj:__Z103RuntimeInvoker_Il2CppObject_Il2CppObject_StreamingContext_t1417235061_ISurrogateSelectorU26_t2635255864PK10MethodInfoPvPS2_
jua:__ZN18ProceduralMaterial23VirtualRedirectTransferER17RemapPPtrTransfer
x_j:_SafeHandle_Finalize_m1839546519
gVa:__ZN14Texture2DArray5ResetEv
TQ:__Z23RegisterClass_AudioClipv
NNj:_InternalEnumerator_1_MoveNext_m252820768_AdjustorThunk
$0j:_Context_AllocateNamedDataSlot_m3200404053
uza:__ZN14BatchAllocator6CommitE18MemLabelIdentifier
t0h:_X509EnhancedKeyUsageExtension_Decode_m3866320499
Lmh:_NumberFormatter_AppendIntegerStringWithGroupSeparator_m1401773574
ZPh:_List_1_Remove_m1237648310_gshared
Osh:_CipherSuite_get_ServerHMAC_m3566778727
Yf:_JS_Sound_Play
ryf:__Z26GetUnityConnectSettingsPtrv
ARg:_Image_IsRaycastLocationValid_m864962354
hQh:_List_1_get_Count_m1149731058_gshared
T9f:_Object_FindObjectOfType_TisIl2CppObject_m483057723_gshared
Eeb:__ZN5Mutex7TryLockEv
Fcj:__Z51RuntimeInvoker_Int16_t4041245914_Decimal_t724701077PK10MethodInfoPvPS2_
tQ:__ZN10SampleClip13RegisterClassEv
Wfk:_Collision_get_collider_m3340328360
nK:__ZN7mecanim8skeleton13SkeletonAlignEPKNS0_8SkeletonERKN4math7_float4ES7_i
a5h:_RemotingConfiguration_RegisterWellKnownServiceType_m2491506630
vSj:_RectMask2D_OnCanvasHierarchyChanged_m2610677147
HG:__ZNK26AnimatorControllerPlayable34GetAnimatorStateInfoFromStateIndexEiiR17AnimatorStateInfo
SDl:__ZL55_TypeBuilder_t2783404358_CustomAttributesCacheGeneratorP21CustomAttributesCache
bzm:dynCall_viiiiiiiiiiiiiiiiiiiiiiiiiiiii
z_b:__Z29StdTemplateConversionFunctionIayEbPvR14SafeBinaryRead
LCe:__ZNK5physx20NpRigidActorTemplateINS_13PxRigidStaticEE14getConstraintsEPPNS_12PxConstraintEjj
YOe:__ZN25MeshMTDGenerationCallbackD0Ev
kVg:_LayoutRebuilder_Initialize_m2671585490
kYb:__ZNSt3__16__treeI4PPtrI6ObjectENS_4lessIS3_EENS_9allocatorIS3_EEE7destroyEPNS_11__tree_nodeIS3_PvEE
RKh:_List_1_System_Collections_IList_IndexOf_m4061554721_gshared
kLb:__ZN18StreamedBinaryReadILb0EE21TransferSTLStyleArrayI13dynamic_arrayINSt3__14pairIi12ImmediatePtrIN5Unity9ComponentEEEELj4EEEEvRT_17TransferMetaFlags
$1:__ZN11UnityEngine15CloudWebService14DataDispatcher4StopEv
JTc:__ZN15CollisionModule16CheckConsistencyEv
dA:__ZNSt3__17__sort4IR17DetailNodeXSorterP16DetailMeshBVNodeEEjT0_S5_S5_S5_T_
dwb:__Z40Register_UnityEngine_Light_get_intensityv
wim:__ZNSt3__16__treeINS_12__value_typeIPFvvEPK10MethodInfoEENS_19__map_value_compareIS3_S7_NS_4lessIS3_EELb1EEENS_9allocatorIS7_EEE16__insert_node_atEPNS_16__tree_node_baseIPvEERSI_SI_
Xqh:_MD4Managed_H_m4236752602
MDh:_Enumerator_System_Collections_IEnumerator_Reset_m4029239424_AdjustorThunk
gWi:_Collection_1_GetEnumerator_m434271983_gshared
IIc:__ZN5IMGUI9GUIWindow5OnGUIER8GUIState
kzf:__ZN22BaseUnityConnectClient24OnSaveFileFromServerDoneERK8UnityStrS2_bi
kkm:__ZNSt9type_infoD2Ev
h$a:__ZNK17AnimationCurveTplI11QuaternionfE8GetRangeEv
Mte:__ZN5physx18SetTorqueCurvePairEPNS_19PxVehicleEngineDataEjf
e0j:_LifetimeServices_set_LeaseTime_m1487876644
r8d:__ZN19CharacterController12CleanupClassEv
sJl:__ZL57AppDomainManager_t54965696_CustomAttributesCacheGeneratorP21CustomAttributesCache
kyi:_ConstructorBuilder_not_supported_m3687319507
Kxl:__ZL48IList_t3321498491_CustomAttributesCacheGeneratorP21CustomAttributesCache
Cg:_atan2f
Toi:_UnityWebRequest_get_disposeUploadHandlerOnDispose_m573074478
$sf:__ZN2UI14CanvasRenderer14AttachToCanvasER8JobFencePNS_6CanvasENS0_15InstructionTypeE
qbd:__ZN5physx12NpConstraint8comShiftEPNS_12PxRigidActorE
BOf:_Single_System_IConvertible_ToInt64_m3555853323_AdjustorThunk
yKl:__ZL78Convert_t2607082565_CustomAttributesCacheGenerator_Convert_ToSByte_m1570938941P21CustomAttributesCache
mxm:dynCall_iifiii
otj:__Z48RuntimeInvoker_PersistentListenerMode_t857969000PK10MethodInfoPvPS2_
Wjc:__Z16Transfer_BuiltinIf13ProxyTransferLb0EEvRK29SerializationCommandArgumentsR31RuntimeSerializationCommandInfo
awj:__Z77RuntimeInvoker_Boolean_t3825574718_AspectModeU26_t218518220_Int32_t2071877448PK10MethodInfoPvPS2_
phj:__Z87RuntimeInvoker_Il2CppObject_Il2CppObject_Il2CppObject_Il2CppObject_StringU26_t638738783PK10MethodInfoPvPS2_
WVa:__Z21HasAlphaTextureFormat13TextureFormat
lS:__ZN12AudioManager6UpdateEv
_ak:_AnimationEvent_set_intParameter_m1174062029
bOa:__ZN14ImageReference9BlitImageERKS_NS_8BlitModeE
yFi:_MonoMethod_get_MethodHandle_m1882915015
RE:__ZN8Animator12AddToManagerEv
VBl:__ZL93ConstructorInfo_t2851816542_CustomAttributesCacheGenerator_ConstructorInfo_Invoke_m2144827141P21CustomAttributesCache
Hwa:__ZNK9ShaderLab9IntShader6GetTagEib
fPe:__ZNK5physx2Gu16SupportLocalImplINS0_11ConvexHullVEE9doSupportERKNS_6shdfnd3aos5Vec3VERNS5_6FloatVESA_
OXb:__ZN23CachedSerializationDataD2Ev
xye:__ZNK5physx3Cct13BoxController8getActorEv
Yna:__ZN14RenderSettings23VirtualRedirectTransferER14SafeBinaryRead
v7i:_ReadOnlyCollection_1_System_Collections_IList_RemoveAt_m2253306805_gshared
tqk:_MovementSettings_get_Running_m902975210
w_c:__ZNK13b2CircleShape5CloneEP16b2BlockAllocator
u6k:__ZN6il2cpp2os10ThreadImpl15CurrentThreadIdEv
I_i:_Collection_1_System_Collections_IList_get_IsReadOnly_m4005091053_gshared
nZb:__ZN13sorted_vectorINSt3__14pairINS0_12basic_stringIcNS0_11char_traitsIcEENS0_9allocatorIcEEEES7_EEN10vector_mapIS7_S7_26compare_string_insensitive13stl_allocatorIS8_L18MemLabelIdentifier37ELi16EEE13value_compareESD_E10insert_oneERKS8_
SDh:_Enumerator_MoveNext_m1706162224_AdjustorThunk
Jv:__ZN14dtNavMeshQuery18initSlicedFindPathEyyPKfS1_PK13dtQueryFilter
KXf:_Array_InternalArray__ICollection_Contains_TisColor32_t874517518_m2818328910_gshared
tda:__ZN17GlobalGameManager8TransferI17RemapPPtrTransferEEvRT_
F5g:_AppDomainInitializer_EndInvoke_m4003801172
Tsi:_RaycastHit2D_get_point_m442317739
olj:__Z72RuntimeInvoker_Il2CppObject_Il2CppObject_Decimal_t724701077_Il2CppObjectPK10MethodInfoPvPS2_
Bs:__ZNK11OffMeshLink17HasEndpointsMovedEv
kda:__ZN16LevelGameManager8TransferI18StreamedBinaryReadILb0EEEEvRT_
Kjf:_UNITY_tt_face_load_fpgm
ica:__Z17IsObjectAvailablei
$7b:__ZN12InputManagerD0Ev
WLg:_DefaultControls_CreateUIObject_m2810394112
auj:__Z37RuntimeInvoker_FillMethod_t1640962579PK10MethodInfoPvPS2_
ihi:_GUIStyle_get_overflow_m1125058093
hMj:_InternalEnumerator_1_System_Collections_IEnumerator_Reset_m2619213736_AdjustorThunk
$Uf:_UnicodeEncoding_GetBytes_m1337660232
hZc:__ZN16Physics2DManager10CircleCastERK8Vector2ffS2_fiffPK10Collider2DbP12RaycastHit2Di
xrd:__ZN5physx2Sc9RigidCore20removeShapeFromSceneERNS0_9ShapeCoreEb
cge:__ZN5physx6shdfnd8internal8HashBaseINS0_4PairIKPKcjEES5_NS0_4HashIS5_EENS1_11HashMapBaseIS5_jS9_NS_7profile26WrapperReflectionAllocatorIjEEE6GetKeyESD_Lb1EE15reserveInternalEj
Hk:___ctype_b_loc
DVk:_U24ArrayTypeU241024_t2672183895_marshal_pinvoke_back
NGc:__ZN13RuntimeStaticI11WindManagerE16StaticInitializeEPv
SRj:_VertexHelper_GetUIVertexStream_m3849188814
Bta:__ZNK19RenderEventsContext21ExecuteCommandBuffersEiR17ShaderPassContextRK15RenderNodeQueueP19ProfilerInformationi
D9:_jsimd_can_h2v1_fancy_upsample
$Rh:_List_1_get_Count_m1249351212_gshared
bLa:__Z26scripting_class_get_parentP14ScriptingClass
KOj:_InternalEnumerator_1_get_Current_m747506907_AdjustorThunk
dek:_Camera_get_eventMask_m4241372419
Xei:_GUILayoutUtility_LayoutFromEditorWindow_m1847418289
vzh:_SslClientStream_get_ClientCertSelectionDelegate_m2316959461
Qig:_SynchronizedArrayListWrapper_get_SyncRoot_m1466044127
J5a:__ZNK15MonoScriptCache7ReleaseEv
RCh:_Enumerator_get_Current_m3108634708_gshared
RYd:__ZN5physx9PxTaskMgrC2EPNS_15PxCpuDispatcherEPNS_15PxGpuDispatcherEPNS_15PxSpuDispatcherE
_cm:__ZL117U3CDeactivateU3Ec__Iterator7_t707185159_CustomAttributesCacheGenerator_U3CDeactivateU3Ec__Iterator7_Reset_m1746529067P21CustomAttributesCache
wh:_glBindTexture
dWi:_Collection_1_ClearItems_m3585785594_gshared
ylm:_snprintf
Msk:_TiltInput_OnDisable_m2408109113
pla:__ZN11LightProbes23VirtualRedirectTransferER18StreamedBinaryReadILb1EE
L4i:_ReadOnlyCollection_1_System_Collections_IList_get_IsReadOnly_m2918085566_gshared
nrl:__ZNSt3__112__hash_tableINS_17__hash_value_typeINS_4pairIPK11Il2CppImageP11Il2CppClassEEP22Il2CppReflectionModuleEENS_22__unordered_map_hasherIS8_SB_17ReflectionMapHashIS8_ELb1EEENS_21__unordered_map_equalIS8_SB_19ReflectionMapEqualsIS8_ELb1EEEN6il2cpp2gc9AllocatorISB_EEE4findIS8_EENS_15__hash_iteratorIPNS_11__hash_nodeISB_PvEEEERKT_
Nwi:_Binder__ctor_m1361613966
NSg:_InputField_set_caretPosition_m888572237
NAi:_ILGenerator__cctor_m3943061018
gig:_ArrayListWrapper_Clone_m1506311066
gVk:_ListPool_1_Get_m4215629480_gshared
QJa:__ZN16UniformCacheGLES6CreateERK20GpuProgramParameters
pWf:_UTF8Encoding_Fallback_m811555654
Jcf:__GLOBAL__sub_I_Tree_cpp
hOc:__ZN14ParticleSystem10ResetSeedsEv
FIk:_ScriptableObject_t1975622470_marshal_pinvoke_cleanup
WTf:_Encoding_GetString_m1894033578
_3i:_ReadOnlyCollection_1_System_Collections_IList_Clear_m1918003010_gshared
TKk:_TextGenerator_t647235000_marshal_pinvoke_cleanup
PBm:_emscripten_glGetProgramInfoLog__wrapper
YZl:__ZL94Font_t4239498691_CustomAttributesCacheGenerator_Font_InvokeTextureRebuilt_Internal_m2007522718P21CustomAttributesCache
$9a:__ZN17PersistentManager23DestroyFromFileInternalEi
EUl:__ZL98Object_t1021602117_CustomAttributesCacheGenerator_Object_DoesObjectWithInstanceIDExist_m2570795274P21CustomAttributesCache
Khl:__ZL24il2cpp_codegen_no_returnv1
Kh:_recv
eAg:_Enum_ToString_m2112979707
tKk:_TextGenerator_ValidatedSettings_m1640214759
qFl:__ZL55SoapServices_t3397513225_CustomAttributesCacheGeneratorP21CustomAttributesCache
coc:__Z19TransferField_ArrayI18StreamedBinaryReadILb0EE19Converter_PrimitiveIyEEvRK23StaticTransferFieldInfoR31RuntimeSerializationCommandInfoRT0_
L3j:_MonoMethodMessage_get_MethodName_m3580519713
fG:__ZN26AnimatorControllerPlayable18PrepareForPlaybackERN7mecanim6memory9AllocatorE
QKd:__ZN5physx19PxsMaterialCombiner24combineIsotropicFrictionERKNS_15PxsMaterialDataES3_
pAg:_Enum_t2459695545_marshal_pinvoke_cleanup
G9f:_Array_InternalArray__get_Item_TisUIVertex_t1204258818_m3450355955_gshared
L1k:__ZN6il2cpp6icalls8mscorlib6System9Threading6Thread11Thread_initEP12Il2CppThread
qKh:_List_1_IndexOf_m2418862432_gshared
Cwe:__ZN11BoxCollider7PRODUCEE18MemLabelIdentifier18ObjectCreationMode
hKa:__ZN22CreateGpuProgramOutputC2Ev
n3:__ZN11UnityEngine15CloudWebService13WWWRestClient18GetResponseHeadersEv
tli:_Object__ctor_m197157284
gSl:__ZL99SortingLayer_t221838959_CustomAttributesCacheGenerator_SortingLayer_GetLayerValueFromID_m4029056996P21CustomAttributesCache
zL:__Z21GetAnimatableBindTypeRK16TypeTreeIterator
N7:_UNITY_png_set_text_2
Teh:_MemoryStream_InternalConstructor_m2423667240
D7j:_CapturingGroup_set_Index_m2175936006
TRh:_List_1_RemoveAt_m4076331586_gshared
Q9i:__Z70RuntimeInvoker_Il2CppObject_Il2CppObject_Il2CppObject_SByte_t454417549PK10MethodInfoPvPS2_
L3h:_SoapMethodAttribute_SetReflectionObject_m3431595769
vXd:__ZN5physx7Cooking16cookTriangleMeshERKNS_18PxTriangleMeshDescERNS_14PxOutputStreamE
zWj:_Slider_set_maxValue_m2951480075
Bpa:__ZN8GUILayer12CleanupClassEv
dyd:__ZN5physx2Sc7ElementD0Ev
jrk:_CrossPlatformInputManager_RegisterVirtualButton_m2967867237
EZd:__ZN5physx6shdfnd10Foundation7releaseEv
Occ:__ZN15SerializeTraitsINSt3__14pairI8UnityStrS2_EEE8TransferI13ProxyTransferEEvRS3_RT_
cXe:__ZN5physx3Pvd17PvdPropertyFilterINS_2Sn17RepXVisitorWriterINS_27PxVehicleDifferential4WDataEEEE14handleAccessorILj542ENS_22PxRepXPropertyAccessorILj542ES4_ffEEEEvRKT0_
Hf:_emscripten_glBindBuffer
aYa:__ZNK15GUIEventManager15GetEventAtIndexEi
Rsf:__ZN2UI14CanvasRenderer17SyncDirtyElementsER8JobFence
z4c:__ZNSt3__16__sortIRN14Raycast2DQuery31RaycastHitsByFractionComparitorEP12RaycastHit2DEEvT0_S6_T_
G5k:__ZN6il2cpp5utils11StringUtils15StringDuplicateEPKc
umi:_Matrix4x4_t2933234003_marshal_pinvoke
oxa:__ZNK9ShaderLab21ShaderRasterStateDesc16ToGfxRasterStateEPK19ShaderPropertySheetS3_R14GfxRasterState
jSg:_InputField_set_onValueChange_m1749304609
Doa:__Z16RenderShadowMapsPK18ShadowMapJobHeaderR17ShaderPassContext
hbi:_CspParameters__ctor_m2480441577
xak:_Animation_PlayDefaultAnimation_m3276120146
vfl:__ZN6il2cpp2os9EventImplC2Ebb
F0j:_DynamicPropertyCollection_NotifyMessage_m840388347
rxj:__Z79RuntimeInvoker_Int32_t2071877448_SByte_t454417549_SByte_t454417549_Il2CppObjectPK10MethodInfoPvPS2_
Loc:__Z16Transfer_BuiltinI11ColorRGBA3219StreamedBinaryWriteILb0EELb0EEvRK29SerializationCommandArgumentsR31RuntimeSerializationCommandInfo
LHa:__Z20IsMatrixBuiltinParamPKcPi
hlj:__Z63RuntimeInvoker_Void_t1841601450_Il2CppObject_Decimal_t724701077PK10MethodInfoPvPS2_
Y7l:__ZL108MaskableGraphic_t540192618_CustomAttributesCacheGenerator_MaskableGraphic_ParentMaskStateChanged_m3643747340P21CustomAttributesCache
ink:_Playable_INTERNAL_CALL_GetInputInternal_m1720243548
JQa:__ZN8Renderer19PostInitializeClassEv
$qm:__ZNKSt3__110moneypunctIwLb1EE13do_neg_formatEv
Scf:__ZN20TextRenderingPrivate15DynamicFontDataD2Ev
IOk:_Vector3_get_sqrMagnitude_m1814096310_AdjustorThunk
Adl:__ZN6il2cpp6icalls8mscorlib6System8Delegate23CreateDelegate_internalEP20Il2CppReflectionTypeP12Il2CppObjectP22Il2CppReflectionMethodb
_wi:_Default_check_type_m2363631305
ssa:__ZN18DelayedCallManager18CancelCallDelayed2E4PPtrI6ObjectEPF15CallObjectStatePS1_PvES7_
LKh:_List_1__cctor_m911493842_gshared
qAa:__ZN25ThreadsafeLinearAllocator10ReallocateEPvji
vAe:__ZNK5physx18PxArticulationLink8isKindOfEPKc
WAi:_LabelData_t3712112744_marshal_pinvoke_cleanup
JI:__ZN7mecanim9animation10SampleClipERKNS0_12ConstantClipEjPf
s0f:_Array_InternalArray__IndexOf_TisRaycastHit2D_t4063908774_m3739817942_gshared
hGi:_MonoProperty_GetAccessors_m3704698731
Cid:__ZN5physx13NpVolumeCache13onOriginShiftERKNS_6PxVec3E
Mbl:_GC_disable
Vhc:__ZN10Matrix4x4f8TransferI14SafeBinaryReadEEvRT_
Ho:FUNCTION_TABLE_vifiiiiiiiiiiiiiiiiii
tih:_UnmanagedMemoryStream_ReadByte_m2501145010
wPa:__ZN12LineRenderer26RendererCullingOutputReadyEPP12BaseRendererjPK6CameraRK10Matrix4x4f
cQi:_Dictionary_2__ctor_m406310120_gshared
b8h:_ObjectRecord_UnchainFixup_m3025030310
_E:__ZN14AvatarPlayback8StopTimeEv
_vl:__ZL60MulticastDelegate_t3201952435_CustomAttributesCacheGeneratorP21CustomAttributesCache
Qxe:__ZN14PhysicsManager7PRODUCEE18MemLabelIdentifier18ObjectCreationMode
Xdb:__ZN19ShaderPropertySheet16SetVectorIndexedERKN9ShaderLab16FastPropertyNameEifRK8Vector4fNS_8SetFlagsE
_Wb:__ZL14OnWorldStoppedv
hX:__ZN4FMOD6SoundI12getOpenStateEP14FMOD_OPENSTATEPjPbS4_
Dqj:__Z35RuntimeInvoker_Playable_t3667545548PK10MethodInfoPvPS2_
ajd:__ZN5physx3Scb14ParticleSystem12ForceUpdates7destroyEv
Qtk:_FPSCounter_Start_m3329086341
aCb:__ZN7ApiGLES18ClearBufferSubDataEjN2gl12BufferTargetEll
uLk:_Touch_get_type_m3264731406_AdjustorThunk
ltb:__Z37Camera_Get_Custom_PropAllCamerasCountv
uVb:__ZN14Texture2DArray8TransferI18StreamedBinaryReadILb0EEEEvRT_
iVe:__ZN5physx18RepXPropertyFilterINS_2Sn17RepXVisitorReaderINS_23PxVehicleDriveSimDataNWEEEEclILj679ES3_RKNS_27PxVehicleDifferentialNWDataES7_EEvRKNS_14PxPropertyInfoIXT_ET0_T1_T2_EEj
waf:__ZN5physx15NpActorTemplateINS_18PxArticulationLinkEED2Ev
MKc:__Z38Register_UnityEngine_GUIStyle_get_namev
ieh:_FileStreamAsyncResult__ctor_m1096228032
yqf:_Split_Cubic
zb:invoke_fiiii
FWl:__ZL78Time_t31991979_CustomAttributesCacheGenerator_Time_get_unscaledTime_m862335845P21CustomAttributesCache
svg:_DBNull_System_IConvertible_ToSByte_m1228193074
OVi:_Collection_1__ctor_m2818834331_gshared
G9d:__Z19ExtractDataFromMeshR4MeshR13dynamic_arrayI8Vector3fLj4EERS1_ItLj2EES6_
Bmk:_Playables_InternalDestroy_m3873600434
w6k:__ZN6il2cpp2os10ThreadImpl22CreateForCurrentThreadEv
Jdg:_Boolean_System_IConvertible_ToSByte_m1114429589_AdjustorThunk
ilg:_Hashtable_PutImpl_m3318435614
bnd:__ZN5physx2Sc16ArticulationCore26setMaxProjectionIterationsEj
AMf:_SecurityElement__ctor_m1988489885
keh:_FileStream_FlushBuffer_m2594140542
bMe:__ZN26IntersectAnyVsMeshCallbackILi1ELb0EED2Ev
mLc:__Z64Register_UnityEngine_GUIStyle_GetFontInternalDuringLoadingThreadv
S4c:__ZN15ContactFilter2D13ShouldCollideEP9b2FixtureS1_
_pf:_ft_black_render
y8k:__ZN6il2cpp2vm8Profiler12GCHeapResizeEx
Sym:dynCall_viiifi
cEb:__ZN18GfxFramebufferGLES20ActiveContextChangedEPP17RenderSurfaceBaseS2_
wMl:__ZL51TimeSpan_t3430258949_CustomAttributesCacheGeneratorP21CustomAttributesCache
S3e:__ZThn4_N5physx5cloth9ClothImplINS0_7SwClothEE18setSleepAfterCountEj
L9k:_GC_build_fl
BD:__ZN10HumanTrait18InitializeBoneNameEv
rqg:_Convert_ToSByte_m1570938941
Jze:__ZNK5physx3Ext5JointINS_15PxDistanceJointENS_30PxDistanceJointGeneratedValuesEE18getConstraintFlagsEv
sSi:_EqualityComparer_1_get_Default_m875724809_gshared
jOa:__ZN5Image13ReformatImageERK14ImageReferenceii13TextureFormatNS0_8BlitModeE
cDl:__ZL57DispIdAttribute_t607560947_CustomAttributesCacheGeneratorP21CustomAttributesCache
nS:__ZN12AudioManager17RemoveAudioSourceEP11AudioSource
xDm:_emscripten_glBindProgramARB__wrapper
$pl:__ZNSt3__112__hash_tableINS_17__hash_value_typeIPK19Il2CppGenericMethodPK26Il2CppGenericMethodIndicesEENS_22__unordered_map_hasherIS4_S8_N6il2cpp8metadata23Il2CppGenericMethodHashELb1EEENS_21__unordered_map_equalIS4_S8_NSB_26Il2CppGenericMethodCompareELb1EEENS_9allocatorIS8_EEE4findIS4_EENS_15__hash_iteratorIPNS_11__hash_nodeIS8_PvEEEERKT_
voj:__Z153RuntimeInvoker_Vector3_t2243707580_Vector3_t2243707580_Vector3_t2243707580_Vector3U26_t425862308_Single_t2076509932_Single_t2076509932_Single_t2076509932PK10MethodInfoPvPS2_
M8d:__ZN5Unity5Cloth19SetUpSkinnedBuffersEPvS1_S1_j
hik:_CullingGroup_Finalize_m3172731580
Q1d:__ZNK5physx2Gu10ConvexMesh17getReferenceCountEv
r9f:_Array_InternalArray__get_Item_TisUInt64_t2909196914_m2580870875_gshared
ltd:__ZN5physx2Sc5Scene22setNbContactDataBlocksEj
fWd:__Z38getNbPxVehicleDriveDynData_AnalogInputPKN5physx21PxVehicleDriveDynDataE
EWf:_UTF8Decoder_GetChars_m3819660582
kee:__Z37CapsuleCollider_Get_Custom_PropHeightP15ScriptingObject
l_c:__Z10b2DistanceP16b2DistanceOutputP14b2SimplexCachePK15b2DistanceInput
Wsc:__ZN21EnlightenSceneMapping8TransferI19StreamedBinaryWriteILb0EEEEvRT_
dk:_glGetString
vHc:__ZN10GUIManager10DoGUIEventER10InputEventb
sth:_Context_get_ClientWriteKey_m2235605337
B_i:_Collection_1_System_Collections_IList_Contains_m201332997_gshared
$cl:__ZN6il2cpp6icalls8mscorlib6System6Buffer17BlockCopyInternalEP11Il2CppArrayiS5_ii
F9g:_Int32_System_IConvertible_ToUInt32_m2102746163_AdjustorThunk
rsk:_MobileInput_SetAxisZero_m3553615361
T8k:_GC_bl_init_no_interiors
Isa:__Z20CalculateSqrDistanceRK8Vector3fRK4AABB
aIj:_InternalEnumerator_1_get_Current_m2415979394_AdjustorThunk
$Wi:_Collection_1_IsValidItem_m1224378277_gshared
Sbe:__ZN14PhysicsManager15ProcessContactsEv
zLe:__ZN21BoxTraceSegmentReport7onEventEjPj
End:__ZN5physx2Sc21ArticulationJointCore13setSwingLimitEff
xU:__Z32AudioMixerDuckingProcessCallbackP21UnityAudioEffectStatePfS1_jii
cve:__ZL20HullProjectionCB_BoxRKN5physx2Gu13PolygonalDataERKNS_6PxVec3ERKNS_2Cm8Matrix34ERKNS7_23FastVertex2ShapeScalingERfSE_
Lxi:_CustomAttributeTypedArgument_GetHashCode_m999147081_AdjustorThunk
waj:__Z48RuntimeInvoker_Void_t1841601450_SByte_t454417549PK10MethodInfoPvPS2_
lQd:__ZN5physx17PxcNpMemBlockPool19releaseUnusedBlocksEv
Udh:_FileStream_Read_m3880951166
mFd:__ZN5physx14PxsAABBManager21selfCollideAggregatesEPKNS_19AggregateSortedDataE
Jug:_DateTimeUtils_GetStandardPattern_m4198947977
QVa:__Z25GetBytesFromTextureFormat13TextureFormat
FVa:__ZN9Texture3D19UnloadFromGfxDeviceEb
h0e:__ZN5physx12_GLOBAL__N_112innerProductERKNS_14Px1DConstraintERS1_RKNS0_9MassPropsE
njl:__ZN16VirtFuncInvoker3IP25AxisEventData_t1524870173fffE6InvokeEjPvfff
Y8f:_Array_InternalArray__get_Item_TisInt16_t4041245914_m2533263979_gshared
OYf:_Array_InternalArray__ICollection_Remove_TisContactPoint_t1376425630_m2242111467_gshared
lxm:dynCall_iifff
vk:_emscripten_webgl_init_context_attributes
ofl:__ZNK6il2cpp8metadata24Il2CppGenericInstCompareclEPK17Il2CppGenericInstS4_
a3c:__ZN9b2Simplex9ReadCacheEPK14b2SimplexCachePK15b2DistanceProxyRK11b2TransformS5_S8_
gOi:_Dictionary_2_Resize_m2532139610_gshared
HJk:_StackTraceUtility__cctor_m1132099289
EBd:__ZThn4_NK5physx5cloth9ClothImplINS0_7SwClothEE5cloneERNS0_7FactoryE
UPh:_List_1_IndexOf_m2019441835_gshared
IPd:__ZN5physx26PxcFrictionPatchStreamPairC2ERNS_17PxcNpMemBlockPoolE
nyk:_TimeSpan_Equals_m2029123271_AdjustorThunk
Ptk:_FPSCounter__ctor_m3980477189
VIa:__ZN9GfxDevice21RegisterNativeTextureE9TextureIDi16TextureDimension
cCg:_CultureInfo__ctor_m456863818
qdl:__ZN6il2cpp6icalls8mscorlib6System10Reflection4Emit11TypeBuilder20create_generic_classEP27Il2CppReflectionTypeBuilder
aMh:_List_1_AsReadOnly_m1925066867_gshared
Vtc:__ZNSt3__115__inplace_mergeIRN10vector_mapIijNS_4lessIiEENS_9allocatorINS_4pairIijEEEEE13value_compareENS_11__wrap_iterIPS6_EEEEvT0_SE_SE_T_NS_15iterator_traitsISE_E15difference_typeESI_PNSH_10value_typeEi
RVe:__ZN5physx2Sn21RepXVisitorReaderBaseINS_16PxVehicleDriveNWEE15complexPropertyINS_22PxRepXPropertyAccessorILj667ENS_14PxVehicleDriveENS_21PxVehicleDriveDynDataES7_EEKNS_34PxVehicleDriveDynDataGeneratedInfoEEEvPjRKT_RT0_
d9l:__ZL61Slider_t297367283_CustomAttributesCacheGenerator_m_HandleRectP21CustomAttributesCache
Fk:_emscripten_glUniformMatrix4fv
gJk:_SliderState__ctor_m1096533539
Q8b:__ZN12ScriptMapperD2Ev
Pce:__ZN9Rigidbody13AwakeFromLoadE17AwakeFromLoadMode
_3l:__ZL85AxisEventData_t1524870173_CustomAttributesCacheGenerator_U3CmoveDirU3Ek__BackingFieldP21CustomAttributesCache
xUc:__ZN9SubModule8TransferI14SafeBinaryReadEEvRT_
Htk:_U3CFOVKickDownU3Ec__Iterator2_MoveNext_m740919126
Wgd:__ZNK5physx14NpSceneQueries10multiQueryINS_12PxOverlapHitEEEbRKNS_15MultiQueryInputERNS_13PxHitCallbackIT_EENS_7PxFlagsINS_9PxHitFlag4EnumEtEEPKNS_12PxQueryCacheERKNS_17PxQueryFilterDataEPNS_21PxQueryFilterCallbackEPNS_20BatchQueryFilterDataE
Lci:_KeyedHashAlgorithm_Dispose_m1864300576
jGk:_X509Certificate_PEM_m49854707
ksm:__ZNKSt3__15ctypeIwE10do_tolowerEw
bxe:__ZL21GetMeshLocationDetailR4Mesh
YYh:_X509BasicConstraintsExtension__ctor_m3320418592
AT:__ZNK11AudioSource14GetRolloffModeEv
OEk:_ExtendedKeyUsageExtension_Decode_m901297139
Zpb:__Z52Register_UnityEngine_RenderTexture_Internal_GetWidthv
Fyl:__ZL89SafeWaitHandle_t481461830_CustomAttributesCacheGenerator_SafeWaitHandle__ctor_m1710231470P21CustomAttributesCache
Aal:_GC_check_leaked
Pb:invoke_fiiiiiiiifiiiif
W3f:_Array_InternalArray__Insert_TisVector4_t2243707581_m1643342708_gshared
vRb:__Z18SkinGenericMathLibILi4ELb0ELb0EEvR12SkinMeshInfo
bWg:_Mask_OnSiblingGraphicEnabledDisabled_m865494155
QVh:_KeysCollection_System_Collections_ICollection_get_SyncRoot_m2289369147
Jpk:_CurveControlledBob__ctor_m1820459674
Vvc:__ZNSt3__16vectorI7SubMesh13stl_allocatorIS1_L18MemLabelIdentifier16ELi16EEEC2ERKS5_
nhf:_cf2_getBlueMetrics
bJk:_Vector3_t2243707580_marshal_pinvoke
r2e:__ZN5physx5cloth9ClothImplINS0_7SwClothEE11setUserDataEPv
DNh:_List_1_System_Collections_IList_Add_m4271264217_gshared
MXj:_Text_set_resizeTextMaxSize_m4034967714
lyl:__ZL55GuidAttribute_t222072359_CustomAttributesCacheGeneratorP21CustomAttributesCache
vfi:_GUIStyle_SetDefaultFont_m2095841351
zxi:_CustomAttributeNamedArgument_Equals_m2691468532
ivl:__ZL74String_t_CustomAttributesCacheGenerator_String_Concat_m3881798623____args0P21CustomAttributesCache
iGl:__ZL103CryptoConfig_t896479599_CustomAttributesCacheGenerator_CryptoConfig_CreateFromName_m2169102076____args1P21CustomAttributesCache
DGa:__ZN10VertexData8TransferI14SafeBinaryReadEEvRT_
A9c:__ZN5physx19NpArticulationJointD0Ev
$Sa:__ZN11TextureData17GetImageReferenceEii
gng:_Stack__ctor_m2410583781
D9k:_GC_malloc_atomic
Acd:__ZN5physx9NpPhysics14createInstanceEjRNS_12PxFoundationERKNS_17PxTolerancesScaleEbPNS_20PxProfileZoneManagerE
see:__Z59Register_UnityEngine_Physics_INTERNAL_CALL_Internal_Raycastv
cxi:_Default_GetBetterMethod_m4255740863
vyi:_ConstructorBuilder_GetILGenerator_m1731893569
Bnc:__Z16Transfer_BuiltinI5RectTIfE18StreamedBinaryReadILb0EELb1EEvRK29SerializationCommandArgumentsR31RuntimeSerializationCommandInfo
HLb:__ZNSt3__16__treeINS_12__value_typeINS_12basic_stringIcNS_11char_traitsIcEENS_9allocatorIcEEEEjEENS_19__map_value_compareIS7_S8_NS_4lessIS7_EELb1EEE13stl_allocatorIS8_L18MemLabelIdentifier6ELi16EEE4findIS7_EENS_15__tree_iteratorIS8_PNS_11__tree_nodeIS8_PvEEiEERKT_
rCj:__Z48RuntimeInvoker_UIVertex_t1204258818_Il2CppObjectPK10MethodInfoPvPS2_
CKc:__Z35GUIStyle_CUSTOM_Internal_CalcHeight6IntPtrP15ScriptingObjectf
HXb:__ZN13ProxyTransfer8TransferI8MonoPPtrEEvRT_PKc17TransferMetaFlags
wCi:_TypeBuilder_create_runtime_class_m2719530260
wIf:_RNGCryptoServiceProvider_RngClose_m2921734810
yre:__Z46getPxVehicleEngineDataMDampingRateFullThrottlePKN5physx19PxVehicleEngineDataE
Nuc:__Z26SkinVerticesGenericMathLibILi1ELb1ELb1EEvPKhiiiiPhiPKvS4_
S0l:__ZL85GUIStyle_t1799908754_CustomAttributesCacheGenerator_GUIStyle_set_richText_m1853532836P21CustomAttributesCache
l9:_jpeg_free_small
fxf:__ZNSt3__16vectorIPN2UI6CanvasENS_9allocatorIS3_EEE21__push_back_slow_pathIKS3_EEvRT_
D_f:_Array_InternalArray__IEnumerable_GetEnumerator_TisVector2_t2243707579_m829381124_gshared
dO:__ZN34BlobWriteTransferSTLStyleArrayImplI22OffsetPtrArrayTransferIbEEclERS1_17TransferMetaFlagsR9BlobWrite
$Ol:__ZL199U3CCreateWhereIteratorU3Ec__Iterator1D_1_t2523986802_CustomAttributesCacheGenerator_U3CCreateWhereIteratorU3Ec__Iterator1D_1_System_Collections_Generic_IEnumeratorU3CTSourceU3E_get_Current_m517722874P21CustomAttributesCache
_Aj:__Z37RuntimeInvoker_LabelFixup_t4090909514PK10MethodInfoPvPS2_
_1i:_ReadOnlyCollection_1_Contains_m1227826160_gshared
YZj:_GCHandle_GetHashCode_m1664905595_AdjustorThunk
lYg:_SimpleCollator_IsHalfKana_m4255579023
yAh:_InternalAsyncResult_get_Count_m1291942796
kTh:_Collection_1_System_Collections_IList_Contains_m3365884450_gshared
gGf:__ZNSt3__16__treeINS_12__value_typeINS_12basic_stringIcNS_11char_traitsIcEENS_9allocatorIcEEEES7_EENS_19__map_value_compareIS7_S8_N6detail7ci_lessELb1EEENS5_IS8_EEE15__insert_uniqueERKS8_
Ghd:__ZN5physx7NpShape13setRestOffsetEf
Tr:__ZN12NavMeshAgent5ResetEv
Dbc:__ZNSt3__16vectorIN20ArchiveStorageHeader4NodeE13stl_allocatorIS2_L18MemLabelIdentifier54ELi16EEE26__swap_out_circular_bufferERNS_14__split_bufferIS2_RS5_EE
pih:_UnmanagedMemoryStream_get_Length_m587008850
M1g:_KeyGeneratedEventHandler_Invoke_m760006389
NIg:_BaseMeshEffect__ctor_m2843647600
Gph:_ASN1__ctor_m3688855288
$ve:__ZN5physxL11getTriangleERKNS_2Gu12TriangleMeshEjPNS_6PxVec3EPKS4_PKvRKNS_2Cm8Matrix34Eb
Duf:__ZN2UI13CanvasManager14GetRenderOrderEPKNS_6CanvasE
pR:__ZN13AudioListener12CleanupClassEv
evh:_ClientSessionInfo_Dispose_m2571428025
rZa:__Z13GetIEnlightenv
jyh:_RecordProtocol_decryptRecordFragment_m2510859489
Q2:__ZN11UnityEngine15CloudWebService17SessionEventQueue8AddEventEPNS0_14CloudEventInfoE
A0l:__ZL105GUIStyle_t1799908754_CustomAttributesCacheGenerator_GUIStyle_INTERNAL_set_Internal_clipOffset_m2024478897P21CustomAttributesCache
w7k:__ZN6il2cpp2os6ThreadC2Ev
Vld:__ZNK5physx7NpCloth16lockParticleDataEv
ati:_RaycastHit2D_get_rigidbody_m3268023420_AdjustorThunk
ODg:_BaseRaycaster_get_sortOrderPriority_m3340181311
Beh:_DelegatePInvokeWrapper_ReadDelegate_t3184826381
WOl:__ZL91HashSet_1_t2624254809_CustomAttributesCacheGenerator_HashSet_1_OnDeserialization_m627602129P21CustomAttributesCache
nrf:_compare_uni_maps
zlf:__ZL34RegisterModuleICalls_TextRenderingv
aAf:__ZN11UnityEngine15PlatformWrapper27GetGraphicsCapsSupportFlagsEv
Avl:__ZL80Decimal_t724701077_CustomAttributesCacheGenerator_Decimal_op_Explicit_m714968249P21CustomAttributesCache
Eee:__Z63Register_UnityEngine_Rigidbody_INTERNAL_CALL_AddForceAtPositionv
pxe:__ZN13ProxyTransfer8TransferI12MeshColliderEEvRT_PKc17TransferMetaFlags
Swg:_Decimal_Equals_m1115043331
xed:__ZN5physx13NpRigidStatic9visualizeERNS_2Cm12RenderOutputEPNS_7NpSceneE
Qpc:__ZN12NativeBufferI16Converter_StringE15SetupForWritingER9ArrayInfo
bGm:___cxa_end_catch__wrapper
Yk:_emscripten_glVertexAttrib3fv
UEe:__ZNK5physx22NpParticleBaseTemplateINS_16PxParticleSystemENS_16NpParticleSystemEE13getRestOffsetEv
Yie:__ZN5physx6shdfnd8PoolBaseINS_2Sc35ParticleElementRbElementInteractionENS0_19ReflectionAllocatorIS3_EEE15disposeElementsEv
fNi:_ValueCollection_System_Collections_Generic_ICollectionU3CTValueU3E_Clear_m231380274_gshared
PEg:_Entry__ctor_m1176697586
xch:_BinaryReader_ReadUInt32_m1363572147
$Ag:_FormatException__ctor_m3740644286
Rkh:_MonoType_get_Module_m3769241394
fLl:__ZL79Convert_t2607082565_CustomAttributesCacheGenerator_Convert_ToUInt32_m3391339025P21CustomAttributesCache
lvf:__Z34Canvas_Set_Custom_PropSortingOrderP15ScriptingObjecti
wCj:__Z37RuntimeInvoker_Enumerator_t1147558387PK10MethodInfoPvPS2_
W4a:__ZN13MonoBehaviour22DoScriptRebuildWarningEv
qBf:__ZN18CrashReportHandler12CloseServiceEv
VXj:_Text_get_verticalOverflow_m3134063496
u1k:__ZN6il2cpp6icalls8mscorlib6System5Array13ClearInternalEP11Il2CppArrayii
crj:__Z155RuntimeInvoker_Boolean_t3825574718_Vector3_t2243707580_Vector3_t2243707580_RaycastHitU26_t1969197280_Single_t2076509932_Int32_t2071877448_Int32_t2071877448PK10MethodInfoPvPS2_
$Ig:_Button_OnFinishSubmit_m1646528571
pOe:__ZN5physx2Gu26EPASupportMapPairLocalImplINS0_9TriangleVENS0_4BoxVEED0Ev
Uvm:_llvm_cttz_i32
zZh:_PublicKey_DecodeDSA_m1169363495
yMc:__ZN11IMGUIModule25GetGUIStyleScriptingClassEv
Sof:_tt_get_interface
Rai:_AsymmetricKeyExchangeFormatter__ctor_m3362140205
Cee:__Z46Register_UnityEngine_Rigidbody_set_isKinematicv
Glk:_AnimatorControllerPlayable_t4078305555_marshal_pinvoke_cleanup
gFd:__ZN5physx14PxsAABBManager16processBPResultsERKNS_20PxsComputeAABBParamsE
Kyh:_SendRecordAsyncResult_get_IsCompleted_m2666127692
IMc:__ZN24TextDOMTransferWriteBaseI9JSONWriteEC2E24TransferInstructionFlagsPNSt3__112basic_stringIcNS3_11char_traitsIcEENS3_9allocatorIcEEEE
_Gd:__ZN5physx23PxsBroadPhaseContextSapD2Ev
Pnm:__ZNSt3__16locale5facetD2Ev
Dw:__ZN14NavMeshManager9PurgeDataEPK11NavMeshData
Vte:__ZN5physx12SubSortQuickC2EPjPKNS_10PxBounds3VEjf
f3a:__Z18ConvertUTF16toUTF8PPKtS0_PPhS2_15ConversionFlags
Hzk:_TypeLoadException__ctor_m1903359728
lhm:__ZL16my_g_bit_nth_msfj
DLi:_Transform_1_BeginInvoke_m3014766640_gshared
yFa:__Z20DeformSkinnedMeshJobP12SkinMeshInfo
obi:_KeySizes__ctor_m3526899007
t8g:_Int16_System_IConvertible_ToInt32_m191782913_AdjustorThunk
uB:__ZN9Animation12CleanupClassEv
a3l:__ZL69ArgumentCache_t4810721_CustomAttributesCacheGenerator_m_FloatArgumentP21CustomAttributesCache
swc:__ZN9ShaderLab13ParserUsePassD2Ev
gUh:_Collection_1_CopyTo_m1578267616_gshared
eTf:_EncoderReplacementFallback__ctor_m2208438262
kHk:_X509Chain_IsValid_m4184995162
XWk:__ZN6il2cpp2vm5Class15GetInstanceSizeEPK11Il2CppClass
tTe:__ZN5physx2Sn21RepXVisitorReaderBaseINS_22PxVehicleWheelsSimDataEE23extendedIndexedPropertyINS_3Pvd36PxPvdExtendedIndexedPropertyAccessorILj616ES2_KjNS_6PxVec3EEEKNS_18PxUnknownClassInfoEEEvPjRKT_RT0_
hb:invoke_iiiifiiii
cWf:_UTF7Decoder_GetChars_m2790530452
d5:__ZN9rapidjson8internal6u64toaEyPc
fUk:_EventFunction_1_BeginInvoke_m3064802067_gshared
PLl:__ZL67IndexOutOfRangeException_t3527622107_CustomAttributesCacheGeneratorP21CustomAttributesCache
Zdc:__Z16Transfer_BuiltinId18StreamedBinaryReadILb1EELb0EEvRK29SerializationCommandArgumentsR31RuntimeSerializationCommandInfo
Xyd:__ZNK5physx2Sc9ClothCore16getRestPositionsEPNS_6PxVec4E
WOd:__ZN5physx20PxcSweepConvexConvexERKNS_11PxsCCDShapeES2_PKNS_12PxsRigidBodyES5_RKNS_11PxTransformES8_S8_S8_fRNS_6PxVec3ESA_RNS_10PxcNpCacheERNS_18PxcNpThreadContextEf
Nch:_Directory_GetFiles_m4036267478
Gzg:_Enum_System_IConvertible_ToType_m2669300536
TKd:__ZN5physx15PxsParticleDataD0Ev
F1b:__ZL19BlitFramebufferImplRN4gles23BlitFramebufferDrawQuadER9GfxDevice9TextureIDRK8Vector4f
yxm:dynCall_viiiifii
uZe:__ZN5physx6shdfnd5ArrayIPvNS0_19ReflectionAllocatorIN17PxcPoolMallocData9PoolData8EEEE15growAndPushBackERKS2_
S9i:__Z44RuntimeInvoker_Byte_t3683104436_Il2CppObjectPK10MethodInfoPvPS2_
p2i:_ReadOnlyCollection_1_System_Collections_IList_Add_m2333231354_gshared
qKl:__ZL78Convert_t2607082565_CustomAttributesCacheGenerator_Convert_ToSByte_m2470292806P21CustomAttributesCache
Orc:__ZN14SafeBinaryRead21TransferSTLStyleArrayINSt3__16vectorI9InputAxisNS1_9allocatorIS3_EEEEEEvRT_17TransferMetaFlags
iBa:__ZN18PlayableController12GetFrameDataEv
hCi:_OpCodes__cctor_m939885911
hVa:__ZN14Texture2DArray11InitTextureEiii13TextureFormatb
nrh:_PKCS1_RSASP1_m1748738009
Wil:__ZN16VirtFuncInvoker0IP26DelegateU5BU5D_t1606206610E6InvokeEjPv
W_d:__ZN5physx15PxGeometryQuery14getWorldBoundsERKNS_10PxGeometryERKNS_11PxTransformEf
Wyh:_RSASslSignatureDeformatter_SetHashAlgorithm_m4048969080
$zd:__ZN5physx2Sc9ClothCore18setSolverFrequencyEf
nak:_UriParser_InitializeAndValidate_m251943319
TKf:_SymmetricAlgorithm_set_Padding_m3081984460
nMj:_InternalEnumerator_1_MoveNext_m2906956792_AdjustorThunk
dWb:__ZN9InputAxis8TransferI18StreamedBinaryReadILb0EEEEvRT_
Eki:_Keyframe__ctor_m2042404667
MRc:__ZN11ForceModule8TransferI14SafeBinaryReadEEvRT_
V8h:_StreamingContext_t1417235061_marshal_pinvoke_back
Dum:__ZNSt3__16locale5__imp7installINS_7num_getIwNS_19istreambuf_iteratorIwNS_11char_traitsIwEEEEEEEEvPT_
L5d:__ZN5physx2Gu16buildPartialHullERKNS0_13PolygonalDataEPNS0_12SupportLocalERNS0_14SeparatingAxesERKNS_6shdfnd3aos5Vec3VESC_
thg:_ArrayList_RemoveAt_m2578928333
XQf:_String_ToString_m3226660001
wKc:__Z30GUIStyle_CUSTOM_SetDefaultFontP15ScriptingObject
v1i:_ReadOnlyCollection_1_System_Collections_IList_set_Item_m1233322304_gshared
UEk:_GeneralNames_get_DNSNames_m2721668874
wzg:_Enum_System_IConvertible_ToByte_m38374586
M2a:__Z38VerifyNothingIsPersistentInLoadedSceneRKNSt3__112basic_stringIcNS_11char_traitsIcEENS_9allocatorIcEEEE
nAm:_emscripten_glFrustum__wrapper
rnd:__ZNK5physx2Sc16ArticulationCore17releaseDriveCacheERNS_9PxcFsDataE
qyh:_ReceiveRecordAsyncResult_get_CompletedWithError_m2670396551
_Zl:__ZL77Font_t4239498691_CustomAttributesCacheGenerator_Font_get_fontSize_m1732593415P21CustomAttributesCache
Dwg:_Decimal_Equals_m1798565377
Eal:_GC_push_all
v8c:__ZN5physx11NpAggregate7releaseEv
v7l:__ZL66InputField_t1631627530_CustomAttributesCacheGenerator_m_CaretColorP21CustomAttributesCache
rCi:_TypeBuilder_check_created_m2929267877
Hia:__Z20SyncFenceCullResultsR11CullResults
Dac:__ZN15TextureTFMethod20IsBoneCountSupportedEi
Vfi:_GUISkin_set_horizontalScrollbarThumb_m2119687595
Z3h:_ObjRef__ctor_m1486312270
ypg:_Convert_ToInt16_m416789348
rsg:_DateTime_System_IConvertible_ToSByte_m2575078084_AdjustorThunk
Glc:__Z22TransferField_NonArrayI17RemapPPtrTransfer27Converter_SimpleNativeClassI8GUIStyleEEvRK23StaticTransferFieldInfoR31RuntimeSerializationCommandInfoRT0_
z1e:__ZN5physx5cloth9ClothImplINS0_7SwClothEE12setTrianglesENS0_5RangeIKNS_6PxVec3EEEjj
Ahd:__ZN5physx7NpShape12setMaterialsEPKPNS_10PxMaterialEt
lTh:_Collection_1_System_Collections_IList_IndexOf_m4075083918_gshared
qWb:__ZNK17AnimationCurveTplIfE20EvaluateWithoutCacheEfRf
J7k:__ZN6il2cpp2os6Thread12QueueUserAPCEPFvPvES2_
lBe:__ZNK5physx18NpArticulationLink13isSubordinateEv
IZf:_Array_InternalArray__IEnumerable_GetEnumerator_TisDictionaryEntry_t3048875398_m3498834924_gshared
Kii:_GUIStyleState__ctor_m3611888666
Sjc:__Z16Transfer_BuiltinIi13ProxyTransferLb0EEvRK29SerializationCommandArgumentsR31RuntimeSerializationCommandInfo
rWi:_Collection_1_IsValidItem_m1304951912_gshared
hEa:__ZN4Mesh10SetNormalsEPK8Vector3fj
ZFi:_PropertyInfo__ctor_m1808219471
o2c:__Z66Register_UnityEngine_Physics2D_INTERNAL_CALL_GetRayIntersectionAllv
Gog:_Convert_ToDateTime_m4161927553
Mmj:__Z76RuntimeInvoker_Void_t1841601450_RegexOptionsU26_t3063574985_SByte_t454417549PK10MethodInfoPvPS2_
bzi:_TypeBuilder_GetConstructors_m774120094
n_l:__ZL87Canvas_t209405766_CustomAttributesCacheGenerator_Canvas_set_overrideSorting_m3982973573P21CustomAttributesCache
$wc:__ZNSt3__16vectorI4PPtrI17ProceduralTextureE13stl_allocatorIS3_L18MemLabelIdentifier77ELi16EEE6assignINS_11__wrap_iterIPS3_EEEENS_9enable_ifIXaasr21__is_forward_iteratorIT_EE5valuesr16is_constructibleIS3_NS_15iterator_traitsISD_E9referenceEEE5valueEvE4typeESD_SD_
bP:__ZN17AnimationCurveTplIfE8TransferI14SafeBinaryReadEEvRT_
gZl:__ZL90AudioSource_t1135106623_CustomAttributesCacheGenerator_AudioSource_PlayOneShot_m4118899740P21CustomAttributesCache
GRa:__Z40CleanupRendererAnimationBindingInterfacev
TOc:__ZN22ParticleSystemRenderer15InitializeClassEv
w8j:_RegularExpression_set_GroupCount_m2991393456
_$d:__ZN5physx2Gu9RadixSortD2Ev
dBg:_Calendar_get_EraNames_m452820602
YWd:__Z36getPxVehicleDriveNW_ConcreteTypeNamePKN5physx16PxVehicleDriveNWE
T$d:__Z15raycast_capsuleRKN5physx10PxGeometryERKNS_11PxTransformERKNS_6PxVec3ES8_fNS_7PxFlagsINS_9PxHitFlag4EnumEtEEjPNS_12PxRaycastHitEbPFbRSD_PvESG_
OKf:_SymmetricAlgorithm_set_Key_m2973350820
b2b:__ZN14DrawBufferGLESI12VertexBuffer27VertexBufferUsageMapperGLESE8EndWriteEj
csg:_DateTime_System_IConvertible_ToByte_m2670443498_AdjustorThunk
fDe:__ZNK5physx15NpActorTemplateINS_15PxParticleFluidEE14getOwnerClientEv
q_k:_il2cpp_class_get_image
nob:__Z16AsyncReadRequestP16AsyncReadCommand
fOl:__ZL81BigInteger_t925946153_CustomAttributesCacheGenerator_BigInteger__ctor_m4013661868P21CustomAttributesCache
D$e:__ZNK5physx34PxsSolverConstraintPostProcessTask7getNameEv
D_e:__ZN5physx2Cm12DelegateTaskINS_16PxsFluidDynamicsEXadL_ZNS2_10mergeForceEPNS_10PxBaseTaskEEEE11runInternalEv
Qoh:_BigInteger_op_Addition_m1734797151
Htj:__Z110RuntimeInvoker_Boolean_t3825574718_Vector2_t2243707579_Vector2_t2243707579_Single_t2076509932_SByte_t454417549PK10MethodInfoPvPS2_
$1d:__ZN5physx2Gu23distancePointBoxSquaredERKNS_6PxVec3ES3_S3_RKNS_7PxMat33EPS1_
U9e:__ZN5physx9NpPhysics20MeshDeletionListener28onGuMeshFactoryBufferReleaseEPKNS_6PxBaseEtb
ATb:__Z19Build2DArrayTextureIhPFvPhiiiiiiEEP14Texture2DArrayPKciii13TextureFormatRKT0_17TextureColorSpace
sVi:_Collection_1_System_Collections_IList_set_Item_m3488446830_gshared
uzi:_EnumBuilder_CreateNotSupportedException_m62763134
ppm:__ZNKSt3__18time_getIcNS_19istreambuf_iteratorIcNS_11char_traitsIcEEEEE11do_get_yearES4_S4_RNS_8ios_baseERjP2tm
W$h:_X509Chain_CheckRevocation_m2480313486
IHf:_RijndaelManagedTransform_TransformBlock_m2558865851
Sei:_GUILayoutUtility_Layout_m3812180708
Prc:__ZN9InputAxis8TransferI14SafeBinaryReadEEvRT_
jfd:__ZNK5physx7NpScene9getActorsENS_7PxFlagsINS_15PxActorTypeFlag4EnumEtEEPPNS_7PxActorEjj
xzf:__Z27RegisterModule_UnityConnectv
Or:copyTempFloat
FEh:_Enumerator_Dispose_m3717265706_AdjustorThunk
x8e:__ZN5physx15PxParticleFluidD0Ev
x_e:__ZN5physx11NodeManagerD0Ev
YLi:_Enumerator__ctor_m908409898_gshared
Fdk:_Bounds_get_size_m1728027642_AdjustorThunk
E4h:_RealProxy__ctor_m3041043303
ysg:_DateTime_System_IConvertible_ToUInt32_m1363211018
Vci:_HMACSHA1__ctor_m1168389339
lod:__ZNK5physx2Sc8BodyCore6getSimEv
ONc:__ZN14ParticleSystem7Update1ERS_R23ParticleSystemParticlesfbbi
v$:__ZN10ObjectPoolIN4FMOD12ChannelGroupENS0_13ChannelGroupIEE7SetSizeEi
eob:__Z5SplitRKNSt3__112basic_stringIcNS_11char_traitsIcEENS_9allocatorIcEEEEcRNS_6vectorIS5_NS3_IS5_EEEEi
iDl:__ZL49Marshal_t785896760_CustomAttributesCacheGeneratorP21CustomAttributesCache
c$g:_PrimalityTest_BeginInvoke_m966469054
W4i:_ReadOnlyCollection_1_System_Collections_Generic_ICollectionU3CTU3E_Clear_m1785953911_gshared
z6k:__ZN6il2cpp2os10ThreadImpl33UnregisterCurrentThreadForCleanupEv
GCk:_UInt64_System_IConvertible_ToInt16_m2797150165_AdjustorThunk
d9f:_Array_InternalArray__get_Item_TisLabelData_t3712112744_m863115768_gshared
S9g:_Int32_Parse_m753946802
Eli:_Material_DisableKeyword_m1204728089
Bza:__Z22ValidateTlsfAllocationPvjiS_
UUl:__ZL97Component_t3819376471_CustomAttributesCacheGenerator_Component_GetComponentInChildren_m3985003615P21CustomAttributesCache
mpl:__ZN16VirtFuncInvoker0I19Vector3_t2243707580E6InvokeEjPv
_9e:__ZN5physx2Cm12RefCountable14onRefCountZeroEv
$Ph:_List_1_RemoveAt_m2331128844_gshared
uqi:_Object_DoesObjectWithInstanceIDExist_m2570795274
ZCi:_UnmanagedMarshal_ToMarshalAsAttribute_m3695569337
rkd:__ZNK5physx7NpCloth25getMotionConstraintConfigEv
wam:__ZL104LayoutRebuilder_t2155218138_CustomAttributesCacheGenerator_LayoutRebuilder_U3CRebuildU3Em__B_m3543053817P21CustomAttributesCache
Bmb:__Z12GUIDToStringRK9UnityGUID
DUg:_LayoutElement_get_minHeight_m2070403283
f6k:__ZN6il2cpp6icalls8mscorlib6System4Enum12get_hashcodeEP12Il2CppObject
nV:__ZN11SoundHandleC2ERKS_
cWg:_Mask_OnEnable_m501850981
ABf:__ZN22UnityAnalyticsSettingsC2Ev
EAi:_GenericTypeParameterBuilder_GetGenericTypeDefinition_m2936287336
vqd:__ZThn8_N5physx2Sc24ElementInteractionMarker7destroyEv
Gdb:__ZN12ScriptMapper23VirtualRedirectTransferER18StreamedBinaryReadILb1EE
VO:__ZN11Quaternionf8TransferI18StreamedBinaryReadILb1EEEEvRT_
$Zb:__Z29StdTemplateConversionFunctionItxEbPvR14SafeBinaryRead
Gya:__ZN9ShaderLab18ParserBindChannelsC2Ev
i0j:_FormatterData__ctor_m3974986124
Haa:__ZN39AssetBundleLoadFromStreamAsyncOperationC2ERKNSt3__112basic_stringIcNS0_11char_traitsIcEENS0_9allocatorIcEEEE
nmk:_CustomAnimationPlayable_SetInputs_m1393448423
MCd:__ZN5physx5cloth11SwCollisionI8Scalar4fE16collideTrianglesEPKNS0_12TriangleDataEPS2_RNS3_18ImpulseAccumulatorE
zoe:__ZN5physx6shdfnd4sortIPNS_10PxsCCDPairENS_16IslandPtrCompareENS0_19ReflectionAllocatorIS3_EEEEvPT_jRKT0_RKT1_
HHf:_RijndaelManagedTransform_get_CanReuseTransform_m3735256596
r6c:__ZN5physx3Cct26CharacterControllerManager24setOverlapRecoveryModuleEb
skg:_Comparer__cctor_m1327316974
fVg:_LayoutGroup_get_isRootLayoutGroup_m4290112166
hug:_DateTime_op_GreaterThanOrEqual_m3818963848
iVl:__ZL96Component_t3819376471_CustomAttributesCacheGenerator_Component_SendMessage_m2241432133____value1P21CustomAttributesCache
YLg:_DefaultControls_SetDefaultTextValues_m1707718380
YHg:_TouchInputModule_UseFakeInput_m2112019004
ZAi:_LabelFixup_t4090909514_marshal_pinvoke_cleanup
hEg:_EventSystem_get_baseEventDataCache_m4294741599
DXc:__ZNSt3__17__sort5IRPFbRK16MeshTriangleDataS3_EPS1_EEjT0_S8_S8_S8_S8_T_
jCc:__ZN14RenderSettings18TransferDeprecatedI14SafeBinaryReadEEvRT_
DLe:__ZN24ConvexVsHeightfieldSweepD0Ev
fei:_GUILayoutEntry_ToString_m1331406279
T0l:__ZL85GUIStyle_t1799908754_CustomAttributesCacheGenerator_GUIStyle_Internal_Draw_m694122665P21CustomAttributesCache
bZl:__ZL87AudioSource_t1135106623_CustomAttributesCacheGenerator_AudioSource_get_clip_m2127996365P21CustomAttributesCache
_za:__ZN12TLSAllocatorI14StackAllocatorE8AllocateEji
v7a:__ZN16ScriptingManager18GetMonoScriptCacheEi
dei:_GUIStyle_get_stretchHeight_m3396762700
dib:__ZN20ArchiveStorageHeader13GetDataOffsetERKNS_6HeaderE
xqm:__ZNKSt3__110moneypunctIcLb1EE16do_decimal_pointEv
iKe:__ZNK5physx3Ext5JointINS_15PxDistanceJointENS_30PxDistanceJointGeneratedValuesEE11getBodyPoseEPKNS_12PxRigidActorE
_Pg:_GridLayoutGroup_CalculateLayoutInputHorizontal_m2355123124
TOl:__ZL84Locale_t4255929017_CustomAttributesCacheGenerator_Locale_GetText_m512920887____args1P21CustomAttributesCache
Lsi:_RaycastHit_get_collider_m301198172_AdjustorThunk
NBi:_ModuleBuilder_GetTypes_m93550753
bik:_Coroutine__ctor_m1253937571
O5i:_ReadOnlyCollection_1_System_Collections_ICollection_get_IsSynchronized_m4063596282_gshared
dxa:__ZN9ShaderLab7Program22ComputeSupportsShadowsEv
mBl:__ZL54TypeBuilder_t3308873219_CustomAttributesCacheGeneratorP21CustomAttributesCache
uld:__ZN5physx7NpCloth25setSelfCollisionStiffnessEf
Vyc:__ZN6prcoreL17RemapGenericFloatI18TexFormatARGBFloat17TexFormatRGBAHalfEEvPKNS_9InnerInfoE
bXi:_Collection_1_CheckWritable_m691269733_gshared
p8f:_Mesh_SetListForChannel_TisColor32_t874517518_m3239432057_gshared
Dcf:__ZN13Simd4iFactoryIN6detail9FourTupleEEC2Eiiii
lhh:_SynchronizedReader__ctor_m1408327515
YHk:_X509Store_LoadCrl_m1146720614
Owg:_Decimal_CompareTo_m2454501434
otb:__Z40Camera_CUSTOM_INTERNAL_CALL_RaycastTry2DP15ScriptingObjectRK3Rayfi
xUe:__ZN5physx3Pvd17PvdPropertyFilterINS_2Sn17RepXVisitorWriterINS_18PxVehicleGearsDataEEEE14handleAccessorILj529ENS_22PxRepXPropertyAccessorILj529ES4_jjEEEEvjRKT0_
_lg:_Slot_t2022531261_marshal_pinvoke_cleanup
jck:_LogCallback__ctor_m898185969
Etc:__ZN15SerializeTraitsI33EnlightenTerrainChunksInformationE8TransferI14SafeBinaryReadEEvRS0_RT_
KH:__ZN7mecanim9animation16MotionOutputCopyEPNS0_12MotionOutputEPKS1_bbRKNS_6bitsetILj66EEE
tpd:__ZN5physx2Sc14ConstraintCoreD2Ev
fhc:__ZNSt3__16vectorIa13stl_allocatorIaL18MemLabelIdentifier1ELi16EEE8__appendEj
osc:__ZNK32RendererMaterialAnimationBinding9BindValueER6ObjectRKN11UnityEngine9Animation14GenericBindingERNS3_10BoundCurveE
FSd:__ZN5physx15PxVehicleWheels17getBinaryMetaDataERNS_14PxOutputStreamE
dfj:__Z112RuntimeInvoker_Int32_t2071877448_Il2CppObject_Int32_t2071877448_Int32_t2071877448_Il2CppObject_Int32_t2071877448PK10MethodInfoPvPS2_
zaf:__ZN5physx15NpActorTemplateINS_18PxArticulationLinkEE13setActorFlagsENS_7PxFlagsINS_11PxActorFlag4EnumEtEE
oZa:__Z13GetIAnimationv
rFc:__ZL18stbir__support_onef
wge:__ZN5physx6shdfnd8internal8HashBaseIPNS_11PxAggregateES4_NS0_4HashIS4_EENS1_11HashSetBaseIS4_S6_NS0_9AllocatorELb0EE6GetKeyES8_Lb0EE15reserveInternalEj
$Ih:_List_1_System_Collections_IList_Remove_m2040310137_gshared
M$b:__ZN15NameToObjectMapI6ShaderNSt3__13mapI4PPtrIS0_E8UnityStrNS1_4lessIS4_EENS1_9allocatorINS1_4pairIKS4_S5_EEEEEENS1_8multimapIS5_S4_NS6_IS5_EENS8_INS9_IKS5_S4_EEEEEEE4FindERKNS1_12basic_stringIcNS1_11char_traitsIcEENS8_IcEEEE
HAl:__ZL49Stream_t3255436806_CustomAttributesCacheGeneratorP21CustomAttributesCache
mYc:__ZN14VelocityModuleD2Ev
mTf:_EncoderReplacementFallback_CreateFallbackBuffer_m3579126537
LBk:_UInt32_System_IConvertible_ToInt16_m2251335934_AdjustorThunk
Oyg:_Double_System_IConvertible_ToInt64_m3798425616_AdjustorThunk
zef:_UNITY_FT_DivFix
Sa:invoke_vdd
Hp:FUNCTION_TABLE_fiii
XKj:_InternalEnumerator_1_Dispose_m3838127340_AdjustorThunk
YQb:__ZNSt3__16vectorIh13stl_allocatorIhL18MemLabelIdentifier14ELi16EEE6insertENS_11__wrap_iterIPKhEEjRS6_
Vyg:_Double_System_IConvertible_ToUInt32_m624993430
Lp:FUNCTION_TABLE_fiif
u4l:__ZL89PointerEventData_t1599784723_CustomAttributesCacheGenerator_U3CdraggingU3Ek__BackingFieldP21CustomAttributesCache
yuc:__ZNK30SpriteRendererAnimationBinding12GetPPtrValueERKN11UnityEngine9Animation10BoundCurveE
nxk:_Scheduler_Add_m376749205
rbj:__Z98RuntimeInvoker_Void_t1841601450_Int32_t2071877448_Il2CppObject_Int32_t2071877448_Int32_t2071877448PK10MethodInfoPvPS2_
hel:__ZN6il2cpp6icalls8mscorlib4Mono8Security12Cryptography18KeyPairPersistence19_IsMachineProtectedEP12Il2CppString
VDd:__ZN5physx5cloth16SwInterCollisionI8Scalar4fEclEv
Nhk:_ContactPoint2D_t3659330976_marshal_pinvoke_cleanup
lTb:__Z14RandomRotationP9Texture2DPhiiii
ynh:_OutOfMemoryException__ctor_m1932883273
zJj:_InternalEnumerator_1_MoveNext_m1594563423_AdjustorThunk
tQe:__ZThn132_N5physx7profile8ZoneImplINS_28PxProfileNameProviderForwardEED1Ev
Klc:__Z65EmitSerializationCommandsForLinearCollectionOfManagedObjectsFieldI17RemapPPtrTransferEvRK23TransferArrayField_InfoR20SerializationCommandR32SerializationCommandQueueBuilderRP20AllowNameConversions
Dwj:__Z76RuntimeInvoker_Boolean_t3825574718_DirectionU26_t743901654_Int32_t2071877448PK10MethodInfoPvPS2_
q_l:__ZL86Canvas_t209405766_CustomAttributesCacheGenerator_Canvas_get_sortingLayerID_m1396307660P21CustomAttributesCache
pam:__ZL79LayoutRebuilder_t2155218138_CustomAttributesCacheGenerator_U3CU3Ef__amU24cache7P21CustomAttributesCache
gml:__ZN16VirtFuncInvoker0ItE6InvokeEjPv
Wqj:__Z70RuntimeInvoker_Void_t1841601450_Int32_t2071877448_SceneU26_t1773220846PK10MethodInfoPvPS2_
MUe:__ZN5physx3Pvd17PvdPropertyFilterINS_2Sn17RepXVisitorWriterINS_21PxVehicleDriveDynDataEEEE14handleAccessorILj644ENS_22PxRepXPropertyAccessorILj644ES4_KffEEEEvRKT0_
Ofj:__Z35RuntimeInvoker_TimeSpan_t3430258949PK10MethodInfoPvPS2_
GNh:_List_1_System_Collections_IList_Insert_m2036969360_gshared
iTg:_InputField_GetUnclampedCharacterLineFromPosition_m1912794077
mJk:_SpaceAttribute__ctor_m1444406696
Hfd:__ZN5physx7NpScene27setCCDContactModifyCallbackEPNS_26PxCCDContactModifyCallbackE
Zdh:_ReadDelegate__ctor_m885671467
lYd:__ZNK5physx17ConvexHullBuilder17ComputeGeomCenterERNS_6PxVec3E
F2c:__ZN15dense_hashtableINSt3__14pairIKNS1_IPK10Collider2DS4_EE11Collision2DEES5_NS2_23ColliderPairHashFunctorEN14dense_hash_mapIS5_S7_S9_NS0_8equal_toIS5_EE13stl_allocatorIS8_L18MemLabelIdentifier65ELi16EEE9SelectKeyESC_SF_E12resize_deltaEjj
Mug:_DateTimeOffset_ToString_m2121173678_AdjustorThunk
COl:__ZL50X509Crl_t1699034837_CustomAttributesCacheGeneratorP21CustomAttributesCache
sGd:__ZN3MBPD0Ev
xzb:__ZNK13EmscriptenWWW14GetPartialDataEv
wGm:_glDeleteProgram__wrapper
wtb:__Z50Register_UnityEngine_Camera_INTERNAL_get_pixelRectv
_ua:__ZN19RuntimeSceneManager14LoadSceneAsyncERK8UnityStrS2_S2_RK9UnityGUIDiNS_11LoadingModeEbRP10UnityScene
Bwj:__Z53RuntimeInvoker_UIVertex_t1204258818_Int32_t2071877448PK10MethodInfoPvPS2_
nB:__ZN9Animation17MainThreadCleanupEv
FOb:__ZN6prcoreL18BlitFloatToIntegerERK14ImageReferenceRS0_
Dvm:__ZNSt3__112system_errorC2ENS_10error_codeEPKc
_3g:_X509CertificateCollection_get_Item_m410866272
kei:_Rect_get_yMax_m2915146103
mId:__ZNK5physx10PxsContext18getBounceThresholdEv
Y_c:__ZN7b2Timer5ResetEv
A5:__ZN11UnityEngine15CloudWebService14RestDownloader17OnCompleteContentEv
Qpb:__Z28Texture2D_CUSTOM_GetPixels32P15ScriptingObjecti
qVa:__ZN14Texture2DArray23VirtualRedirectTransferER13ProxyTransfer
V$e:__ZN5physx6shdfnd5ArrayIPvNS0_15InlineAllocatorILj256ENS0_19ReflectionAllocatorINS_2Gu31SpherePersistentContactManifoldEEEEEE15growAndPushBackERKS2_
X6e:__ZN5physx2Cm18DelegateFanoutTaskINS_2Sc5SceneEXadL_ZNS3_17finalizationPhaseEPNS_10PxBaseTaskEEEE11runInternalEv
hHe:__ZN5physx20PxsParticleSystemSim32flushBufferedInteractionUpdatesVEv
jb:invoke_vifff
BEj:_InternalEnumerator_1__ctor_m2111763266_gshared
Heg:_Byte_System_IConvertible_ToInt16_m1575115635_AdjustorThunk
WDe:__ZN5physx15NpParticleFluid15exportExtraDataERNS_22PxSerializationContextE
_6f:_Array_swap_TisByte_t3683104436_TisByte_t3683104436_m994568618_gshared
A6d:__ZN5physx6shdfnd15atomicDecrementEPVi
Wf:_emscripten_request_fullscreen
Q5e:__ZN5physx2Cm12DelegateTaskINS_2Sc5SceneEXadL_ZNS3_11postCCDPassEPNS_10PxBaseTaskEEEED0Ev
qti:_Rect_get_xMin_m1161102488
Elb:__ZN20LocalFileSystemWebGL6DeleteER13FileEntryDatab
lwg:_Decimal_System_IConvertible_ToUInt16_m1621568250
_f:_emscripten_glDisableVertexAttribArray
GUl:__ZL79Object_t1021602117_CustomAttributesCacheGenerator_Object_Instantiate_m938141395P21CustomAttributesCache
Cp:FUNCTION_TABLE_iiiifiiii
f2g:_SymmetricTransform_CFB_m3548796389
e5j:_PatternCompiler_EmitTrue_m560950763
dyk:_TimeSpan_get_TotalMinutes_m1645177229_AdjustorThunk
Gc:invoke_fifffi
kWl:__ZL93Transform_t3275118058_CustomAttributesCacheGenerator_Transform_set_parentInternal_m4124721022P21CustomAttributesCache
hMi:_Enumerator__ctor_m3539306986_gshared
_Gb:__ZN4gles23ClearCurrentFramebufferEP7ApiGLESbbbRK10ColorRGBAffi
uK:__ZN7mecanim12statemachine20CreateStateWorkspaceEjjjRNS_6memory9AllocatorE
acm:__ZL81FOVKick_t1823436477_CustomAttributesCacheGenerator_FOVKick_FOVKickDown_m674243374P21CustomAttributesCache
_df:__ZN20TextRenderingPrivate19NativeTextGenerator15InsertCharacterEi
Bwf:__Z64Register_UnityEngine_CanvasRenderer_SplitIndiciesStreamsInternalv
xoj:__Z34RuntimeInvoker_Vector3_t2243707580PK10MethodInfoPvPS2_
A4d:__ZN5physx2Gu11HeightField13releaseMemoryEb
kg:_emscripten_glDeleteObjectARB
bOk:_Vector3__ctor_m2720820983
CSa:__Z14DecompressDXT3iiiPKjPj
q0:__ZNK8WWWAudio6IsDoneEv
GFc:_decode_mcu_AC_refine
bih:_UnexceptionalStreamReader_Read_m3839775235
Bzc:__ZN6prcoreL27StretchGenericFloatBilinearI18TexFormatARGBFloatEEvPKNS_9InnerInfoE
ePb:__ZN9ShaderLab16ParserSubProgramC2Ev
syb:__Z47Playable_CUSTOM_INTERNAL_CALL_GetOutputInternalR9HPlayableiS0_
_yl:__ZL49List_1_t1169184319_CustomAttributesCacheGeneratorP21CustomAttributesCache
L4h:_RealProxy_SetTargetDomain_m3940877656
Csk:_StandaloneInput_SetButtonDown_m3275340493
mzc:__ZN6prcoreL17RemapGenericFloatI17TexFormatRGBAHalf18TexFormatARGBFloatEEvPKNS_9InnerInfoE
Czg:_Enum_System_IConvertible_ToInt32_m2459904362
mIc:__ZNK8GUIStyle21DrawWithTextSelectionER8GUIStateRK5RectTIfER10GUIContentbbbbbiiRK10ColorRGBAfSA_
tZf:_SetPropertyUtility_SetStruct_TisType_t3352948571_m1850468430_gshared
U2a:__ZN10systeminfo21SupportsAccelerometerEv
FIc:__Z14GetBuiltinSkini
RSf:_DecoderReplacementFallbackBuffer_Reset_m2576819665
oBf:__ZN18CrashReportHandler23RegisterGlobalCallbacksEv
Ulk:_CustomAnimationPlayable_GetOutput_m2109551724
Elg:_Enumerator__cctor_m298562758
xUi:_Enumerator_System_Collections_IEnumerator_Reset_m2573763156_gshared
jkh:_MonoType_GetConstructors_internal_m2709619723
dn:_JS_SystemInfo_GetBrowserVersionString
eQa:__ZN2UI13RectTransform23VirtualRedirectTransferER14SafeBinaryRead
iyk:_TimeSpan_CompareTo_m2891128664
K0k:__ZNK6il2cpp2vm14TypeNameParser10NextWillBeEcb
ggd:__ZN5physx7NpScene17flushQueryUpdatesEv
tkh:_MonoType_GetMethodImpl_m593754598
IWb:__ZNSt3__16__treeIiNS_4lessIiEENS_9allocatorIiEEE12__find_equalIiEERPNS_16__tree_node_baseIPvEENS_21__tree_const_iteratorIiPNS_11__tree_nodeIiS8_EEiEESB_RKT_
oGh:_List_1_System_Collections_ICollection_get_SyncRoot_m3733894943_gshared
oHa:__ZN18AsyncUploadManager19AsyncResourceUploadER9GfxDeviceii
uLh:_List_1_Reverse_m302978607_gshared
gzm:dynCall_viiifiiiii
$5h:_SoapServices_RegisterInteropXmlType_m2949236705
nMh:_List_1_Remove_m1211693753_gshared
yab:__ZN17PersistentManagerC2Eii
vVc:__ZZN14ParticleSystem15InitializeClassEvEN46PostLateUpdateParticleSystemEndUpdateAllstruct7ForwardEv
ddl:__ZN6il2cpp2os6Locale32DoubleParseLocaleIndependentImplEPcPS2_
z$a:__ZN13BuildSettings13GetSceneIndexERKNSt3__112basic_stringIcNS0_11char_traitsIcEENS0_9allocatorIcEEEE
jBb:__ZN7ApiGLES15BindFramebufferEN2gl17FramebufferTargetENS0_17FramebufferHandleE
IRf:_String_CharCopy_m2550399897
Wpi:_UploadHandlerRaw_t3420491431_marshal_pinvoke
mce:__ZN12PhysXRaycast15InitializeClassEv
Mgd:__ZN5physx7NpScene10unlockReadEv
xJc:__Z71Register_UnityEngine_GUILayoutUtility_INTERNAL_CALL_Internal_MoveWindowv
gS:__ZN12AudioManager16SetListenerPauseEb
kEi:_MonoCMethod_InternalInvoke_m2816771359
uwc:__ZNSt3__16vectorIN9ShaderLab14ParserPropertyENS_9allocatorIS2_EEE10deallocateEv
Ynh:_U24ArrayTypeU244_t1957337331_marshal_pinvoke_back
JVi:_Collection_1_IsValidItem_m2254106115_gshared
jzi:_TypeBuilder_GetEvent_m3876348075
sqm:__ZNKSt3__110moneypunctIcLb0EE14do_frac_digitsEv
YWj:_Slider_OnMove_m641164662
na:invoke_viiiiiiiiiii
jxk:_Scheduler__ctor_m3716265742
f1g:_MACAlgorithm_Final_m4076939925
S1a:__ZN14PlayerSettings23VirtualRedirectTransferER13ProxyTransfer
yzk:_Type_get_ReflectedType_m587395740
Pgc:__Z14resize_trimmedINSt3__16vectorIj13stl_allocatorIjL18MemLabelIdentifier1ELi16EEEEEvRT_j
Dxh:_TlsServerKeyExchange_ProcessAsSsl3_m462106368
URb:__ZN11ChannelInfo8TransferI19StreamedBinaryWriteILb0EEEEvRT_
gFj:_InternalEnumerator_1_System_Collections_IEnumerator_get_Current_m3583252352_gshared
Jhb:__ZN23ArchiveStorageConverter24ReadHeaderFromMemoryFileEv
Yvf:__Z43CanvasRenderer_Get_Custom_PropMaterialCountP15ScriptingObject
tf:_munmap
Pyi:_EnumBuilder_get_FullName_m2818393911
Nzd:__ZN5physx2Sc9ClothCore22setFrictionCoefficientEf
bph:_BigInteger_op_RightShift_m852685747
ddd:__ZNK5physx9NpPhysics17getNbConvexMeshesEv
Plf:__ZNSt3__16vectorIN20TextRenderingPrivate4Font7IntRectE13stl_allocatorIS3_L18MemLabelIdentifier34ELi16EEE21__push_back_slow_pathIKS3_EEvRT_
igh:_StreamAsyncResult_get_Done_m2858832609
Igd:__ZNK5physx7NpScene29getContactCorrelationDistanceEv
fqb:__Z34Register_UnityEngine_Gradient_Initv
B3j:_DictionaryEnumerator_get_Entry_m1597857786
GSc:__ZN13InitialModule8TransferI17RemapPPtrTransferEEvRT_
LRb:__Z26TransformVerticesInnerLoopILb1ELb1ELb0EEvPhRK10Matrix4x4fRK10Matrix3x3fjPKhiiiS8_ii25GfxTransformVerticesFlags
xVk:_ObjectPool_1_set_countAll_m1742773675_gshared
t8h:_SerializationEntry_get_Value_m1628109884_AdjustorThunk
EDg:_BaseInputModule_GetAxisEventData_m3903709281
s9f:_Array_InternalArray__get_Item_TisUriScheme_t1876590943_m1821482697_gshared
q6f:_Array_Sort_TisIl2CppObject_m1954851512_gshared
hoh:_BigInteger__ctor_m3239748086
SSa:__ZN13ScreenManager23SetIsOrientationEnabledE18EnabledOrientationb
oB:__ZN9Animation13AwakeFromLoadE17AwakeFromLoadMode
HKl:__ZL79Convert_t2607082565_CustomAttributesCacheGenerator_Convert_ToUInt16_m1043031438P21CustomAttributesCache
xee:__Z39Register_UnityEngine_Rigidbody_get_dragv
fWb:__ZN9InputAxis8TransferI19StreamedBinaryWriteILb0EEEEvRT_
nLc:__Z45Register_UnityEngine_GUIStyle_GetFontInternalv
$rl:__ZNSt3__112basic_stringIcNS_11char_traitsIcEENS_9allocatorIcEEE6__initIPKcEENS_9enable_ifIXsr21__is_forward_iteratorIT_EE5valueEvE4typeESA_SA_
c7d:__ZN5physx6shdfnd8SyncImpl4waitEj
Wuc:__Z14resize_trimmedINSt3__16vectorI7SubMesh13stl_allocatorIS2_L18MemLabelIdentifier16ELi16EEEEEvRT_j
D6j:_Alternation_get_Alternatives_m1445219249
hRi:_DefaultComparer_GetHashCode_m2506382068_gshared
Qvb:__Z33Component_CUSTOM_BroadcastMessageP15ScriptingObjectP15ScriptingStringS0_i
zhk:_Component_SendMessageUpwards_m19741277
I1f:_Array_InternalArray__ICollection_Add_TisHitInfo_t1761367055_m2956071622_gshared
LWl:__ZL74Random_t1170710517_CustomAttributesCacheGenerator_Random_Range_m2884721203P21CustomAttributesCache
VGa:__Z28BuildSingleStreamChannelInfojRK20VertexChannelsLayoutjS1_P11ChannelInfo
oUc:__ZN33SizeBySpeedModulePropertyBindings13GetFloatValueERK14ParticleSystemi
rea:__ZN10GameObject23VirtualRedirectTransferER18StreamedBinaryReadILb0EE
a7k:__ZN6il2cpp2gc16GarbageCollector13AllocateFixedEjPv
xOj:_InternalEnumerator_1_Dispose_m2270401482_AdjustorThunk
Lh:_glFrontFace
GQa:__Z22RegisterClass_Rendererv
J7h:_ObjectRecord_get_IsUnsolvedObjectReference_m2202692850
eyb:__Z43Random_CUSTOM_INTERNAL_get_insideUnitSphereR8Vector3f
q1h:_FactoryCache_Cleanup_m4130035987
G4e:__ZNK5physx5cloth12LerpIteratorI8Scalar4fNS0_17UnalignedIteratorIS2_Lj3EEEEixEj
ccm:__ZL173U3CFOVKickUpU3Ec__Iterator1_t1277509061_CustomAttributesCacheGenerator_U3CFOVKickUpU3Ec__Iterator1_System_Collections_Generic_IEnumeratorU3CobjectU3E_get_Current_m3500001686P21CustomAttributesCache
qJd:__ZN5physx17PxsFluidCollisionC2ERNS_20PxsParticleSystemSimE
FVc:__ZN14ParticleSystem8TransferI17RemapPPtrTransferEEvRT_
jla:__Z25RegisterClass_LightProbesv
Gga:__ZNK6Camera28CalculateNeedsToRenderIntoRTEv
zWb:__ZN13BuildSettings8TransferI18StreamedBinaryReadILb1EEEEvRT_
pid:__ZN5physx13NpVolumeCache17getNbCachedShapesEv
FRi:_DefaultComparer_GetHashCode_m918846970_gshared
fMk:_Vector3_get_forward_m1201659139
ZQh:_List_1_Sort_m269561757_gshared
V0l:__ZL110GUIStyle_t1799908754_CustomAttributesCacheGenerator_GUIStyle_INTERNAL_CALL_Internal_DrawPrefixLabel_m557487542P21CustomAttributesCache
cu:__ZN15dtPathQueryInfoC2Ev
sO:__ZN4PPtrI13AnimationClipE8TransferI18StreamedBinaryReadILb0EEEEvRT_
RUi:_HashSet_1_Init_m1258286688_gshared
v2i:_ReadOnlyCollection_1_System_Collections_IList_RemoveAt_m525136953_gshared
bi:_strftime_l
qG:__ZN26AnimatorControllerPlayable27SetupStateMachineBehavioursEP6Object
ngk:_Collision2D_get_gameObject_m4234358314
Dyc:__ZN6prcoreL17RemapGenericFloatI17TexFormatRGBFloat18TexFormatRGBAFloatEEvPKNS_9InnerInfoE
N1b:__ZNSt3__16__treeINS_12__value_typeI21GLESRenderTargetSetupN2gl17FramebufferHandleEEENS_19__map_value_compareIS2_S5_NS_4lessIS2_EELb1EEENS_9allocatorIS5_EEE7destroyEPNS_11__tree_nodeIS5_PvEE
asd:__ZN5physx2Sc5Scene15getRenderBufferEv
jYl:__ZL90Rigidbody_t4233889191_CustomAttributesCacheGenerator_Rigidbody_get_angularDrag_m1478412889P21CustomAttributesCache
uCk:_UInt64_System_IConvertible_ToBoolean_m3012279573_AdjustorThunk
zhj:__Z48RuntimeInvoker_Il2CppObject_StringU26_t638738783PK10MethodInfoPvPS2_
I2g:_StrongName_get_PublicKeyToken_m1968460885
$_:__ZN11AudioSource8TransferI13ProxyTransferEEvRT_
qcm:__ZL155U3CDoBobCycleU3Ec__Iterator3_t3909908162_CustomAttributesCacheGenerator_U3CDoBobCycleU3Ec__Iterator3_System_Collections_IEnumerator_get_Current_m2269563411P21CustomAttributesCache
gAk:_Type_get_IsGenericTypeDefinition_m2147901038
M6:_UNITY_png_malloc_warn
myf:__ZN20UnityConnectSettings10InitializeEv
Qpi:_UploadHandler_SetContentType_m3179619127
e6g:_GregorianCalendar__ctor_m3794576475
Atk:_FollowTarget_LateUpdate_m2741096693
kCk:_UInt32_TryParse_m4283512434
rck:_AssetBundleCreateRequest_get_compatibilityChecks_m1268624964
S3a:__ZN13MonoBehaviour23VirtualRedirectTransferER19StreamedBinaryWriteILb0EE
JQ:__ZN9AudioClip11CreateSoundEv
vli:_Material_get_mainTexture_m432794412
sKi:_ShimEnumerator_MoveNext_m3313047792_gshared
Kyk:_TimeSpan_op_Inequality_m257547441
r1b:__ZN13dynamic_arrayIfLj4EE6insertEPfPKfS3_
oqi:_Object_set_hideFlags_m2204253440
Hyi:_EnumBuilder_get_Assembly_m4285228003
FU:__ZN20SoundChannelInstance23ApplyBufferedParametersEv
$Ue:__ZN5physx18RepXPropertyFilterINS_2Sn17RepXVisitorReaderINS_16PxVehicleDriveNWEEEEclILj633ENS_15PxVehicleWheelsENS_22PxVehicleWheelsDynDataES8_EEvRKNS_14PxPropertyInfoIXT_ET0_T1_T2_EEj
Wug:_DateTimeFormatInfo_get_RoundtripPattern_m562440017
OJl:__ZL76Convert_t2607082565_CustomAttributesCacheGenerator_Convert_ToByte_m791636053P21CustomAttributesCache
Ayg:_Double_System_IConvertible_ToByte_m3004284950_AdjustorThunk
d6h:_TypeEntry_get_AssemblyName_m1762285107
bwe:__ZNK5physx2Gu11HeightField17getHeightInternalEff
jbl:_GC_push_gc_structures
ufd:__ZNK5physx7NpScene22getClientBehaviorFlagsEh
Tbd:__ZN5physx9NpFactory14createMaterialEfff
Mye:__ZNK5physx3Cct13BoxController8getStatsERNS_17PxControllerStatsE
ang:_Enumerator_get_Current_m1271212567
vBd:__ZN5physx5cloth11PhaseConfigC2Et
kHb:__Z22GetShaderCachePathGLESv
X4c:__ZN5physx3Cct13BoxControllerD2Ev
kki:_Input_set_compositionCursorPos_m1615567306
CHm:_readdir__wrapper
pnk:_Playable_GetInputWeightInternal_m381407588
YWh:_IPAddress_ParseIPV6_m2209709575
OFe:__ZThn8_N5physx2Sc19ShapeInstancePairLLD0Ev
q1:__ZN19CloudServiceHandler18SaveFileFromServerERK8UnityStrS2_PN11UnityEngine15CloudWebService16WWWRestHeaderMapE
mOd:__ZN5physx19PxcContactSphereBoxERKNS_2Gu13GeometryUnionES3_RKNS_11PxTransformES6_RKfRNS_10PxcNpCacheERNS0_13ContactBufferE
uYj:_Toggle_set_group_m3833595685
qVg:_LayoutRebuilder_ForceRebuildLayoutImmediate_m566681977
Kfd:__ZNK5physx7NpScene21getBroadPhaseCallbackEh
lge:__ZN5physx6shdfnd5ArrayIPNS_12PxConstraintENS0_19ReflectionAllocatorIS3_EEE15growAndPushBackERKS3_
Yze:__ZN5physx3Ext5JointINS_15PxDistanceJointENS_30PxDistanceJointGeneratedValuesEE10onComShiftEj
dPc:__ZN22ParticleSystemRenderer12GetLocalAABBER4AABB
_nd:__ZNK5physx2Sc15ArticulationSim11checkResizeEv
Q1f:_Array_InternalArray__ICollection_Add_TisVector4_t2243707581_m698578249_gshared
zjm:___strchrnul
vdb:__ZN8keywords6CreateEPKc
Cve:__ZN5physx2Gu11gjkRelativeINS0_8CapsuleVENS0_11ConvexHullVEEEjRKT_RKT0_RKNS_6shdfnd3aos15PsMatTransformVERNSB_5Vec3VESG_SG_RNSB_6FloatVE
YSd:__ZN5physx16PxVehicleNoDrive14setDriveTorqueEjf
Pu:__Z20dtDistancePtSegSqr2DPKfS0_S0_Rf
ba:Math_imul
Sgi:_GUIStyle_set_active_m2896743432
mKe:__ZN5Unity5Joint22JointTransferPreNoAxisI14SafeBinaryReadEEvRT_
ysk:_StandaloneInput_GetAxis_m3983274351
jGa:__ZN14SpriteRenderer15SetupPropertiesEv
aOf:_SecurityFrame_t1002202659_marshal_pinvoke_back
bri:_Physics_Raycast_m2036777053
Bsh:_CertificateValidationCallback_Invoke_m2500463874
fMa:__Z29scripting_field_has_attributeP14ScriptingClassP14ScriptingFieldS0_
W0l:__ZL102GUIStyle_t1799908754_CustomAttributesCacheGenerator_GUIStyle_Internal_GetCursorFlashOffset_m3177259302P21CustomAttributesCache
tnk:_Playable_Equals_m3780922516_AdjustorThunk
Cnl:__ZN23InterfaceActionInvoker2Ii18Color32_t874517518E6InvokeEjP11Il2CppClassPviS0_
hPg:_Graphic_Raycast_m3582517890
Ecc:__ZN14SafeBinaryRead19TransferSTLStyleMapINSt3__13mapIN9ShaderLab16FastPropertyNameEN18UnityPropertySheet11UnityTexEnvENS1_4lessIS4_EENS1_9allocatorINS1_4pairIKS4_S6_EEEEEEEEvRT_17TransferMetaFlags
eT:__ZN11AudioSource12SetAudioClipEP9AudioClip
FB:__ZN9Animation9CrossFadeER14AnimationStatefib
k5j:_PatternCompiler_EmitCategory_m1696942454
dVc:__ZN30VelocityModulePropertyBindings13GetFloatValueERK14ParticleSystemi
xwg:_Decimal_decimalFloorAndTrunc_m3655683429
h2f:_Array_InternalArray__ICollection_CopyTo_TisInt32_t2071877448_m984622488_gshared
cCm:_emscripten_glStencilOpSeparate__wrapper
lcm:__ZL52FPSCounter_t584591591_CustomAttributesCacheGeneratorP21CustomAttributesCache
shf:_cf2_getLanguageGroup
Sla:__ZN13ProbeRenderer8ConvolveEbijjb
vDa:__ZN17GenericDynamicVBOC2ER9GfxDevice13GfxBufferModejj
I0j:_Context_get_HasDynamicSinks_m1998518649
r2c:__Z28GetPhysics2DScriptingClassesv
$td:__ZNK5physx2Sc5Scene7isValidEv
N$b:__ZN12ScriptMapper7PRODUCEE18MemLabelIdentifier18ObjectCreationMode
aok:_GameObject_BroadcastMessage_m3472370570
V2:__ZN11UnityEngine15CloudWebService17SessionEventQueue10PurgeItemsEj
PRd:__ZN5physx2Sq17SceneQueryManager29setDynamicTreeRebuildRateHintEj
zNi:_ValueCollection_System_Collections_Generic_ICollectionU3CTValueU3E_get_IsReadOnly_m1530798787_gshared
aDg:_AbstractEventData_get_used_m4208553917
O3a:__ZN13MonoBehaviour18TransferEngineDataI13ProxyTransferEE4PPtrI10MonoScriptERT_
Rag:_Array_GetLength_m2083296647
JHl:__ZL58SecurityElement_t2325568386_CustomAttributesCacheGeneratorP21CustomAttributesCache
XNl:__ZL44Uri_t19570940_CustomAttributesCacheGeneratorP21CustomAttributesCache
hjg:_SynchronizedArrayListWrapper_ToArray_m1522185111
Dlj:__Z55RuntimeInvoker_TimeSpan_t3430258949_DateTime_t693205669PK10MethodInfoPvPS2_
GWb:__ZNSt3__16__treeINS_12__value_typeINS_12basic_stringIcNS_11char_traitsIcEENS_9allocatorIcEEEEP15FileSystemEntryEENS_19__map_value_compareIS7_SA_NS_4lessIS7_EELb1EEENS5_ISA_EEE7destroyEPNS_11__tree_nodeISA_PvEE
gVe:__ZN5physx18RepXPropertyFilterINS_2Sn17RepXVisitorReaderINS_23PxVehicleDriveSimDataNWEEEEclILj658ENS_21PxVehicleDriveSimDataERKNS_19PxVehicleClutchDataES8_EEvRKNS_14PxPropertyInfoIXT_ET0_T1_T2_EEj
val:_GC_expand_hp_inner
Ple:__ZN5physx6shdfnd5ArrayINS_6PxVec4ENS0_16AlignedAllocatorILj16ENS0_9AllocatorEEEE15growAndPushBackERKS2_
$Mf:_SecurityContext_get_FlowSuppressed_m420202521
MIa:__ZN9GfxDevice20DeallocRenderSurfaceEP17RenderSurfaceBase
fEk:_ValueType_ToString_m3796301715
I6c:__ZNK5physx3Cct10Controller12getKineShapeEv
eya:__Z5yylexv
fjj:__Z62RuntimeInvoker_Int64_t909078037_Il2CppObject_Int32_t2071877448PK10MethodInfoPvPS2_
cSc:__ZN20ExternalForcesModule8TransferI19StreamedBinaryWriteILb0EEEEvRT_
q5f:_Array_qsort_TisUICharInfo_t3056636800_m2607408901_gshared
lei:_GUILayoutGroup__ctor_m992523271
f3b:__ZN12BaseRenderer23RendererBecameInvisibleEv
Bod:__ZNK5physx2Sc8BodyCore14getMaxAngVelSqEv
w5j:_PatternCompiler_EmitReference_m1381860071
Xjj:__Z51RuntimeInvoker_Single_t2076509932_Int16_t4041245914PK10MethodInfoPvPS2_
Bgj:__Z41RuntimeInvoker_StackBehaviour_t1390406961PK10MethodInfoPvPS2_
VTk:_UnityEvent_1_Invoke_m1533100983_gshared
hpb:__Z59Register_UnityEngine_LineRenderer_INTERNAL_CALL_SetPositionv
sWh:_FileWebRequest__ctor_m4003648606
Gqk:_VirtualAxis__ctor_m802766396
EFa:__ZN16MeshVertexFormat23CreateVertexDeclarationEjPKS_
i8l:__ZL65Scrollbar_t3248359358_CustomAttributesCacheGenerator_m_HandleRectP21CustomAttributesCache
$9d:__Z19RegisterClass_Jointv
PL:__ZNSt3__16__sortIRN11UnityEngine9Animation11BindingSortEPNS_4pairINS2_14GenericBindingEPNS2_10BoundIndexEEEEEvT0_SB_T_
nBj:__Z34RuntimeInvoker_HitInfo_t1761367055PK10MethodInfoPvPS2_
Ezg:_Enum_System_IConvertible_ToSByte_m3488526280
Qae:__Z28RegisterClass_PhysicMaterialv
l5b:__ZN9GfxDevice9SkinOnGPUERK18VertexStreamSourceP9GfxBufferP17GPUSkinPoseBufferS4_iijb
PCi:_TypeBuilder_ToString_m1952363535
TSj:_Selectable_OnEnable_m3825327683
L1j:_Identity_set_Disposed_m628843469
yni:_MonoBehaviour_StopAllCoroutines_m1675795839
Xcc:__ZN18IDCollectorFunctorD0Ev
y5d:__ZN5physx2Gu32PCMConvexVsMeshContactGeneration15processTriangleEPKNS_6PxVec3EjhPKj
AUl:__ZL82Object_t1021602117_CustomAttributesCacheGenerator_Object_DestroyObject_m2343493981P21CustomAttributesCache
Llh:_NumberFormatter_Init_m1022036773
e9k:_GC_new_free_list_inner
VQi:_DefaultComparer_Equals_m85211180_gshared
Fnm:__ZTv0_n12_NSt3__114basic_iostreamIcNS_11char_traitsIcEEED0Ev
eNb:__ZN14RenderSettings7PRODUCEE18MemLabelIdentifier18ObjectCreationMode
kZi:_Collection_1_System_Collections_IList_IndexOf_m1950953062_gshared
lkh:_MonoType_InternalGetEvent_m532443236
zXi:_Collection_1_IndexOf_m2700825189_gshared
vle:__ZN5physx6shdfnd5ArrayINS_2Cm8Matrix34ENS0_19ReflectionAllocatorIS3_EEE15growAndPushBackERKS3_
cQj:_Comparer_1_get_Default_m2605397692_gshared
d6d:__ZN5physx2Gu32PCMConvexVsMeshContactGeneration31generatePolyDataContactManifoldERNS0_9TriangleVEjjhPNS0_21MeshPersistentContactERjRKNS_6shdfnd3aos6FloatVERNS8_5Vec3VE
VQe:__ZN5physx10SubSortSAH5splitEPjj
Lse:__Z41setPxVehicleSuspensionDataMSpringStrengthPN5physx23PxVehicleSuspensionDataEf
mSf:_Decoder__ctor_m2623573910
Dua:__Z21ClearFenceWithoutSyncR8JobFence
y2d:__ZN5physx2Gu3EPA8addFacetEjjjRKNS_6shdfnd3aos6FloatVES6_
SSc:__ZN14RotationModule8TransferI17RemapPPtrTransferEEvRT_
amc:__Z16Transfer_BuiltinI8Vector4f17RemapPPtrTransferLb1EEvRK29SerializationCommandArgumentsR31RuntimeSerializationCommandInfo
BV:__ZN12SoundManager20RegisterModifiedClipEP10SampleClip
Zgc:__Z19TransferField_ArrayI18StreamedBinaryReadILb1EE19Converter_PrimitiveIhEEvRK23StaticTransferFieldInfoR31RuntimeSerializationCommandInfoRT0_
MKb:__ZN15dense_hashtableINSt3__14pairIKiP6ObjectEEi21InstanceIDHashFunctorN14dense_hash_mapIiS4_S6_NS0_8equal_toIiEE13stl_allocatorIS5_L18MemLabelIdentifier65ELi16EEE9SelectKeyES9_SC_E12resize_deltaEjj
Bdj:__Z108RuntimeInvoker_Void_t1841601450_Il2CppObject_Int64_t909078037_Il2CppObject_Int64_t909078037_Int64_t909078037PK10MethodInfoPvPS2_
jT:__ZN11AudioSource4PlayEd
wji:_Hash128_t2836532937_marshal_pinvoke_cleanup
oAc:__ZN14qsort_internal8_QSortMTIP15RODataDepthPassi17ROSorterDepthPassE10CleanupJobEPS4_
C5c:__ZN5physx3Cct9CCTParamsC2Ev
Eld:__ZN5physx7NpCloth21setStiffnessFrequencyEf
Zkb:__ZNK20LocalFileSystemPosix8IsHiddenERK13FileEntryData
VOd:__ZN5physx17PxcSweepBoxConvexERKNS_11PxsCCDShapeES2_PKNS_12PxsRigidBodyES5_RKNS_11PxTransformES8_S8_S8_fRNS_6PxVec3ESA_RNS_10PxcNpCacheERNS_18PxcNpThreadContextEf
F4d:__ZThn8_N5physx2Gu11HeightField14onRefCountZeroEv
gGk:_X501__cctor_m2610532554
cRa:__ZThn28_NK8Renderer8GetLayerEv
Wxd:__ZN5physx2Sc5Actor9setActiveEbj
FOe:__ZN12_GLOBAL__N_127SphereMeshContactGeneration15processTriangleEjRKN5physx6PxVec3ES4_S4_PKj
lXg:_U24ArrayTypeU248_t1957337327_marshal_pinvoke_cleanup
YPh:_List_1_CheckCollection_m2220107869_gshared
eNa:__ZN7Cubemap23VirtualRedirectTransferER18StreamedBinaryReadILb0EE
Zlf:__ZN20TextRenderingPrivate4Font8TransferI17RemapPPtrTransferEEvRT_
Rrf:__ZNSt3__16vectorIN20TextRenderingPrivate4Font13CharacterInfoE13stl_allocatorIS3_L18MemLabelIdentifier34ELi16EEE6assignINS_11__wrap_iterIPS3_EEEENS_9enable_ifIXaasr21__is_forward_iteratorIT_EE5valuesr16is_constructibleIS3_NS_15iterator_traitsISD_E9referenceEEE5valueEvE4typeESD_SD_
usg:_DateTime_System_IConvertible_ToType_m3821835592
jpf:_Read_CVT
mrd:__ZN5physx2Sc10NPhaseCore28reserveContactReportPairDataEjjRj
drg:_Convert_ToUInt32_m776714429
zfb:__ZN12FileAccessor4SeekEx10FileOrigin
hFe:__ZN5physx15NpActorTemplateINS_7PxClothEE12setActorFlagENS_11PxActorFlag4EnumEb
ujl:__ZN16VirtFuncInvoker1IP22GameObject_t1756533147S1_E6InvokeEjPvS1_
Woj:__Z77RuntimeInvoker_Vector3_t2243707580_Quaternion_t4030073918_Vector3_t2243707580PK10MethodInfoPvPS2_
$te:__ZL18TestUnifiedNormalsjPKN5physx6PxVec3EjPNS_2Gu9TriangleTIjEEb
Yoj:__Z54RuntimeInvoker_Boolean_t3825574718_Vector2_t2243707579PK10MethodInfoPvPS2_
eik:_Coroutine_t2299508840_marshal_pinvoke
$Oa:__ZN16LightmapSettings20DidChangeActiveSceneEP10UnitySceneS1_
fbm:__ZL59g_AssemblyU2DCSharp_Assembly_CustomAttributesCacheGeneratorP21CustomAttributesCache
$xb:__Z39Register_UnityEngine_Time_get_timeScalev
fU:__ZN10AudioMixer11SetupGroupsEv
icm:__ZL157U3CFOVKickDownU3Ec__Iterator2_t1597325333_CustomAttributesCacheGenerator_U3CFOVKickDownU3Ec__Iterator2_System_Collections_IEnumerator_get_Current_m3955080664P21CustomAttributesCache
u0b:__ZNSt3__112basic_stringIcNS_11char_traitsIcEE13stl_allocatorIcL18MemLabelIdentifier1ELi16EEE9__grow_byEjjjjjj
jJc:__Z35Register_UnityEngine_Event_get_typev
F1g:_PrivateKeyInfo_DecodeRSA_m1427048948
lQl:__ZL99Texture2D_t3542995729_CustomAttributesCacheGenerator_Texture2D_GetPixels32_m3251516747____miplevel0P21CustomAttributesCache
pbh:_IntPtr__ctor_m2996690883_AdjustorThunk
$vi:_Assembly_FillName_m1934025015
G6:_UNITY_png_free
Pbh:_IntPtr_op_Explicit_m1073656736
gAm:_emscripten_glDepthRange__wrapper
qQf:_String_IndexOf_m2126171214
nbh:_Int64_ToString_m1544341651_AdjustorThunk
z$d:__ZNK5physx13GuMeshFactory17getNbConvexMeshesEv
B7g:_Guid_CheckNull_m2903986431
Rsk:_TouchPad_Start_m2430622439
vNc:__ZN14ParticleSystem15InitializeClassEv
B8a:__Z63ThreadAndSerializationSafeCheckGetMonoBehaviourBeingTransferredv
a_e:__ZN5physx2Cm12DelegateTaskINS_20PxsParticleSystemSimEXadL_ZNS2_21collisionFinalizationEPNS_10PxBaseTaskEEEE11runInternalEv
GOg:_Graphic_get_canvas_m274525322
uwh:_TlsClientCertificateVerify_ProcessAsSsl3_m3377063356
Tdj:__Z97RuntimeInvoker_Il2CppObject_Il2CppObject_Int32_t2071877448_Il2CppObject_Il2CppObject_Il2CppObjectPK10MethodInfoPvPS2_
sHg:_StandaloneInputModule_set_repeatDelay_m2820945738
Yl:_glStencilOp
fdh:_EndOfStreamException__ctor_m4268387737
sBk:_UInt16_ToString_m4213290405
Hub:__Z37Register_UnityEngine_Input_GetAxisRawv
M8a:__ZN13ProxyTransfer20TransferTypelessDataEjPvi
VFl:__ZL59StreamingContext_t1417235061_CustomAttributesCacheGeneratorP21CustomAttributesCache
j$j:_ChannelServices_RegisterChannel_m3832858065
Erl:__ZN6il2cpp2osL19StatToFileAttributeERKNSt3__112basic_stringIcNS1_11char_traitsIcEENS1_9allocatorIcEEEER4statPSA_
Pzg:_Enum_GetName_m1226611481
Hhj:__Z113RuntimeInvoker_Il2CppObject_Byte_t3683104436_Il2CppObject_SByte_t454417549_Il2CppObject_Il2CppObject_Il2CppObjectPK10MethodInfoPvPS2_
RS:__ZN11AudioSource5ResetEv
tw:__ZN14NavMeshManager8LoadDataEPK11NavMeshData
sVa:__ZN14Texture2DArray23VirtualRedirectTransferER18StreamedBinaryReadILb0EE
n7j:_Literal_CompileLiteral_m276843152
lQa:__ZN2UI13RectTransform13AwakeFromLoadE17AwakeFromLoadMode
rMb:__ZL27GetDestRenderTargetSurfacesP13RenderTextureR12ObjectHandleI17RenderSurface_TagP17RenderSurfaceBaseES6_
g$e:__ZN5physx23PxsSolverSetupSolveTaskD2Ev
uTd:__ZN5physx23PxVehicleWheels4SimData26setSuspForceAppPointOffsetEjRKNS_6PxVec3E
nZj:_DefaultDependencyAttribute__ctor_m107693037
r1:__ZN19CloudServiceHandler17PlayerLoopHandlerEv
gMg:_DefaultControls_CreateSlider_m3525165396
bim:__ZNSt3__114__split_bufferIP12Il2CppThreadRNS_9allocatorIS2_EEEC2EjjS5_
fvk:_WaypointCircuit_set_Length_m3662637174
Ubg:_Array_Reverse_m3883292526
mdb:__ZN6Shader23VirtualRedirectTransferER13ProxyTransfer
B4h:_ProxyAttribute_GetPropertiesForNewContext_m3587421540
gdl:__ZN6il2cpp5utils21CollapseAdjacentStarsERKNSt3__112basic_stringIcNS1_11char_traitsIcEENS1_9allocatorIcEEEE
Qbg:_Array_LastIndexOf_m4096535198
khg:_ArrayList_Add_m1719188324
Lhe:__ZN18MultiQueryCallbackIN5physx12PxOverlapHitEE6invokeERfPKNS0_2Sq13PrunerPayloadEj
Chc:__Z16Transfer_BuiltinI8Vector3f14SafeBinaryReadLb0EEvRK29SerializationCommandArgumentsR31RuntimeSerializationCommandInfo
Sdc:__Z22Transfer_Builtin_AlignIh18StreamedBinaryReadILb1EELb0EEvRK29SerializationCommandArgumentsR31RuntimeSerializationCommandInfo
Qyg:_Double_System_IConvertible_ToSByte_m1653690240_AdjustorThunk
Sve:__ZN5physx2Gu18gjkRelativeRayCastINS0_4BoxVES2_NS0_10ShrunkBoxVES3_EEbRT_RT0_RKNS_6shdfnd3aos15PsMatTransformVERKNS9_6FloatVERKNS9_5Vec3VESI_RSD_RSG_SK_fb
Dm:_glGetStringi
bmc:__Z16Transfer_BuiltinI5RectTIfE17RemapPPtrTransferLb1EEvRK29SerializationCommandArgumentsR31RuntimeSerializationCommandInfo
CFf:__Z67Register_UnityEngine_Networking_UnityWebRequest_get_useHttpContinuev
Sii:_GUIStyleState_t3801000545_marshal_pinvoke
BDe:__ZN5physx22NpParticleBaseTemplateINS_15PxParticleFluidENS_15NpParticleFluidEE14setRestitutionEf
iuh:_ClientContext_get_SslStream_m360110741
K1d:__ZThn8_N5physx2Gu10ConvexMeshD0Ev
s$h:_X509Chain_get_CertificateCollection_m324631835
ZQb:__ZNSt3__16vectorI7SubMesh13stl_allocatorIS1_L18MemLabelIdentifier16ELi16EEE8__appendEj
YSi:_EqualityComparer_1__cctor_m1011898363_gshared
oIg:_AnimationTriggers__ctor_m2623627182
zec:__ZN6HelperI18StreamedBinaryReadILb1EE23TransferArrayField_InfoLb1EE24SerializationFunctionForERKS2_R23StaticTransferFieldInfoPb
Yxj:__Z49RuntimeInvoker_Int32_t2071877448_Link_t2723257478PK10MethodInfoPvPS2_
Kzi:_FieldBuilder_get_Name_m2243491233
kd:invoke_viiiiifffi
rE:__ZN8Animator9WriteStepEv
rNf:_StringBuilder_Append_m3618697540
BHh:_List_1_GetEnumerator_m3294992758_gshared
q7b:__ZN13ScreenManager16SetScreenTimeoutEi
MKf:_SymmetricAlgorithm_set_IV_m4262655606
qXj:_StencilMaterial__cctor_m2963056855
iTi:_EqualityComparer_1_System_Collections_IEqualityComparer_Equals_m315020809_gshared
wfc:__Z19TransferField_ArrayI18StreamedBinaryReadILb1EE19Converter_PrimitiveI11ColorRGBA32EEvRK23StaticTransferFieldInfoR31RuntimeSerializationCommandInfoRT0_
yxe:__ZNSt3__16vectorI15RecordedTriggerNS_9allocatorIS1_EEE21__push_back_slow_pathIKS1_EEvRT_
exe:__ZN4PPtrI9RigidbodyE8TransferI18StreamedBinaryReadILb0EEEEvRT_
Fxi:_CustomAttributeNamedArgument_GetHashCode_m3715408876_AdjustorThunk
hlf:__Z38Register_UnityEngine_Font_HasCharacterv
o_h:_X509Certificate2_AppendBuffer_m3517242299
jta:__Z35IntersectSpherePlaneBoundsOptimizedRKN4math7_float4EPS1_i
uCg:_CultureInfo_get_IsNeutralCulture_m3874876470
vxg:_Delegate_CreateDelegate_m3813023227
Chj:__Z46RuntimeInvoker_WellKnownObjectMode_t2630225581PK10MethodInfoPvPS2_
m9j:_Uri_get_AbsoluteUri_m2120317928
TXa:__ZN17TransformInternal21DetachTransformThreadER18TransformHierarchyjj
S5k:__ZN6il2cpp2os5posix15PosixWaitObject13InterruptWaitEv
dld:__ZNK5physx7NpCloth22getAngularInertiaScaleEv
LDg:_BaseInputModule_IsModuleSupported_m4272494372
dMe:__ZN26IntersectAnyVsMeshCallbackILi1ELb1EE10processHitERKN5physx12PxRaycastHitERKNS1_6PxVec3ES7_S7_RfPKj
Rta:__Z22CleanupLODGroupManagerPv
K1f:_Array_InternalArray__ICollection_Add_TisContentType_t1028629049_m2984242302_gshared
Yje:__ZN5physx6shdfnd5ArrayINS_2Sc5Scene14SimpleBodyPairENS0_19ReflectionAllocatorIS4_EEE8recreateEj
kn:_glUniform3fv
NEh:_Enumerator_System_Collections_IEnumerator_Reset_m3796537546_AdjustorThunk
ojf:_UNITY_FT_Init_Class_tt_service_gx_multi_masters
TKj:_InternalEnumerator_1_System_Collections_IEnumerator_Reset_m3249248421_AdjustorThunk
Dkd:__ZNK5physx7NpCloth16getCollisionDataEPNS_22PxClothCollisionSphereEPjPNS_21PxClothCollisionPlaneES3_PNS_24PxClothCollisionTriangleE
HWb:__ZNSt3__16__treeINS_12__value_typeIi10vector_setIiNS_4lessIiEENS_9allocatorIiEEEEENS_19__map_value_compareIiS8_S4_Lb1EEENS5_IS8_EEE7destroyEPNS_11__tree_nodeIS8_PvEE
Wjh:_IntComparer_Compare_m3057931085
XOa:__ZNK16LightmapSettings31GetRealtimeLightmapDecodeValuesEv
nU:__ZN5audio5mixer12SetSuspendedERNS0_16AudioMixerMemoryEb
Eab:__ZN17PersistentManager21UnloadNonDirtyStreamsEv
kVl:__ZL85Component_t3819376471_CustomAttributesCacheGenerator_Component_SendMessage_m913946877P21CustomAttributesCache
xcj:__Z78RuntimeInvoker_Int32_t2071877448_DecimalU26_t1613489971_DecimalU26_t1613489971PK10MethodInfoPvPS2_
h2k:__ZN6il2cpp2vm13LivenessStateC2EP11Il2CppClassjPFvPP12Il2CppObjectiPvES7_PFvvESB_
Mtj:__Z41RuntimeInvoker_ColorTweenMode_t1328781136PK10MethodInfoPvPS2_
J6l:__ZL61Graphic_t2426225576_CustomAttributesCacheGenerator_m_MaterialP21CustomAttributesCache
HYh:_Oid__ctor_m1936781897
dqi:_Object_INTERNAL_CALL_Internal_InstantiateSingleWithParent_m1401308849
_Hi:_ResourceSet__ctor_m1222864106
Vsd:__ZN5physx2Sc5Scene13ccdBroadPhaseEPNS_10PxBaseTaskE
ZPc:__Z12KillParticleRK27ParticleSystemReadOnlyStateR19ParticleSystemStateR23ParticleSystemParticlesjRj
Y9i:__Z44RuntimeInvoker_Int64_t909078037_Il2CppObjectPK10MethodInfoPvPS2_
Dn:_emscripten_glDepthMask
CTe:__ZN5physx18RepXPropertyFilterINS_2Sn17RepXVisitorReaderINS_17PxVehicleTireDataEEEEclILj601ES3_jjEEvRKNS_14PxPropertyInfoIXT_ET0_T1_T2_EEj
owe:__ZN5physx2Gu24PCMMeshContactGeneration15processContactsEhb
MVi:_Collection_1_IsSynchronized_m2601980439_gshared
Qul:__ZL76UInt16_t986882611_CustomAttributesCacheGenerator_UInt16_TryParse_m1818885113P21CustomAttributesCache
MEh:_Enumerator_VerifyState_m3639069574_gshared
OMa:__ZN4crnd25static_huffman_data_model22prepare_decoder_tablesEv
TUa:__ZN9Texture2D23VirtualRedirectTransferER17RemapPPtrTransfer
tPe:__ZN5physx7profile8ZoneImplINS_28PxProfileNameProviderForwardEE9doAddNameEPKctb
j6f:_Array_Sort_TisIl2CppObject_TisIl2CppObject_m1915706600_gshared
nph:_ModulusRing_Difference_m662924064
uKj:_InternalEnumerator_1_MoveNext_m1869236997_gshared
PJg:_CanvasUpdateRegistry_ObjectValidForUpdate_m855695984
kSg:_InputField_set_onValueChanged_m2406388125
LHc:__Z23GUIStatePopDisplayIndexv
r1i:_ReadOnlyCollection_1_System_Collections_ICollection_get_SyncRoot_m2702046016_gshared
CQa:__ZN19RenderBufferManager24IsReusableWithParametersERKNSt3__14pairIK4PPtrI13RenderTextureENS_23RenderTextureParametersEEERKS6_
MFc:__ZL22CleanupUnityWebStreamsPv
eZl:__ZL92AudioSource_t1135106623_CustomAttributesCacheGenerator_AudioSource_Play_m889724421____delay0P21CustomAttributesCache
hVh:_ListDictionary_Add_m4276262662
Tjm:__Znaj
iIf:_RIPEMD160Managed_GGG_m1639995340
VGm:_emscripten_glEnableClientState__wrapper
pne:__ZN5simdi8allEqualERK8Scalar4fS2_
PLi:_Enumerator_System_Collections_IEnumerator_get_Current_m1648049763_gshared
HFl:__ZL66ISerializationSurrogate_t1282780357_CustomAttributesCacheGeneratorP21CustomAttributesCache
Xej:__Z57RuntimeInvoker_DSAParameters_t1872138834_SByte_t454417549PK10MethodInfoPvPS2_
Hca:__ZN11GameManager15ThreadedCleanupEv
sOh:_List_1__ctor_m1337392449_gshared
Ope:__ZN5physxL26solveFriction4_StaticBlockEPKNS_23PxcSolverConstraintDescERNS_16PxcSolverContextE
Kag:_Array_System_Collections_IList_Remove_m2438892375
Ogh:_TextWriter__ctor_m2225796097
EOf:_Single_System_IConvertible_ToSingle_m2540530435
KPd:__ZN5physx30PxcGetMaterialShapeHeightFieldEPKNS_12PxsShapeCoreES2_RNS_18PxcNpThreadContextEPNS_15PxsMaterialInfoE
cha:__ZNK6Camera16GetStereoEnabledEv
Xnl:__ZN21InterfaceFuncInvoker1I19Vector4_t2243707581iE6InvokeEjP11Il2CppClassPvi
Tka:__ZN12LightManager15InitializeClassEv
Mke:__ZN5physx6shdfnd8PoolBaseINS_2Sc19ParticlePacketShapeENS0_19ReflectionAllocatorIS3_EEE12allocateSlabEv
phi:_GUIStyle_GetFontInternal_m3509743324
E6a:__ZN18ScriptingArgumentsC2Ev
M0i:_ReadOnlyCollection_1_System_Collections_IList_Remove_m3609400243_gshared
UDd:__ZN5physx5cloth16SwInterCollisionI8Scalar4fED2Ev
Vyk:_TimeZone_IsDaylightSavingTime_m875882154
nEj:_ArrayReadOnlyList_1_Insert_m503707439_gshared
aCm:_emscripten_glBlendFuncSeparate__wrapper
Ocj:__Z52RuntimeInvoker_Single_t2076509932_Decimal_t724701077PK10MethodInfoPvPS2_
Cth:_CipherSuiteCollection_System_Collections_IList_set_Item_m750275607
DJl:__ZL59AttributeTargets_t1984597432_CustomAttributesCacheGeneratorP21CustomAttributesCache
a_c:__Z25b2CollidePolygonAndCircleP10b2ManifoldPK14b2PolygonShapeRK11b2TransformPK13b2CircleShapeS6_
tJf:_SHA1CryptoServiceProvider__ctor_m3127563759
CA:__ZN8Vector3f8TransferI14SafeBinaryReadEEvRT_
Mni:_DownloadHandler_Finalize_m3781185347
Vam:__ZL103BaseVertexEffect_t2504093552_CustomAttributesCacheGenerator_BaseVertexEffect_ModifyVertices_m3446986347P21CustomAttributesCache
Sq:FUNCTION_TABLE_ii
AMi:_Enumerator_MoveNext_m335649778_AdjustorThunk
LLb:__ZN10TagManager8TransferI18StreamedBinaryReadILb0EEEEvRT_
oVe:__ZN5physx18RepXPropertyFilterINS_2Sn17RepXVisitorReaderINS_20PxVehicleAutoBoxDataEEEEclILj533ES3_KffEEvRKNS_14PxPropertyInfoIXT_ET0_T1_T2_EEj
rrk:_CrossPlatformInputManager_GetAxisRaw_m2959419276
YW:__ZN4FMOD4DSPI6removeEv
OSe:__ZN5physx3Pvd17PvdPropertyFilterINS_2Sn17RepXVisitorReaderINS_16PxVehicleNoDriveEEEE27handleExtendedIndexPropertyILj688ES4_fKjNS_18PxUnknownClassInfoEEEvjRKNS_29PxExtendedIndexedPropertyInfoIXT_ET0_T2_T1_EERKT3_
oCk:_UInt32_ToString_m3894907091_AdjustorThunk
fRk:_Predicate_1__ctor_m2863314033_gshared
nUi:_GenericEqualityComparer_1__ctor_m2748998164_gshared
oAm:b44
Ub:invoke_diiii
Gbf:__ZL17sweepVolumeVsMeshPKN5physx3Cct9SweepTestEPKNS0_11TouchedMeshERNS0_12SweptContactERKNS_6PxVec3ERKNS_10PxGeometryERKNS_11PxTransformEjPKNS_10PxTriangleEj
BKi:_ShimEnumerator_get_Key_m616785465_gshared
x4g:_SmallXmlParser_Error_m1832158746
g2h:_RepeatContext_get_IsLazy_m1620488045
Sad:__ZNK5physx12NpBatchQuery19getFilterShaderDataEv
tX:__ZN4FMOD7SystemI9getDriverEPi
yUl:__ZL81Object_t1021602117_CustomAttributesCacheGenerator_Object_DestroyObject_m282495858P21CustomAttributesCache
kAm:b41
mgh:_StreamAsyncResult_get_AsyncWaitHandle_m4218169359
Vki:_LayerMask_op_Implicit_m2135076047
jAm:b40
q1d:__ZN5physx2Gu23findRotationMatrixFromZERKNS_6PxVec3E
Oua:__Z9EndJobSetR8JobFence11JobPriority
ZMe:__ZNK5physx2Gu29EPASupportMapPairRelativeImplINS0_8CapsuleVENS0_11ConvexHullVEE18doWarmStartSupportEiiRNS_6shdfnd3aos5Vec3VES8_S8_
Auf:__ZN2UI13CanvasManager9AddCanvasEPNS_6CanvasE
CVb:__ZN9Texture3D8TransferI19StreamedBinaryWriteILb0EEEEvRT_
bha:__ZNK6Camera22CalculateRenderingPathEv
cxm:dynCall_iiiiiiiiiiiiii
nid:__ZN5physx13NpVolumeCache10invalidateEv
gsh:_ContentInfo_get_Content_m1802070908
Xkc:__ZL12InvokeMethodI17RemapPPtrTransferEvRK29SerializationCommandArgumentsR31RuntimeSerializationCommandInfo
R3g:_X509Certificate_get_PublicKey_m714501701
Hof:_tt_sbit_decoder_load_image
_Va:__Z14IsHalfRTFormat19RenderTextureFormat
GQf:_String_LastIndexOf_m290475879
G3c:__ZN15b2DistanceJointD0Ev
sMa:__ZN11MonoManager25GetAssemblyIndexFromImageEP14ScriptingImage
zRg:_Image_get_layoutPriority_m2151045813
oDe:__ZN5physx22NpParticleBaseTemplateINS_15PxParticleFluidENS_15NpParticleFluidEE12setPositionsEjRKNS_16PxStrideIteratorIKjEERKNS4_IKNS_6PxVec3EEE
fwj:__Z71RuntimeInvoker_Void_t1841601450_CornerU26_t4129226442_Int32_t2071877448PK10MethodInfoPvPS2_
Ehh:_TextReader_Read_m975794707
Hte:__Z34setPxVehicleDriveTankMDriveSimDataPN5physx18PxVehicleDriveTankENS_21PxVehicleDriveSimDataE
Zcl:__ZN6il2cpp6icalls8mscorlib6System9Threading16NativeEventCalls20CreateEvent_internalEbbP12Il2CppStringPb
CVd:__Z51getNbPxVehicleWheelsSimData_SuspForceAppPointOffsetPKN5physx22PxVehicleWheelsSimDataE
lKc:__Z32GUIStyle_Set_Custom_PropFontSizeP15ScriptingObjecti
WF:__ZN21AnimationPosePlayable25AnimationPlayableAllocateEP35AnimationPlayableEvaluationConstant
yCk:_UInt64_System_IConvertible_ToChar_m1930853313_AdjustorThunk
pwh:_TlsClientCertificate_SendCertificates_m1096074091
mIg:_UIBehaviour_OnCanvasHierarchyChanged_m762109874
hmg:_SyncHashtable_get_Item_m408601391
pGl:__ZL45DSA_t903174880_CustomAttributesCacheGeneratorP21CustomAttributesCache
Arm:__ZNKSt3__19money_putIwNS_19ostreambuf_iteratorIwNS_11char_traitsIwEEEEE6do_putES4_bRNS_8ios_baseEwRKNS_12basic_stringIwS3_NS_9allocatorIwEEEE
pSh:_Stack_1_System_Collections_ICollection_CopyTo_m2104527616_gshared
O9k:_GC_add_map_entry
SUf:_StringBuilder_AppendFormat_m1666670800
SSd:__ZN5physx23PxVehicleWheels4DynData17getBinaryMetaDataERNS_14PxOutputStreamE
Wpa:__ZN18DeferredRenderLoop13RenderGBufferEP13RenderTexturePS1_b8JobFencePK25DeferredRenderLoopScratchRi
Dpi:_UnityWebRequest_IsHeaderValueLegal_m925827794
x7d:__ZN11BoxCollider23VirtualRedirectTransferER13ProxyTransfer
Pqj:__Z67RuntimeInvoker_Double_t4078015681_Playable_t3667545548_Il2CppObjectPK10MethodInfoPvPS2_
ksl:__ZN6il2cpp6icalls8mscorlib6System9ThreadingL11ThreadStartEPv
Cel:__ZN6il2cpp2vm9LastError31InitializeLastErrorThreadStaticEv
f5b:__ZN9GfxDevice12DeleteBufferEP9GfxBuffer
M5i:_ReadOnlyCollection_1_System_Collections_IList_Remove_m3878418841_gshared
qSg:_InputField_EnforceContentType_m1902926812
pAc:__ZN14qsort_internal31_FindAndMovePivotToLastPositionIP15RODataDepthPassi17ROSorterDepthPassEEvT_S4_T0_T1_
Lyb:__Z97Register_UnityEngine_Experimental_Director_Playable_INTERNAL_CALL_SetInputWeightFromIndexInternalv
Nva:__ZN12CachedReader10Align4ReadEv
g_c:__ZN15b2WorldManifold10InitializeEPK10b2ManifoldRK11b2TransformfS5_f
f0i:_Collection_1_CopyTo_m42272870_gshared
fdl:__ZN6il2cpp5utils5MatchENSt3__112basic_stringIcNS1_11char_traitsIcEENS1_9allocatorIcEEEERKS7_
wrj:__Z154RuntimeInvoker_RaycastHit2D_t4063908774_Vector2_t2243707579_Vector2_t2243707579_Single_t2076509932_Int32_t2071877448_Single_t2076509932_Single_t2076509932PK10MethodInfoPvPS2_
ASh:_Collection_1_System_Collections_IEnumerable_GetEnumerator_m2443888005_gshared
H3k:__ZN6il2cpp2vm9Exception28GetMarshalDirectiveExceptionEPKc
$kh:_MulticastDelegate_GetObjectData_m3187757658
Bgh:_StreamReader_Read_m3371942928
lJg:_CanvasScaler_set_referencePixelsPerUnit_m1188599784
ypd:__ZN5physx2Sc14ConstraintCore13setBreakForceEff
UUd:__Z34setPxVehicleAutoBoxData_DownRatiosPN5physx20PxVehicleAutoBoxDataENS_18PxVehicleGearsData4EnumEf
Zbl:__ZN6il2cpp2os8TimeZone15GetTimeZoneDataEiPxPNSt3__112basic_stringIcNS3_11char_traitsIcEENS3_9allocatorIcEEEE
ydc:__ZNK28MonoBehaviourPropertyBinding12SetPPtrValueERKN11UnityEngine9Animation10BoundCurveEi
Bja:__ZN11HaloManager17RenderGeometryJobEP22HaloManagerGeometryJob
Fvj:__Z59RuntimeInvoker_Boolean_t3825574718_KeyValuePair_2_t38854645PK10MethodInfoPvPS2_
vUb:__ZNSt3__16__treeINS_12__value_typeI4PPtrI13RenderTextureEN19RenderBufferManager23RenderTextureParametersEEENS_19__map_value_compareIS4_S7_NS_4lessIS4_EELb1EEE11memory_poolIS7_EE15__insert_uniqueERKS7_
efd:__ZN5physx7NpScene15removeAggregateERNS_11PxAggregateEb
whi:_GUIStyle_Draw_m4006459684
Rvg:_Decimal_System_IConvertible_ToType_m3828527724_AdjustorThunk
HSg:_InputField_get_caretPositionInternal_m3011712053
xJa:__ZN9GfxDevice17ImmediateTexCoordEifff
Vrj:__Z65RuntimeInvoker_Void_t1841601450_Il2CppObject_ColorU26_t3402129837PK10MethodInfoPvPS2_
o6j:_Parser_ParseRegularExpression_m2390577313
Xpf:_ft_black_new
qnh:_OperatingSystem_Clone_m1943707477
oRe:__ZNK5physx14PxVehicleDrive19getConcreteTypeNameEv
ZVl:__ZL102GameObject_t1756533147_CustomAttributesCacheGenerator_GameObject_Internal_CreateGameObject_m3428198595P21CustomAttributesCache
F6j:_Alternation_AddAlternative_m623421443
Bze:__ZNK5physx3Ext5JointINS_15PxDistanceJointENS_30PxDistanceJointGeneratedValuesEE12getLocalPoseENS_17PxJointActorIndex4EnumE
iCj:__Z36RuntimeInvoker_Enumerator_t402048720PK10MethodInfoPvPS2_
wMf:_Hash__ctor_m2554411450
DKf:_SHAConstants__cctor_m2781430679
e9b:__ZN17FileSystemHandler4CopyER13FileEntryDataS1_
TSc:__ZN30RotationModulePropertyBindings13AddPropertiesER10vector_mapIi22ParticleModulePropertyNSt3__14lessIiEENS2_9allocatorINS2_4pairIiS1_EEEEE
Nvf:__Z45CanvasGroup_Get_Custom_PropIgnoreParentGroupsP15ScriptingObject
rOf:_Single_System_IConvertible_ToDateTime_m2510003459_AdjustorThunk
Mxg:_Delegate_RemoveImpl_m3666700529
aYk:__ZN6il2cpp2vm13MetadataCache25GetMethodGenericContainerEPK10MethodInfo
Yzm:_emscripten_glUniform4f__wrapper
DVh:_NameObjectCollectionBase_OnDeserialization_m3478980442
ZQg:_Image_get_mainTexture_m1027716278
v3:__ZNK11UnityEngine15CloudWebService14JsonBaseObject12GetArraySizeEv
bSg:_InputField_set_caretColor_m2252440840
woe:__ZN5physx6shdfnd5ArrayINS_25PxcThresholdStreamElementENS0_19ReflectionAllocatorIS2_EEE8recreateEj
Y5f:_Array_Resize_TisVector2_t2243707579_m1117258774_gshared
Pga:__ZNK6Camera16GetProjectionFarEv
Urc:__Z24InverseTransformRotationRK23TransformAccessReadOnlyRKN4math7_float4E
Aoc:__ZL26Transfer_SimpleNativeClassI19StreamedBinaryWriteILb0EE8GUIStyleLb0EEvRK29SerializationCommandArgumentsR31RuntimeSerializationCommandInfo
wT:__ZN11AudioSource6UpdateEv
M$f:_Array_InternalArray__IndexOf_TisSlot_t2267560602_m1912863273_gshared
cB:__ZZNK9dtNavMesh15findNearestPolyEPKfS1_PfEN12NearestQuery15processPolygonsEPK10dtMeshTilePKyPPK6dtPolyi
RJk:_StateMachineBehaviour_OnStateExit_m1490844990
C5b:__ZN9GfxDevice21ResetDynamicResourcesEv
qld:__ZN5physx7NpCloth21setCollisionMassScaleEf
ule:__ZN5physx6shdfnd5ArrayINS_7PxPlaneENS0_19ReflectionAllocatorIS2_EEE8recreateEj
$8i:_Comparison_1_EndInvoke_m4174686984_gshared
Q8h:_StreamingContext__ctor_m3063421596_AdjustorThunk
HKe:__ZN13PhysicsModule17GetRigidBodyStateERK9RigidbodyPN8IPhysics14RigidBodyStateE
yyf:__ZN20UnityConnectSettings23VirtualRedirectTransferER18StreamedBinaryReadILb1EE
zSk:_UnityAction_1_Invoke_m2563206587_gshared
z5i:_ReadOnlyCollection_1_System_Collections_Generic_IListU3CTU3E_Insert_m3054305464_gshared
OQc:__ZN20ParticleSystemModule8TransferI17RemapPPtrTransferEEvRT_
Ezj:__Z70RuntimeInvoker_Void_t1841601450_Int32_t2071877448_Playable_t3667545548PK10MethodInfoPvPS2_
eda:__ZN17GlobalGameManager23VirtualRedirectTransferER18StreamedBinaryReadILb0EE
dWc:__ZL25CalculateCurveRangesValueR8Vector2fRK17AnimationCurveTplIfE
b0f:_Array_InternalArray__IndexOf_TisTypeTag_t141209596_m2882894956_gshared
FDd:__ZNK5physx5cloth9SwFactory20extractCollisionDataERKNS0_5ClothENS0_5RangeINS_6PxVec4EEENS5_IjEES7_S8_NS5_INS_6PxVec3EEE
CWj:_Slider_get_value_m4182660424
NCb:__ZNK13TranslateGLES6EnableEN2gl10EnabledCapE
nN:__ZN17AnimationPlayable34CollectAnimatorControllerPlayablesER13dynamic_arrayIP26AnimatorControllerPlayableLj4EE
JV:__ZN16BaseVideoTexture19UpdateVideoTexturesEv
Ase:__Z33getPxVehicleWheelDataMDampingRatePKN5physx18PxVehicleWheelDataE
TOa:__ZNK16LightmapSettings23HasLightProbeTetrahedraEv
Dvh:_Context_get_WriteSequenceNumber_m243492531
iTa:__ZN6Sprite23VirtualRedirectTransferER19StreamedBinaryWriteILb0EE
yBl:__ZL51Assembly_t4268412390_CustomAttributesCacheGeneratorP21CustomAttributesCache
yQf:_String_LastIndexOfAny_m1473637802
LXj:_Text_get_resizeTextMaxSize_m2671487437
vEk:_Version_CompareTo_m596235198
JP:__ZNSt3__17__sort5IR12GreaterLayerPP14AnimationStateEEjT0_S6_S6_S6_S6_T_
RJh:_List_1_System_Collections_ICollection_CopyTo_m3062449209_gshared
fxa:__ZNK9ShaderLab7Program19HasMatchingVariantsERK13dynamic_arrayI16ShaderKeywordSetLj4EE
AM:__ZN15SerializeTraitsIN4math4trsXEE8TransferI8BlobSizeEEvRS1_RT_
gf:_emscripten_glVertexPointer
qOg:_Graphic__ctor_m821539719
aJh:_List_1_System_Collections_Generic_ICollectionU3CTU3E_get_IsReadOnly_m1614481629_gshared
z$k:__ZN6il2cpp2vm7Runtime47RaiseExecutionEngineExceptionIfMethodIsNotFoundEPK10MethodInfo
Rsa:__Z17GetFrustumPortionPK8Vector3fffPS_
UNe:__ZNK5physx2Gu22SupportMapRelativeImplINS0_4BoxVEE18doWarmStartSupportEiRNS_6shdfnd3aos5Vec3VE
NDk:_UnauthorizedAccessException__ctor_m259001183
r5j:_PatternCompiler_EmitClose_m2394480040
wka:__ZN5Light13AwakeFromLoadE17AwakeFromLoadMode
Ehc:__Z16Transfer_BuiltinI8Vector4f14SafeBinaryReadLb0EEvRK29SerializationCommandArgumentsR31RuntimeSerializationCommandInfo
jma:__ZN16ReflectionProbes19CleanupRendererPoolEb
FLk:_TouchScreenKeyboard_set_text_m3456054179
mMg:_DefaultControls_CreateDropdown_m1384069408
oKc:__Z32GUIStyle_Get_Custom_PropRichTextP15ScriptingObject
kGg:_PointerEventData_get_clickCount_m4064532478
s3i:_ReadOnlyCollection_1_System_Collections_Generic_ICollectionU3CTU3E_get_IsReadOnly_m3508872969_gshared
q4b:__ZN14DirectorPlayerD0Ev
mti:_Rect_get_position_m24550734_AdjustorThunk
GTk:_UnityEvent_1_GetDelegate_m4062537313_gshared
cIk:_X509Stores_Open_m2057354563
ZWc:__Z9UpdateTplIL27ParticleSystemCurveEvalMode1EEvRK11MinMaxCurveRK23ParticleSystemParticlesPf8Vector2f
sSc:__ZN37InheritVelocityModulePropertyBindings13SetFloatValueER14ParticleSystemif
hBg:_CCGregorianCalendar_is_leap_year_m567513478
RHa:__ZN14ChannelAssigns4BindE13ShaderChannel15VertexComponent
Pcg:_Attribute_IsDefined_m2118467641
YEg:_ExecuteEvents_Execute_m898902863
qFj:_InternalEnumerator_1_System_Collections_IEnumerator_get_Current_m3125080595_gshared
SZi:_Collection_1_System_Collections_IList_Add_m2091889616_gshared
O0c:__ZN11b2GearJoint4DumpEv
INg:_DropdownItem_OnPointerEnter_m761897861
syf:__Z34RegisterClass_UnityConnectSettingsv
C6c:__ZN5physx3Cct10Controller13onOriginShiftERKNS_6PxVec3E
a_a:__ZN10Matrix3x3f15InvertTransposeEv
kyd:__ZN5physx2Sc16InteractionScene20addToActiveActorListERNS0_5ActorE
YQc:__ZN14EmissionModule8TransferI19StreamedBinaryWriteILb0EEEEvRT_
hYf:_Array_InternalArray__ICollection_Remove_TisKeyValuePair_2_t1174980068_m2768765894_gshared
CZf:_Enumerable_Where_TisIl2CppObject_m4266917885_gshared
imb:__Z11IsBatchmodev
ecl:__ZN6il2cpp6icalls8mscorlib6System4Math4AtanEd
WFk:_PKCS12_CertificateSafeBag_m3272197807
Bwh:_TlsClientCertificateVerify_ProcessAsTls1_m1960818833
nNe:__ZN5physx2Gu19_gjkRelativeRayCastINS0_9TriangleVENS0_11ConvexHullVEEEbRT_RT0_RKNS_6shdfnd3aos15PsMatTransformVERKNS9_6FloatVERKNS9_5Vec3VESI_RSD_RSG_SK_f
jSe:__ZN5physx3Pvd17PvdPropertyFilterINS_2Sn17RepXVisitorWriterINS_17PxVehicleTireDataEEEE14handleAccessorILj601ENS_22PxRepXPropertyAccessorILj601ES4_jjEEEEvjRKT0_
Vge:__ZN12_GLOBAL__N_118createArticulationEv
pp:FUNCTION_TABLE_vfii
cwk:_Monitor_Monitor_test_synchronised_m1542589500
GVl:__ZL85GameObject_t1756533147_CustomAttributesCacheGenerator_GameObject_get_layer_m725607808P21CustomAttributesCache
dGc:__ZN13RuntimeStaticINSt3__13mapINS0_4pairIPcS3_EEPFbPvR14SafeBinaryReadE20smaller_cstring_pairNS0_9allocatorINS2_IKS4_S9_EEEEEEE13StaticDestroyES5_
Lrk:_VirtualButton_set_matchWithInputManager_m2659841933
jvl:__ZL75String_t_CustomAttributesCacheGenerator_String_Concat_m626692867____values0P21CustomAttributesCache
SVl:__ZL98GameObject_t1756533147_CustomAttributesCacheGenerator_GameObject_SendMessage_m71956653____options2P21CustomAttributesCache
ghm:__ZNSt3__112__hash_tableINS_17__hash_value_typeINS_4pairIPK14Il2CppAssemblyP11Il2CppClassEEP24Il2CppReflectionAssemblyEENS_22__unordered_map_hasherIS8_SB_17ReflectionMapHashIS8_ELb1EEENS_21__unordered_map_equalIS8_SB_19ReflectionMapEqualsIS8_ELb1EEEN6il2cpp2gc9AllocatorISB_EEE20__node_insert_uniqueEPNS_11__hash_nodeISB_PvEE
r2g:_SymmetricTransform_TransformFinalBlock_m4192185386
h7g:_TextInfo__ctor_m1263401274
zGe:__ZNK5physx19ActorAABBUpdateTask7getNameEv
bWd:__Z30getPxVehicleWheels_VehicleTypePKN5physx15PxVehicleWheelsE
dVk:_ListPool_1_Release_m3047738410_gshared
DLk:_TouchScreenKeyboard_Open_m913506328
qal:_GC_print_finalization_stats
qvh:_Context_get_SecurityProtocolFlags_m3295551796
dNi:_ValueCollection__ctor_m927733289_gshared
g2c:__ZNK12b2WheelJoint10GetAnchorBEv
aLj:_InternalEnumerator_1__ctor_m2981879621_AdjustorThunk
itc:__ZN15SerializeTraitsI13dynamic_arrayI33EnlightenTerrainChunksInformationLj4EEE19ResizeSTLStyleArrayERS2_i18MemLabelIdentifier
jXh:_IPAddress_ToString_m267966740
D_k:_il2cpp_gc_collect
N0i:_ReadOnlyCollection_1_System_Collections_IList_RemoveAt_m2508594645_gshared
TIj:_InternalEnumerator_1_get_Current_m3922357178_gshared
W5l:__ZL72ColorBlock_t2652774230_CustomAttributesCacheGenerator_m_HighlightedColorP21CustomAttributesCache
Bjd:__ZN5physx3Scb5Scene20addArticulationJointERNS0_17ArticulationJointE
Xuc:__ZN7SubMesh8TransferI18StreamedBinaryReadILb1EEEEvRT_
lzk:_Type_get_IsValueType_m1733572463
Yfd:__ZN5physx7NpScene14resetFilteringERNS_12PxRigidActorEPKPNS_7PxShapeEj
_fa:__Z13GetTagManagerv
fGj:_InternalEnumerator_1_Dispose_m1748410190_AdjustorThunk
wrm:__ZNSt3__19money_putIwNS_19ostreambuf_iteratorIwNS_11char_traitsIwEEEEED0Ev
Yfj:__Z127RuntimeInvoker_Void_t1841601450_IntPtr_t_Int32_t2071877448_SByte_t454417549_Int32_t2071877448_SByte_t454417549_SByte_t454417549PK10MethodInfoPvPS2_
JYf:_Array_InternalArray__ICollection_Remove_TisUInt16_t986882611_m65494986_gshared
L3i:_ReadOnlyCollection_1_IndexOf_m3054637117_gshared
tC:__ZN11UnityEngine9Animation37HasGenericRootTransformPropertyValuesERKNS0_30AnimatorGenericBindingConstantEb
nsi:_Quaternion_t4030073918_marshal_pinvoke_cleanup
A1:__ZN11UnityEngine15CloudWebService17CloudJobSchedulerD0Ev
en:_glGetIntegeri_v
U7d:__ZN15CapsuleCollider23VirtualRedirectTransferER14SafeBinaryRead
p6a:__ZN18LoadSceneOperation7PerformEv
Nrd:__ZN5physx2Sc5Scene26setSimulationEventCallbackEPNS_25PxSimulationEventCallbackEh
lFl:__ZL105ConfigHandler_t2180714860_CustomAttributesCacheGenerator_ConfigHandler_ValidatePath_m3188987489____paths1P21CustomAttributesCache
Hdi:_GUILayer_INTERNAL_CALL_HitTest_m693512502
tFh:_List_1_System_Collections_IList_get_IsFixedSize_m3623555262_gshared
iIe:__ZL30GeomMTDCallback_CapsuleCapsuleRN5physx6PxVec3ERfRKNS_10PxGeometryERKNS_11PxTransformES5_S8_
qgd:__ZN5physx7NpScene23forceDynamicTreeRebuildEbb
eek:_Camera_get_pixelRect_m2084185953
BOk:_Vector3_Project_m1396027688
Vve:__ZL18intersectAnyVsMeshILi0EEbPKN5physx2Gu6SphereEPKNS1_7CapsuleEPKNS1_3BoxERKNS1_13RTreeMidphaseERKNS0_11PxTransformERKNS0_11PxMeshScaleEP14LimitedResults
eIc:__Z21CleanupGlobalGUIStatev
Mxk:_TimeSpan__ctor_m1888018443_AdjustorThunk
KWb:__ZL23AddConflictingClassIMPL11ClassIDTypeS_
cmg:_SyncHashtable_get_Count_m3694444082
h9c:__ZN5physx14NpArticulation6wakeUpEv
tWe:__ZN5physx3Pvd17PvdPropertyFilterINS_2Sn17RepXVisitorWriterINS_18PxVehicleDriveTankEEEE14handleAccessorILj633ENS_22PxRepXPropertyAccessorILj633ENS_15PxVehicleWheelsENS_22PxVehicleWheelsDynDataESA_EEEEvRKT0_
mtj:__Z131RuntimeInvoker_Void_t1841601450_Il2CppObject_AnimatorStateInfo_t2577870592_Int32_t2071877448_AnimatorControllerPlayable_t4078305555PK10MethodInfoPvPS2_
AYc:__ZN15ParticlesModule8SyncJobsEv
FFm:_emscripten_glUniform2i__wrapper
gzg:_Double_Parse_m2344589511
oX:__ZN4FMOD7SystemI18createChannelGroupEPKcPPNS_12ChannelGroupE
_ga:__ZN6Camera24PrepareCullingParametersERK23CameraCullingParameters13RenderingPathR11CullResults
tvj:__Z45RuntimeInvoker_matID_t1816551628_Il2CppObjectPK10MethodInfoPvPS2_
woj:__Z54RuntimeInvoker_Vector3_t2243707580_Vector3_t2243707580PK10MethodInfoPvPS2_
isj:__Z54RuntimeInvoker_Vector2_t2243707579_Vector2_t2243707579PK10MethodInfoPvPS2_
rHl:__ZL84Evidence_t1407710183_CustomAttributesCacheGenerator_Evidence_GetHashCode_m1260371757P21CustomAttributesCache
xOb:__ZL36CollectAndProduceGameObjectHierarchyR9TransformPS_R10vector_mapIiiNSt3__14lessIiEE13stl_allocatorINS3_4pairIiiEEL18MemLabelIdentifier1ELi16EEE
C3i:_ReadOnlyCollection_1_System_Collections_ICollection_get_IsSynchronized_m2344337514_gshared
mlc:__Z26Transfer_UnityEngineObjectI17RemapPPtrTransferLb0EEvRK29SerializationCommandArgumentsR31RuntimeSerializationCommandInfo
uXl:__ZL78ParticleSystem_t3394631041_CustomAttributesCacheGenerator_U3CU3Ef__amU24cache4P21CustomAttributesCache
Knb:__ZN17WeakPtrSharedDataD0Ev
nfg:_Byte_Parse_m1442736478
Zah:_Int64_Parse_m3258022240
rQf:_String_IndexOfOrdinal_m3591623977
Vda:__ZN10GameObject12SetHideFlagsEi
abi:_CryptoConfig_EncodeLongNumber_m2352037787
Rzk:_Type_GetMethod_m475234662
ZOf:_Single_GetHashCode_m3102305584
Ufc:__Z19TransferField_ArrayI18StreamedBinaryReadILb1EE19Converter_PrimitiveI8Vector4fEEvRK23StaticTransferFieldInfoR31RuntimeSerializationCommandInfoRT0_
I_j:_ActivationServices_get_ConstructionActivator_m1726426854
Psh:_CipherSuite_get_CipherAlgorithmType_m750379757
Ize:__ZN5physx3Ext5JointINS_15PxDistanceJointENS_30PxDistanceJointGeneratedValuesEE17setConstraintFlagENS_16PxConstraintFlag4EnumEb
lJl:__ZL52Activator_t1850728717_CustomAttributesCacheGeneratorP21CustomAttributesCache
bal:_GC_adj_bytes_allocd
pXj:_SpriteState_t1353336012_marshal_pinvoke_cleanup
uFi:_MonoMethodInfo_GetReturnType_m2864247130
F1f:_Array_InternalArray__ICollection_Add_TisKeyframe_t1449471340_m887263954_gshared
B3d:__ZN5physx20InternalTriangleMesh16allocateVerticesEj
fNk:_UIVertex__cctor_m803910084
fVe:__ZN5physx18RepXPropertyFilterINS_2Sn17RepXVisitorReaderINS_23PxVehicleDriveSimDataNWEEEEclILj657ENS_21PxVehicleDriveSimDataERKNS_18PxVehicleGearsDataES8_EEvRKNS_14PxPropertyInfoIXT_ET0_T1_T2_EEj
XJh:_List_1_System_Collections_IList_Remove_m3933652540_gshared
pfh:_MonoIO_get_ConsoleInput_m2976499023
Lpl:__ZNSt3__113__vector_baseIjNS_9allocatorIjEEED2Ev
aCi:_OpCode_get_Size_m481593949_AdjustorThunk
Bjg:_BitArrayEnumerator_checkVersion_m3839504595
dbg:_Array_GetUpperBound_m1352329707
t1c:__ZN13b2PulleyJoint24SolveVelocityConstraintsERK12b2SolverData
foe:__ZN5physx6shdfnd5ArrayINS_17PxcBroadPhasePairENS0_19ReflectionAllocatorIS2_EEE8recreateEj
Ta:invoke_fiiifii
dEd:__ZThn4_N5physx5cloth8SwSolverD1Ev
nuh:_RecordProtocol__ctor_m168945279
T3e:__ZThn4_NK5physx5cloth9ClothImplINS0_7SwClothEE18getSleepAfterCountEv
Aug:_DateTimeOffset_Equals_m3728302791_AdjustorThunk
HMe:__ZThn4_N16RayRTreeCallbackILi1ELb0EED1Ev
ZUe:__ZN5physx3Pvd17PvdPropertyFilterINS_2Sn17RepXVisitorWriterINS_16PxVehicleDriveNWEEEE14handleAccessorILj633ENS_22PxRepXPropertyAccessorILj633ENS_15PxVehicleWheelsENS_22PxVehicleWheelsDynDataESA_EEEEvRKT0_
Tii:_GUIStyleState_t3801000545_marshal_pinvoke_back
V_a:__ZN20SphericalHarmonicsL219AddDirectionalLightERKN4math7_float3ERKNS0_7_float4E
x1d:__ZN5physx13BigConvexDataD2Ev
wXe:__ZN5physx18RepXPropertyFilterINS_2Sn17RepXVisitorReaderINS_30PxVehicleAckermannGeometryDataEEEEclILj552ES3_ffEEvRKNS_14PxPropertyInfoIXT_ET0_T1_T2_EEj
Jyk:_TimeSpan_op_GreaterThanOrEqual_m3997050520
jSk:_InvokableCall_4__ctor_m1096399974_gshared
Kua:__Z26ScheduleJobForEachInternalR8JobFencePFvPvjES1_iPFvS1_E11JobPriority
sZh:_OidEnumerator_MoveNext_m1889267785
yKa:__ZN9Scripting18RaiseMonoExceptionEPKcz
YUa:__ZN9Texture2D8TransferI19StreamedBinaryWriteILb0EEEEvRT_
$jb:__ZN24RingBufferMemoryFileData6UnlockEPv
xfi:_GUISkin_set_box_m877476512
LNg:_OptionData__ctor_m3070653720
TUk:_TweenRunner_1_StartTween_m3792842064_gshared
twa:__ZN9ShaderLab16FastPropertyName15InitBy28BitHashEj
zOf:_Single_System_IConvertible_ToInt32_m3269519527_AdjustorThunk
cXk:__ZN6il2cpp2vm5Class7GetNameEP11Il2CppClass
Cw:__ZN14NavMeshManager17UnloadNavMeshDataEi
QXb:__ZN13MonoBehaviour18TransferEngineDataI18StreamedBinaryReadILb0EEEE4PPtrI10MonoScriptERT_
DJf:_SHA1Internal_ProcessBlock_m4070037334
tMh:_List_1_ToArray_m1197439731_gshared
tcl:__ZN6il2cpp6icalls8mscorlib6System10Reflection14MonoMethodInfo15get_method_infoE12Il2CppIntPtrP16Il2CppMethodInfo
aQl:__ZL87RectOffset_t3387826427_CustomAttributesCacheGenerator_RectOffset_get_bottom_m4112328858P21CustomAttributesCache
yVf:_UTF32Encoding_GetDecoder_m2714144074
rDe:__ZN5physx22NpParticleBaseTemplateINS_15PxParticleFluidENS_15NpParticleFluidEE9addForcesEjRKNS_16PxStrideIteratorIKjEERKNS4_IKNS_6PxVec3EEENS_11PxForceMode4EnumE
n4h:_ObjRef_GetObjectData_m3081609242
Xvb:__Z49Register_UnityEngine_Component_SendMessageUpwardsv
Ifj:__Z109RuntimeInvoker_Void_t1841601450_Int32U26_t455636984_Int32U26_t455636984_Int32U26_t455636984_Int32_t2071877448PK10MethodInfoPvPS2_
gDa:__ZN17PackedFloatVector12UnpackFloatsEPfiiii
ZHl:__ZL113EncoderReplacementFallback_t4228544112_CustomAttributesCacheGenerator_EncoderReplacementFallback__ctor_m517300448P21CustomAttributesCache
C1i:_ReadOnlyCollection_1__ctor_m3671019970_gshared
QLh:_List_1_System_Collections_Generic_ICollectionU3CTU3E_get_IsReadOnly_m3511020562_gshared
h7:_UNITY_png_handle_IHDR
KGb:__ZN13GfxDeviceGLES21DestroyComputeProgramER12ObjectHandleI18ComputeProgram_TagPvE
Rog:_Convert_ToDecimal_m2007036836
lme:__Z5recipRK8Scalar4f
Cnb:__ZN17UniqueIDGenerator16DestroyPureIndexEj
H0j:_Context_NotifyDynamicSinks_m1367144344
Y3b:__ZNK13BaseAllocator10IsAssignedEv
MMc:__ZN24TextDOMTransferWriteBaseI9JSONWriteE12PushMetaFlagEi
_jl:__ZN16VirtFuncInvoker1I25DSAParameters_t1872138834bE6InvokeEjPvb
oOi:_Dictionary_2_TryGetValue_m3108198470_gshared
Fkd:__ZN5physx7NpCloth22removeCollisionCapsuleEj
X9i:__Z45RuntimeInvoker_Int16_t4041245914_Il2CppObjectPK10MethodInfoPvPS2_
NGk:_X509Certificate_GetSubjectName_m1189079906
tNg:_Dropdown_DestroyItem_m234623804
Cuh:_TlsClientCertificateVerify__ctor_m110646389
Fzc:__ZN6prcoreL26RemapGenericIntegerToFloatI17TexFormatARGB888815TexFormatRFloatEEvPKNS_9InnerInfoE
Deb:__ZN5Mutex6UnlockEv
_Yk:__ZN6il2cpp2vm10ThreadPool10InitializeEv
P0j:_Context_GetServerContextSinkChain_m390126977
R0k:__ZN6il2cpp2vm17TypeNameParseInfoD2Ev
w$e:__ZN5physx18PxsSolverStartTask16articulationTaskEv
p6f:_Array_Sort_TisIl2CppObject_m143182644_gshared
q0l:__ZL89GUIStyle_t1799908754_CustomAttributesCacheGenerator_GUIStyle_set_imagePosition_m327170707P21CustomAttributesCache
hhh:_StringReader_Read_m513112775
bRa:__ZNK8Renderer8GetLayerEv
mTh:_Collection_1_System_Collections_IList_Insert_m266942173_gshared
Yye:__ZN5physx3Cct17CapsuleController18setNonWalkableModeENS_27PxControllerNonWalkableMode4EnumE
hvl:__ZL80String_t_CustomAttributesCacheGenerator_String_FormatHelper_m1513692144____args3P21CustomAttributesCache
t5e:__ZN5physx2Sc11InteractionD2Ev
Sia:__ZN12FlareManager11DeleteFlareEi
tVi:_Collection_1_Add_m2613548553_gshared
qI:__ZN7mecanim9animation22DestroyBlendTreeOutputEPNS0_15BlendTreeOutputERNS_6memory9AllocatorE
Khe:__ZN18MultiQueryCallbackIN5physx12PxRaycastHitEE6invokeERfPKNS0_2Sq13PrunerPayloadEj
Gvg:_Decimal__ctor_m569480123_AdjustorThunk
MWh:_HttpWebRequest__cctor_m3013631978
Rrc:__ZNSt3__113move_backwardIP10InputEventS1_S2_RS1_PS2_iLi85EEENS_16__deque_iteratorIT0_T1_T2_T3_T4_XT5_EEET_SC_SB_PNS_9enable_ifIXsr27__is_random_access_iteratorISC_EE5valueEvE4typeE
hFc:__ZL23stbir__calculate_memoryP11stbir__info
ZIg:_Button_OnPointerClick_m2524861687
umj:__Z90RuntimeInvoker_Boolean_t3825574718_Int32_t2071877448_Int32U26_t455636984_Int32_t2071877448PK10MethodInfoPvPS2_
teb:__Z36UnityPropertySheet_MakeSortedTexEnvsRKNSt3__13mapIN9ShaderLab16FastPropertyNameEN18UnityPropertySheet11UnityTexEnvENS_4lessIS2_EENS_9allocatorINS_4pairIKS2_S4_EEEEEER10vector_mapIS2_S4_S6_NS7_INS8_IS2_S4_EEEEE
n7:_UNITY_png_handle_sRGB
v0g:_KeyGeneratedEventHandler_EndInvoke_m1587195139
U3e:__ZThn4_NK5physx5cloth9ClothImplINS0_7SwClothEE17getSleepPassCountEv
l9e:__ZN5physx15NpActorTemplateINS_13PxRigidStaticEE13setActorFlagsENS_7PxFlagsINS_11PxActorFlag4EnumEtEE
nTj:_Scrollbar_FindSelectableOnRight_m3219495255
rz:__ZN9Behaviour11FixedUpdateEv
BQd:__ZN5physx18PxcNpThreadContextD2Ev
KMc:__ZNK9rapidjson12GenericValueINS_4UTF8IcEE13JSONAllocatorE6AcceptINS_12PrettyWriterI16TempBufferWriterS2_S2_S3_EEEEbRT_
QBe:__ZN5physx19NpRigidBodyTemplateINS_14PxRigidDynamicEE11attachShapeERNS_7PxShapeE
f6e:__ZN5physx6shdfnd4sortIPvNS0_4LessIS2_EENS0_19ReflectionAllocatorINS_2Sc13ConstraintSimEEEEEvPT_jRKT0_RKT1_
Bbg:_Array_BinarySearch_m1368352453
S2f:_Array_InternalArray__ICollection_CopyTo_TisVector3_t2243707580_m509487340_gshared
WPg:_GridLayoutGroup_get_constraint_m1351424857
j$c:__ZN16b2ContactManager15FindNewContactsEv
_xk:_TimeSpan_get_Ticks_m2285358246_AdjustorThunk
W0d:__ZN5physx2Gu21SweepCapsuleTrianglesEjPKNS_10PxTriangleERKNS_17PxCapsuleGeometryERKNS_11PxTransformERKNS_6PxVec3EfPKjRSA_SF_RfRjfNS_7PxFlagsINS_9PxHitFlag4EnumEtEE
foi:_DownloadHandlerTexture_t2365358851_marshal_pinvoke_back
_gc:__ZN18StreamedBinaryReadILb1EE8TransferINSt3__16vectorIh13stl_allocatorIhL18MemLabelIdentifier1ELi16EEEEEEvRT_PKc17TransferMetaFlags
qYl:__ZL102Rigidbody_t4233889191_CustomAttributesCacheGenerator_Rigidbody_AddForceAtPosition_m4129134921____mode2P21CustomAttributesCache
sic:__Z16Transfer_BuiltinIf14SafeBinaryReadLb1EEvRK29SerializationCommandArgumentsR31RuntimeSerializationCommandInfo
q7f:_Array_swap_TisUICharInfo_t3056636800_m4036113126_gshared
jte:__Z32setPxVehicleWheelsMWheelsSimDataPN5physx15PxVehicleWheelsENS_22PxVehicleWheelsSimDataE
V_j:_UrlAttribute_Equals_m1587451932
Med:__ZNK5physx7NpScene9getLimitsEv
e9g:_Int16_ToString_m4099416068_AdjustorThunk
dci:_DSAParameters_t1872138834_marshal_pinvoke_cleanup
Drd:__ZN5physx2Sc8RigidSim25notifyShapeTranformChangeEv
zWa:__ZN9Transform16SetLocalRotationERK11Quaternionf
xNe:__ZNK5physx2Gu29EPASupportMapPairRelativeImplINS0_9TriangleVENS0_8CapsuleVEE9doSupportERKNS_6shdfnd3aos5Vec3VERS7_SA_SA_
Hym:dynCall_iifiiiii
vGd:__ZN3MBP12updateObjectEjRK5IAABB
nqj:__Z64RuntimeInvoker_Void_t1841601450_Il2CppObject_Vector3_t2243707580PK10MethodInfoPvPS2_
_Rg:_InputField_get_placeholder_m1768315947
hge:__ZN5physx6shdfnd5ArrayINS_6PxVec3ENS0_19ReflectionAllocatorIS2_EEE15growAndPushBackERKS2_
GFb:__ZN13GfxDeviceGLES22ReleaseThreadOwnershipEv
Ool:__ZN23InterfaceActionInvoker3IP8String_tbbE6InvokeEjP11Il2CppClassPvS1_bb
h4k:__ZN6il2cpp2os19ReleaseSocketHandleEj
oHl:__ZL59ApplicationTrust_t3968282840_CustomAttributesCacheGeneratorP21CustomAttributesCache
Eyl:__ZL128SafeHandleZeroOrMinusOneIsInvalid_t1177681199_CustomAttributesCacheGenerator_SafeHandleZeroOrMinusOneIsInvalid__ctor_m3340306667P21CustomAttributesCache
GCi:_TypeBuilder_GetPropertyImpl_m1854119335
U2k:__ZN6il2cpp6icalls8mscorlib6System4Type17get_IsGenericTypeEP20Il2CppReflectionType
nsd:__ZN5physx2Sc5Scene20fireTriggerCallbacksEv
Fyi:_TypeBuilder_get_next_table_index_m1415870184
Lkm:___cxa_can_catch
yph:_SequentialSearchPrimeGeneratorBase_GenerateNewPrime_m296245934
rgg:_Char_GetUnicodeCategory_m4273361321
avl:__ZL63String_t_CustomAttributesCacheGenerator_String_Split_m394273024P21CustomAttributesCache
yWe:__ZN5physx2Sn21RepXVisitorReaderBaseINS_18PxVehicleDriveTankEE8pushNameEPKc
ztf:__ZN2UI11CanvasGroup23VirtualRedirectTransferER19StreamedBinaryWriteILb0EE
a3d:__ZN5physx2Gu18GJKRelativeRayCastERNS0_8CapsuleVERNS0_4BoxVERKNS_6shdfnd3aos15PsMatTransformVERKNS6_6FloatVERKNS6_5Vec3VESF_RSA_RSD_SH_fb
S0e:__ZN5physx5cloth9ClothImplINS0_7SwClothEE14setTranslationERKNS_6PxVec3E
upb:__Z32RectOffset_Set_Custom_PropBottomP15ScriptingObjecti
Hvj:__Z68RuntimeInvoker_Boolean_t3825574718_Il2CppObject_ObjectU26_t597476745PK10MethodInfoPvPS2_
iU:__ZN10AudioMixer6UpdateEf
PCb:__ZNK13TranslateGLES23VertexArraySizeBitfieldEi
JIj:_InternalEnumerator_1_get_Current_m1047712960_gshared
B0j:_Identity_get_ClientDynamicProperties_m767245959
oFj:_InternalEnumerator_1__ctor_m675130983_AdjustorThunk
iOi:_Dictionary_2_Clear_m899854001_gshared
N5k:__ZN6il2cpp2os5posix15PosixWaitObjectC2ENS2_4TypeE
Nu:__Z24dtClosestPtPointTrianglePfPKfS1_S1_S1_
g_l:__ZL83Canvas_t209405766_CustomAttributesCacheGenerator_Canvas_get_scaleFactor_m1115379735P21CustomAttributesCache
abc:__ZN14DrawBufferGLESI11IndexBuffer26IndexBufferUsageMapperGLESED0Ev
XFd:__ZN5physx15PxsArticulationD2Ev
TRe:__ZN5physx2Sn21RepXVisitorWriterBaseINS_22PxVehicleWheelsSimDataEE23extendedIndexedPropertyINS_3Pvd36PxPvdExtendedIndexedPropertyAccessorILj617ES2_KjiEEKNS_18PxUnknownClassInfoEEEvPjRKT_RT0_
TBm:_emscripten_glVertexPointer__wrapper
x$l:__ZL78GUISettings_t622856320_CustomAttributesCacheGenerator_m_DoubleClickSelectsWordP21CustomAttributesCache
nwa:__ZN23ShaderVariantCollection13WarmupShadersEv
ovh:_Context_set_ProtocolNegotiated_m1177527245
CBk:_UInt32_System_IConvertible_ToChar_m1056040486
c1b:__ZNSt3__112basic_stringIcNS_11char_traitsIcEE13stl_allocatorIcL18MemLabelIdentifier66ELi16EEE7reserveEj
Xwd:__ZN5physx2Sc18ParticleSystemCore13setRestOffsetEf
yVc:__Z8EvaluateRK11MinMaxCurveff
DLa:__Z27scripting_gc_collect_unsafei
b0:__ZN11AudioModule20SuspendVideoTexturesEv
Ejg:_CaseInsensitiveComparer__ctor_m1125492797
F6a:__ZN18ScriptingArguments10AddBooleanEb
Qee:__Z59Register_UnityEngine_CharacterController_INTERNAL_CALL_Movev
led:__ZN5physx13NpRigidStaticC2ERKNS_11PxTransformE
p$:__ZL16FMOD_ErrorString11FMOD_RESULT1197
EYc:__ZN10Collider2D16RecreateColliderEbP11Rigidbody2D
Jef:_UNITY_FT_GlyphLoader_CheckPoints
BNh:_List_1_System_Collections_ICollection_CopyTo_m1995866425_gshared
m0c:__ZN16b2PolygonContact7DestroyEP9b2ContactP16b2BlockAllocator
Qjm:___cxa_get_globals_fast
DZe:__ZN5physxL20PxcSweepBoxTrianglesERKNS_11PxsCCDShapeES2_RKNS_11PxTransformES5_S5_S5_fRNS_6PxVec3ES7_RNS_10PxcNpCacheERNS_18PxcNpThreadContextERKNS_2Cm23FastVertex2ShapeScalingERNS_2Gu9TriangleVEf
Whh:_TextWriter_WriteLine_m1754475888
M6c:__ZN5physx3Cct15ObstacleContextD0Ev
Loa:__ZN15SharedLightData7PrecalcEv
h_a:__ZN10Matrix4x4fmLERKS_
JRk:_InvokableCall_1_Invoke_m769918017_gshared
gB:__ZN4PPtrI9TransformE8TransferI18StreamedBinaryReadILb0EEEEvRT_
X8f:_Array_InternalArray__get_Item_TisDouble_t4078015681_m2215331088_gshared
tfm:__ZNSt3__112__hash_tableINS_17__hash_value_typeINS_4pairIPKcS4_EEiEENS_22__unordered_map_hasherIS5_S6_24NamespaceAndNamePairHashLb1EEENS_21__unordered_map_equalIS5_S6_26NamespaceAndNamePairEqualsLb1EEENS_9allocatorIS6_EEE6rehashEj
MXa:__ZN17TransformInternal12InitLocalTRSE15TransformAccessRKN4math7_float3ERKNS1_7_float4ES4_
xHl:__ZL57PrincipalPolicy_t289802916_CustomAttributesCacheGeneratorP21CustomAttributesCache
Fnc:__Z16Transfer_BuiltinI10ColorRGBAf18StreamedBinaryReadILb0EELb1EEvRK29SerializationCommandArgumentsR31RuntimeSerializationCommandInfo
Jfc:__Z14resize_trimmedINSt3__16vectorI10Matrix4x4f13stl_allocatorIS2_L18MemLabelIdentifier1ELi16EEEEEvRT_j
aOi:_Dictionary_2_Init_m3666073812_gshared
oka:__ZN5Light16TransformChangedEv
npi:_UnityWebRequest_InternalSetUrl_m1669953255
jim:__ZNSt3__16vectorI6pollfdNS_9allocatorIS1_EEE26__swap_out_circular_bufferERNS_14__split_bufferIS1_RS3_EE
JT:__ZNK11AudioSource25GetClassIDVirtualInternalEv
Hw:__ZN14NavMeshManager13RegisterAgentER12NavMeshAgentRi
cSb:__ZN18ConcurrentFreeListI28FileTextureUploadInstructionE7CleanUpEv
U_f:_Array_compare_TisColor32_t874517518_m3842009370_gshared
ox:__ZN11DynamicMesh24RemoveDegeneratePolygonsEv
Lqa:__Z30GetLightProbeProxyVolumeHandleRK28LightProbeProxyVolumeContextRK12BaseRenderer
tie:__ZN5physx3Scb9Aggregate9syncStateERNS0_5SceneE
SOl:__ZL61ExtensionAttribute_t1840441203_CustomAttributesCacheGeneratorP21CustomAttributesCache
G6i:_ReadOnlyCollection_1_System_Collections_Generic_ICollectionU3CTU3E_Remove_m974176789_gshared
sxg:_Delegate_return_type_match_m4278947849
_Tg:_InputField_GenerateHightlight_m1346735465
nkm:__ZNSt8bad_castD0Ev
zom:__ZNSt3__19__num_getIwE17__stage2_int_loopEwiPcRS2_RjwRKNS_12basic_stringIcNS_11char_traitsIcEENS_9allocatorIcEEEEPjRSD_Pw
Eng:_GC_SuppressFinalize_m953228702
uef:_FT_MSB
TP:__ZN29AnimationStateNetworkProvider24SetNetworkAnimationStateER9AnimationPK24AnimationStateForNetworki
jii:_GUIStyle_get_clipping_m2754700641
Ojj:__Z50RuntimeInvoker_SByte_t454417549_Double_t4078015681PK10MethodInfoPvPS2_
_5h:_SoapServices_PreLoad_m490411755
del:__ZN6il2cpp6icalls8mscorlib4Mono8Security12Cryptography18KeyPairPersistence10_CanSecureEP12Il2CppString
d8c:__ZN5physx7NpActor17resolveReferencesERNS_24PxDeserializationContextE
Tce:__ZN9Rigidbody15InitializeClassEv
fYa:__ZN9InputAxisC2ERKNSt3__112basic_stringIcNS0_11char_traitsIcEENS0_9allocatorIcEEEE
lWj:_Slider__ctor_m3124136916
FSc:__ZN13InitialModule8TransferI19StreamedBinaryWriteILb0EEEEvRT_
nPj:_DefaultComparer__ctor_m3180706193_gshared
sPh:_List_1_System_Collections_Generic_IEnumerableU3CTU3E_GetEnumerator_m3625278020_gshared
MEb:__ZN13GfxDeviceGLES14SetRasterStateEPK17DeviceRasterState
r0c:__ZN15b2DistanceJoint24SolvePositionConstraintsERK12b2SolverData
BCb:__ZNK13TranslateGLES11BlendFactorE9BlendMode
Pta:__Z18GetLODGroupManagerv
fic:__Z30TransferField_LinearCollectionI14SafeBinaryReadEvRK29SerializationCommandArgumentsR31RuntimeSerializationCommandInfo
ISg:_InputField_set_caretPositionInternal_m231166704
Wne:__ZN5physx5Elems17setStaticAABBDataEjRKNS_17PxcAABBDataStaticE
Huh:_TlsServerHello__ctor_m3032108168
_8a:__ZN14SafeBinaryRead11EndTransferEv
bBl:__ZL98ILGenerator_t99948092_CustomAttributesCacheGenerator_ILGenerator_Mono_GetCurrentOffset_m3553856682P21CustomAttributesCache
pbf:__ZN5physx11PxHitBufferINS_12PxRaycastHitEE14processTouchesEPKS1_j
v4b:__ZNK3WWW12GetAudioClipEv
Yhc:__ZN14SafeBinaryRead8TransferI8MonoPPtrEEvRT_PKc17TransferMetaFlags
qQi:_Dictionary_2_System_Collections_Generic_ICollectionU3CSystem_Collections_Generic_KeyValuePairU3CTKeyU2CTValueU3EU3E_Remove_m1705959559_gshared
Xii:_GUIText_set_color_m791096413
eNj:_InternalEnumerator_1_System_Collections_IEnumerator_get_Current_m1533037706_gshared
Hac:__ZN21UniformBufferTFMethod13MapBoneBufferEj
Cyh:_RecordProtocol_SendChangeCipherSpec_m3542001341
vec:__ZN8GUIStyle8TransferI18StreamedBinaryReadILb1EEEEvRT_
Ee:_cosf
$Ra:__ZN13RenderTexture15SetAntiAliasingEi
Z0g:_KeyPairPersistence_CanSecure_m2251009700
E7a:__ZN9TextAsset15ThreadedCleanupEv
WAa:__ZN14DirectorPlayer8TransferI14SafeBinaryReadEEvRT_
IUd:__ZNK5physx22PxVehicleWheelsDynData11getUserDataEj
Uzi:_GenericTypeParameterBuilder_IsSubclassOf_m563999142
Pab:__ZN14SerializedFileD2Ev
q$b:__ZN18StreamedBinaryReadILb0EE19TransferSTLStyleMapINSt3__13mapIN9ShaderLab16FastPropertyNameE10ColorRGBAfNS2_4lessIS5_EENS2_9allocatorINS2_4pairIKS5_S6_EEEEEEEEvRT_17TransferMetaFlags
Eua:__Z21CompleteFenceInternalR8JobFence
NJk:_StackTraceUtility_PostprocessStacktrace_m2866903298
VZe:__ZN5physx6shdfnd5ArrayIPvNS0_16AlignedAllocatorILj64ENS0_9AllocatorEEEE15growAndPushBackERKS2_
lZb:__ZNSt3__16__treeINS_12basic_stringIcNS_11char_traitsIcEENS_9allocatorIcEEEENS_4lessIS6_EE13stl_allocatorIS6_L18MemLabelIdentifier37ELi16EEE4findIS6_EENS_15__tree_iteratorIS6_PNS_11__tree_nodeIS6_PvEEiEERKT_
ile:__ZN5physx6shdfnd5ArrayINS_35PxClothParticleSeparationConstraintENS0_19ReflectionAllocatorIS2_EEE6resizeEjRKS2_
yI:__ZN7mecanim9animation16CreateClipOutputEPKNS0_4ClipERNS_6memory9AllocatorE
h3f:_Array_InternalArray__Insert_TisDecimal_t724701077_m1429254816_gshared
oVk:_ListPool_1_Get_m2998644518_gshared
Zij:__Z76RuntimeInvoker_IntPtr_t_SByte_t454417549_Il2CppObject_BooleanU26_t3168250738PK10MethodInfoPvPS2_
J$k:__ZN6il2cpp2vm10Reflection17GetAssemblyObjectEPK14Il2CppAssembly
mHa:__ZN18AsyncUploadManager17DoScaledPaddedJobEP28FileTextureUploadInstruction
a7c:__ZN5physx3Cct12SweptCapsuleC2Ev
Px:__ZN14NavMeshCarving17ApplyCarveResultsEv
adb:__ZN6Shader21AwakeFromLoadThreadedEv
Znl:__ZL24il2cpp_codegen_no_returnv20096
qgl:__ZN16VirtFuncInvoker0IiE6InvokeEjPv
pqc:__ZNSt3__118__insertion_sort_3IRN15ResourceManager10Dependency6SorterEPS2_EEvT0_S6_T_
Hyc:__ZN6prcoreL17RemapGenericFloatI17TexFormatRGBFloat17TexFormatRGBAHalfEEvPKNS_9InnerInfoE
YX:__ZN10ObjectPoolIN4FMOD12ChannelGroupENS0_13ChannelGroupIEE5CheckEv
uL:__ZNSt3__16__sortIR12GreaterLayerPP14AnimationStateEEvT0_S6_T_
r7l:__ZL70InputField_t1631627530_CustomAttributesCacheGenerator_m_CharacterLimitP21CustomAttributesCache
fQh:_List_1_get_Capacity_m2443158653_gshared
ZNd:__ZN5physx24PxcContactBoxHeightFieldERKNS_2Gu13GeometryUnionES3_RKNS_11PxTransformES6_RKfRNS_10PxcNpCacheERNS0_13ContactBufferE
oGf:__ZN13UploadHandler10OnSentDataEj
Iel:__ZN6il2cpp2os9SemaphoreC2Eii
mFj:_InternalEnumerator_1_get_Current_m2960188445_AdjustorThunk
QXj:_Text_set_alignByGeometry_m1514652028
Sac:__ZN15UniformTFMethod20IsBoneCountSupportedEi
BGe:__ZNK5physx23AggregateAABBUpdateTask7getNameEv
Nti:_Rect_Contains_m1334685291_AdjustorThunk
Ndh:_FileStream_get_Position_m465478322
Kxm:dynCall_viidi
l3f:_Array_InternalArray__Insert_TisInt64_t909078037_m3039874636_gshared
YCd:__ZNK5physx5cloth8SwFabric10getNumSetsEv
HYj:_ToggleGroup_NotifyToggleOn_m997426227
hFf:__Z44UnityWebRequest_Set_Custom_PropRedirectLimitP15ScriptingObjecti
Xyh:_RSASslSignatureDeformatter_SetKey_m1150106904
a$l:__ZL74Event_t3028476042_CustomAttributesCacheGenerator_Event_Cleanup_m1195902101P21CustomAttributesCache
x8a:__ZN24ScriptingMethodFiltering17FilterOnSignatureENS_18MethodSearchFilterE
Zxi:_TypeBuilder_get_Module_m1668298460
Dmd:__ZN5physx13NpClothFabric16scaleRestlengthsEf
dAb:__ZN18ScreenManagerWebGL13SetLockCursorE14CursorLockMode
Whf:_cf2_arrstack_finalize
Dxl:__ZL108ArrayReadOnlyList_1_t3367196019_CustomAttributesCacheGenerator_ArrayReadOnlyList_1_GetEnumerator_m3031680693P21CustomAttributesCache
Jtc:__ZN12LightmapData8TransferI13ProxyTransferEEvRT_
R1g:_RSAManaged_EncryptValue_m4089823119
I4a:__ZN13MonoBehaviour19HandleNotificationsEPviR11MessageData
Xgk:_Color32_t874517518_marshal_pinvoke
Mje:__ZN5physx6shdfnd5ArrayIPNS_2Sc17ParticleSystemSimENS0_19ReflectionAllocatorIS4_EEE8recreateEj
$Xk:__ZN6il2cpp2vm13MetadataCache23GetMethodGenericContextEPK10MethodInfo
tRi:_DefaultComparer_GetHashCode_m926363525_gshared
_gi:_GUIStyle_set_focused_m1547304893
rCe:__ZNK5physx13NpRigidStatic7getTypeEv
ZTj:_ScrollRect_get_verticalScrollbar_m2455612493
kpk:_GameController_SpawnBarrel_m3301600110
htj:__Z69RuntimeInvoker_Void_t1841601450_Int32_t2071877448_HitInfo_t1761367055PK10MethodInfoPvPS2_
Aeh:_ReadDelegate_Invoke_m2091885836
lzi:_TypeBuilder_GetField_m2112455315
Unm:__ZNSt3__17collateIwED2Ev
LAm:b58
MAm:b59
TLh:_List_1_System_Collections_IList_get_IsFixedSize_m3412144440_gshared
zAm:b52
AAm:b53
xAm:b50
buj:__Z51RuntimeInvoker_Vector4_t2243707581_SByte_t454417549PK10MethodInfoPvPS2_
UYd:__ZN5physx9PxTaskMgrD0Ev
GAm:b57
BAm:b54
eVe:__ZN5physx18RepXPropertyFilterINS_2Sn17RepXVisitorReaderINS_23PxVehicleDriveSimDataNWEEEEclILj656ENS_21PxVehicleDriveSimDataERKNS_19PxVehicleEngineDataES8_EEvRKNS_14PxPropertyInfoIXT_ET0_T1_T2_EEj
Pwe:__ZN19CharacterController8TransferI14SafeBinaryReadEEvRT_
guk:_ParticleSystemDestroyer__ctor_m41753108
A_g:_Kernel_Multiply_m3585610531
zsh:_CertificateSelectionCallback_EndInvoke_m3525317639
LXb:__Z33BuildSerializationCommandQueueForI13ProxyTransferEvRK34BuildSerializationCommandQueueArgsR32SerializationCommandQueueBuilderRP20AllowNameConversionsbPK18TransferField_Info
f$:__ZN4PPtrI15AudioMixerGroupE8TransferI18StreamedBinaryReadILb0EEEEvRT_
$Wd:__Z33getNbPxVehicleNoDrive_BrakeTorquePKN5physx16PxVehicleNoDriveE
Wrg:_DateTime__ctor_m3604679583_AdjustorThunk
cim:__ZNSt3__16vectorIP12Il2CppThreadNS_9allocatorIS2_EEE26__swap_out_circular_bufferERNS_14__split_bufferIS2_RS4_EE
p5:__ZNSt3__115basic_stringbufIcNS_11char_traitsIcEENS_9allocatorIcEEE9pbackfailEi
$Vl:__ZL96Transform_t3275118058_CustomAttributesCacheGenerator_Transform_INTERNAL_get_position_m1881704498P21CustomAttributesCache
Qkc:__Z16Transfer_BuiltinI8BitField13ProxyTransferLb1EEvRK29SerializationCommandArgumentsR31RuntimeSerializationCommandInfo
tcg:_SimpleEnumerator_Reset_m1341779532
e1g:_MACAlgorithm_Core_m2390605245
QLj:_InternalEnumerator_1_System_Collections_IEnumerator_get_Current_m30488070_gshared
cea:__ZN10GameObject12CleanupClassEv
HIj:_InternalEnumerator_1_System_Collections_IEnumerator_Reset_m2624612805_AdjustorThunk
gie:__ZN5physx3Scb5Scene13addRigidNoSimINS0_11RigidStaticELb0ELb1EEEvRT_RNS0_13ObjectTrackerE
CCc:__ZN15SerializeTraitsI13dynamic_arrayI11TetrahedronLj4EEE19ResizeSTLStyleArrayERS2_i18MemLabelIdentifier
_4b:__ZN9GfxDevice25SetShaderPropertiesSharedERK19ShaderPropertySheet
mUk:_IndexedSet_1_GetEnumerator_m3646001838_gshared
k9a:__ZN18StreamedBinaryReadILb1EE20TransferTypelessDataEjPvi
f5a:__ZN10MonoScript17MainThreadCleanupEv
JRa:__ZN13RenderTexture9SetActiveEiP12ObjectHandleI17RenderSurface_TagP17RenderSurfaceBaseES4_PPS_i11CubemapFaceij
XRj:_VertexHelper_AddUIVertexTriangleStream_m4009409241
$Pj:_Comparer_1__ctor_m844571340_gshared
j0b:__ZN24dense_hashtable_iteratorINSt3__14pairIKNS0_12basic_stringIcNS0_11char_traitsIcEE13stl_allocatorIcL18MemLabelIdentifier54ELi16EEEEP20ArchiveStorageReaderEES8_11djb2_hash_tIS8_EN14dense_hash_mapIS8_SB_SE_NS0_8equal_toIS8_EES5_ISC_LS6_54ELi16EEE9SelectKeyESH_SI_E30advance_past_empty_and_deletedEv
X_b:__ZL25InitializeDefaultMaterialv
Mhb:__ZN21ArchiveStorageCreatorD2Ev
zok:_AlphaButtonClickMask__ctor_m778331979
iQb:__ZNSt3__16vectorIN9ShaderLab14ParserPropertyENS_9allocatorIS2_EEE21__push_back_slow_pathIKS2_EEvRT_
S8b:__ZN19FileAccessorHandlerD2Ev
JQj:_Comparer_1__ctor_m2941434245_gshared
eZj:_VertexHelper_AddVert_m3290455716
HZf:_Array_InternalArray__IEnumerable_GetEnumerator_TisChar_t3454481338_m2563195437_gshared
fKj:_InternalEnumerator_1_System_Collections_IEnumerator_Reset_m4085710193_AdjustorThunk
ZAl:__ZL126GenericTypeParameterBuilder_t1370236603_CustomAttributesCacheGenerator_GenericTypeParameterBuilder_MakeGenericType_m2955814622P21CustomAttributesCache
PXl:__ZL95Physics_t634932869_CustomAttributesCacheGenerator_Physics_RaycastAll_m410413656____maxDistance1P21CustomAttributesCache
Znh:_U24ArrayTypeU244_t1957337331_marshal_pinvoke_cleanup
ebe:__Z14UpdateVehiclesf
LSa:__ZN13ScreenManager17RequestResolutionEiibi
kMe:__ZN26IntersectAnyVsMeshCallbackILi0ELb1EED2Ev
N_k:_il2cpp_unity_liveness_calculation_from_statics
dxk:_Scheduler_get_Instance_m1989471839
GPg:_GraphicRaycaster_get_eventCamera_m4031517334
ytm:__ZNSt3__114__num_get_base10__get_baseERNS_8ios_baseE
AYh:_WebRequest_System_Runtime_Serialization_ISerializable_GetObjectData_m3377822910
ERa:__ZN8Renderer8TransferI17RemapPPtrTransferEEvRT_
wXi:_Collection_1_Contains_m1299140035_gshared
cLe:__ZN5physx23PxCapsuleControllerDesc12setToDefaultEv
DPb:__ZNSt3__15dequeIPN9ShaderLab17ParserShaderStateENS_9allocatorIS3_EEE19__add_back_capacityEv
L1f:_Array_InternalArray__ICollection_Add_TisUICharInfo_t3056636800_m968274080_gshared
vVk:_ObjectPool_1__ctor_m1532275833_gshared
kub:__Z22Input_CUSTOM_GetKeyInti
lve:__ZN5physx2Gu20PointOutsideOfPlane4ERKNS_6shdfnd3aos5Vec3VES5_S5_S5_
Jvl:__ZL64IntPtr_t_CustomAttributesCacheGenerator_IntPtr__ctor_m3803259710P21CustomAttributesCache
WOh:_List_1_GetIndex_m3262928832_gshared
Syd:__ZNK5physx2Sc9ClothCore16getCollisionDataEPNS_22PxClothCollisionSphereEPjPNS_21PxClothCollisionPlaneES4_PNS_24PxClothCollisionTriangleE
t_j:_SafeHandle_DangerousRelease_m2167699172
Q_a:__Z24LookRotationToQuaternionRK8Vector3fS1_P11Quaternionf
rma:__ZN16ReflectionProbes9GetCameraEv
Uwd:__ZNK5physx2Sc18ParticleSystemCore20getMaxMotionDistanceEv
WVc:__ZN22ParticleSystemRenderer8TransferI14SafeBinaryReadEEvRT_
baa:__ZNK11AssetBundle25GetClassIDVirtualInternalEv
puf:__ZN2UI6Canvas17SetSortingLayerIDEi
OIg:_BaseMeshEffect_get_graphic_m3358796463
Zsl:__ZN6il2cpp2vm11MethodStack23CleanupForCurrentThreadEv
rff:_UNITY_FT_CMap_New
uQk:_Predicate_1_Invoke_m695569038_gshared
OCh:_Enumerator_VerifyState_m825848279_AdjustorThunk
z4i:_ReadOnlyCollection_1_System_Collections_ICollection_CopyTo_m3161309318_gshared
qPf:_String_System_IConvertible_ToDateTime_m1423627978
Mqk:_AxisTouchButton_OnPointerDown_m937581131
Kyb:__Z83Register_UnityEngine_Experimental_Director_Playable_INTERNAL_CALL_GetOutputInternalv
CGe:__ZN5physx10BPWorkTaskD0Ev
QJb:_output_message
y$b:__ZN18UnityPropertySheet8TransferI19StreamedBinaryWriteILb0EEEEvRT_
bxh:_TlsServerCertificate_checkServerIdentity_m3836435780
jEl:__ZL58IContextProperty_t287246399_CustomAttributesCacheGeneratorP21CustomAttributesCache
l3g:_PKCS12_Decrypt_m2353135969
nkk:_PersistentCallGroup_Initialize_m3908067069
mAc:__ZN14qsort_internal8_QSortMTIP15RODataDepthPassi17ROSorterDepthPassE14SortMTInternalES2_S2_iS3_RK8JobFence
$we:__ZN4PPtrI14PhysicMaterialE8TransferI18StreamedBinaryReadILb1EEEEvRT_
LEi:_MonoEvent_ToString_m386956596
sPl:__ZL70RuntimePlatform_t1869584967_CustomAttributesCacheGenerator_FlashPlayerP21CustomAttributesCache
tGg:_PointerEventData_get_pointerPress_m880101744
whe:__ZN5physx20NpRigidActorTemplateINS_13PxRigidStaticEE14resetFilteringERNS_3Scb11RigidObjectEPKPNS_7PxShapeEj
ZKi:_Transform_1_BeginInvoke_m1786442111_gshared
Q8g:_Int32_GetFormatException_m1729046182
GTh:_Collection_1_get_Count_m3834276648_gshared
kic:__Z22Transfer_Builtin_AlignIt14SafeBinaryReadLb1EEvRK29SerializationCommandArgumentsR31RuntimeSerializationCommandInfo
yza:__ZN21UnityDefaultAllocatorI17LowLevelAllocatorE10DeallocateEPv
eP:__ZN15PackedIntVector8TransferI14SafeBinaryReadEEvRT_
iDi:_FieldInfo_get_IsLiteral_m267898096
gsc:__ZN17SharedTextureDataD0Ev
$9c:__ZNK5physx19NpArticulationJoint20getTangentialDampingEv
xgm:__ZNSt3__112__hash_tableINS_17__hash_value_typeINS_4pairIPK9EventInfoP11Il2CppClassEEP21Il2CppReflectionEventEENS_22__unordered_map_hasherIS8_SB_17ReflectionMapHashIS8_ELb1EEENS_21__unordered_map_equalIS8_SB_19ReflectionMapEqualsIS8_ELb1EEEN6il2cpp2gc9AllocatorISB_EEE16__construct_nodeIJNS2_IKS8_SA_EEEEENS_10unique_ptrINS_11__hash_nodeISB_PvEENS_22__hash_node_destructorINSM_ISV_EEEEEEDpOT_
hAh:_SslStreamBase_EndNegotiateHandshake_m1732321201
jLi:_Transform_1_BeginInvoke_m1167293475_gshared
kR:__ZN13AudioListener8DoUpdateEv
y6c:__ZN5physx3Cct10Controller22setUpDirectionInternalERKNS_6PxVec3E
Iul:__ZL71SByte_t454417549_CustomAttributesCacheGenerator_SByte_Parse_m1620039654P21CustomAttributesCache
Ril:__Z13bankers_roundd
Tya:__Z15calloc_internaljji18MemLabelIdentifieriPKci
Mn:_emscripten_glGenFramebuffers
jlg:_Hashtable_CopyTo_m2778915805
rba:__ZN17BaseObjectManager16StaticInitializeEPv
Ibi:_DESTransform_ProcessBlock_m2826669227
eyi:_ConstructorBuilder_get_IsCompilerContext_m2796899803
XUl:__ZL97Component_t3819376471_CustomAttributesCacheGenerator_Component_GetComponentsInChildren_m843288020P21CustomAttributesCache
Amj:__Z115RuntimeInvoker_Void_t1841601450_Il2CppObject_Int32_t2071877448_Int32_t2071877448_SByte_t454417549_Int32_t2071877448PK10MethodInfoPvPS2_
ykc:__Z22Transfer_Builtin_AlignIs13ProxyTransferLb1EEvRK29SerializationCommandArgumentsR31RuntimeSerializationCommandInfo
pBj:__Z37RuntimeInvoker_UICharInfo_t3056636800PK10MethodInfoPvPS2_
Tle:__ZN8Scalar4fC2ERKS_
PLg:_FloatTween_GetDuration_m1757342579_AdjustorThunk
vim:__ZNSt3__16__treeINS_12__value_typeIPFvvEPK10MethodInfoEENS_19__map_value_compareIS3_S7_NS_4lessIS3_EELb1EEENS_9allocatorIS7_EEE12__find_equalIS7_EERPNS_16__tree_node_baseIPvEESK_RKT_
rtg:_DateTime_CoreParse_m2014268103
CMh:_List_1__ctor_m3698273726_gshared
DFh:_List_1_Clear_m3849438586_gshared
Wra:__ZN9Behaviour23VirtualRedirectTransferER17RemapPPtrTransfer
btk:_ReplacementDefinition__ctor_m3590245008
nQl:__ZL56RenderTexture_t2666733923_CustomAttributesCacheGeneratorP21CustomAttributesCache
Pyd:__ZNK5physx2Sc9ClothCore23getNbCollisionTrianglesEv
cbi:_CryptographicException__ctor_m1012314467
fQc:__ZN13TriggerEvents5ClearEv
lVd:__Z54getPxVehicleTireData_FrictionVsSlipGraphRecipx1Minusx0PKN5physx17PxVehicleTireDataE
N6i:_ReadOnlyCollection_1_System_Collections_IList_Add_m616574295_gshared
R8g:_Int32_ProcessTrailingWhitespace_m2812079777
nua:__ZN18ProceduralMaterial9ReloadAllEbb
i2d:__ZN5physx2Gu30distanceSegmentTriangleSquaredERKNS_6shdfnd3aos5Vec3VES5_S5_S5_S5_RS3_S6_
pYh:_WebProxy__ctor_m3679722173
FHj:_InternalEnumerator_1_Dispose_m2743309309_AdjustorThunk
Zba:__ZN6Object15StringToClassIDEPKc
UMa:__Z16DecompressCrunchPKhRjR13TextureFormatiiii18MemLabelIdentifier
PQc:__ZN14EmissionModuleC2Ev
gRh:_List_1__ctor_m2082969060_gshared
yo:_sqrt
Uhj:__Z130RuntimeInvoker_Void_t1841601450_Int64_t909078037_Int64_t909078037_Il2CppObject_Il2CppObject_Il2CppObject_Il2CppObject_Il2CppObjectPK10MethodInfoPvPS2_
eaj:__Z107RuntimeInvoker_Boolean_t3825574718_SByte_t454417549_Il2CppObject_Int32_t2071877448_ExceptionU26_t1467204777PK10MethodInfoPvPS2_
PSk:_UnityAction_2_Invoke_m1994351568_gshared
GW:__ZN4FMOD8ChannelI7setMuteEb
Vxa:__ZN9ShaderLab9SubShader19CreateFromSubShaderERKS0_
gqa:__Z29RenderForwardObjectsIntoDepthRK17RenderLoopContextP13RenderTextureP13dynamic_arrayI16RenderObjectDataLj4EE12ObjectHandleI17RenderSurface_TagP17RenderSurfaceBaseESC_iib
EE:__ZNK8Animator20IsAnyRendererVisibleEv
Dgf:_cff_builder_add_point1
Vre:__Z39setPxVehicleDifferential4WDataMRearBiasPN5physx27PxVehicleDifferential4WDataEf
x1f:_Array_InternalArray__ICollection_Add_TisUInt32_t2149682021_m2629016323_gshared
JPj:_Comparer_1_System_Collections_IComparer_Compare_m1712675620_gshared
fxl:__ZL65Il2CppArray_CustomAttributesCacheGenerator_Array_Sort_m3002148658P21CustomAttributesCache
kYc:__ZN21InheritVelocityModuleD2Ev
Pa:invoke_iiiiiiiiii
DFf:__Z67Register_UnityEngine_Networking_UnityWebRequest_set_useHttpContinuev
oXg:_U24ArrayTypeU2496_t1703410326_marshal_pinvoke_cleanup
$vf:__Z46CanvasRenderer_Set_Custom_PropPopMaterialCountP15ScriptingObjecti
u6a:__ZN18LoadSceneOperation19IntegrateTimeSlicedEi
oxk:_Scheduler_SchedulerThread_m2209572785
BYg:_SortKeyBuffer_GetResultAndReset_m2516956577
YMd:__ZN5physx36solveContactPreBlock_WriteBackStaticEPKNS_23PxcSolverConstraintDescEjRNS_16PxcSolverContextEPNS_25PxcThresholdStreamElementEjPi
gBm:_glBlendFuncSeparate__wrapper
wVk:_ObjectPool_1_get_countAll_m4217365918_gshared
x7a:__ZN16ScriptingManager24NotifyScriptCacheReleaseEi
Hkj:__Z75RuntimeInvoker_DateTime_t693205669_DateTime_t693205669_TimeSpan_t3430258949PK10MethodInfoPvPS2_
NAl:__ZL63UnmanagedMemoryStream_t822875729_CustomAttributesCacheGeneratorP21CustomAttributesCache
Pob:__Z47Register_UnityEngine_Coroutine_ReleaseCoroutinev
eie:__ZN10ScSceneFnsIN5physx3Scb11RigidStaticEE6insertERNS0_2Sc5SceneERS2_
NS:__ZN15AudioReverbZone13SetFMODValuesEv
R6a:__ZN19ScriptingInvocationC2Ev
chk:_Component_GetComponentInChildren_m3925629424
$Fc:__ZL19StaticDestroyShaderPv
Cd:_glRenderbufferStorageMultisample
CFk:_PKCS12_get_Certificates_m2320062949
T3h:_SoapTypeAttribute_get_XmlTypeName_m2546866572
y2i:_ReadOnlyCollection_1_System_Collections_IList_get_IsFixedSize_m158012227_gshared
cHk:_X509Chain__ctor_m1113875360
NAc:__ZN22MotionVectorRenderLoopD2Ev
W_g:_PrimeGeneratorBase_get_PrimalityTest_m745694088
rX:__ZN4FMOD7SystemI12createReverbEPPNS_6ReverbE
$9:_zcfree
_Qa:__ZThn28_N8Renderer21RendererBecameVisibleEv
r3d:__ZN5physx2Gu15OBBTriangleTestC2ERKNS0_3BoxE
k1j:_ContextAttribute_IsContextOK_m3281216012
d$c:__ZNK6b2Body13ShouldCollideEPKS_
zHm:_pthread_cond_broadcast__wrapper
T9a:__ZN17PersistentManager38InstanceIDToSerializedObjectIdentifierEiR26SerializedObjectIdentifier
dMj:_InternalEnumerator_1_MoveNext_m3299881374_AdjustorThunk
j$d:__ZN5physx2Gu21computeMTD_SphereMeshERNS_6PxVec3ERfRKNS0_6SphereERKNS_22PxTriangleMeshGeometryERKNS_11PxTransformE
_O:__ZN17PackedFloatVector8TransferI18StreamedBinaryReadILb0EEEEvRT_
RPl:__ZL88Screen_t786852042_CustomAttributesCacheGenerator_Screen_t786852042____width_PropertyInfoP21CustomAttributesCache
Wqd:__ZN5physx2Sc10NPhaseCore15fetchFilterPairEPv
Bme:__ZN5physx5cloth11BoundingBoxI8Scalar4fEaSERKS3_
Wte:__ZN5physx12SubSortQuick5sort4EPjjRNS_6shdfnd5ArrayINS_11RTreeNodeNQENS2_19ReflectionAllocatorIS4_EEEERjRNS_10PxBounds3VEj
ipb:__Z37Register_UnityEngine_Screen_get_widthv
Cke:__ZN5physx6shdfnd5ArrayIPNS_2Sc8BodyCoreENS0_19ReflectionAllocatorIS4_EEE15growAndPushBackERKS4_
vNg:_DropdownItem_get_image_m2752143412
_le:__ZN12_GLOBAL__N_113generateConesEPN5physx5cloth8ConeDataEPKNS1_10SphereDataEPKNS1_9IndexPairEj
Uzc:__ZN22BlockMemoryCacheWriter11GetPathNameEv
EKi:_ShimEnumerator_Reset_m2247049027_gshared
VOg:_Graphic_Rebuild_m2617722358
gba:__Z40TestAssetBundleRuntimeClassCompatibilityR11AssetBundleRK14dynamic_bitsetRKNSt3__112basic_stringIcNS4_11char_traitsIcEENS4_9allocatorIcEEEERSA_
EGd:__ZN5physx16PxsBroadPhaseMBPC2ERNS_19PxcScratchAllocatorERNS_2Cm13EventProfilerERKNS_11PxSceneDescEPNS_14PxsAABBManagerE
tDl:__ZL86SafeHandle_t2733794115_CustomAttributesCacheGenerator_SafeHandle_SetHandle_m1980208835P21CustomAttributesCache
$be:__ZN14PhysicsManager23VirtualRedirectTransferER14SafeBinaryRead
wpc:__Z16Transfer_BuiltinI11ColorRGBA3219StreamedBinaryWriteILb0EELb1EEvRK29SerializationCommandArgumentsR31RuntimeSerializationCommandInfo
aug:_DateTime_ToString_m3108726445_AdjustorThunk
c1:__ZN19CloudServiceHandlerD2Ev
H8f:_Array_InternalArray__get_Item_TisTableRange_t2011406615_m602485977_gshared
PTg:_InputField_Append_m2623574152
r8c:__ZN5physx7NpActor14onActorReleaseEPNS_7PxActorE
I5g:_ApplicationException__ctor_m1120437222
pFi:_MonoMethod__ctor_m4091684020
v6c:__ZN5physx3Cct26CharacterControllerManager19computeInteractionsEfPNS_26PxControllerFilterCallbackE
F3e:__ZThn4_N5physx5cloth9ClothImplINS0_7SwClothEE24setSelfCollisionDistanceEf
Jr:stackAlloc
gke:__ZN5physx6shdfnd8PoolBaseINS_2Cm5BlockIhLj256EEENS0_19ReflectionAllocatorIS4_EEE12allocateSlabEv
kkb:__ZN25SingleBlockMemoryFileData4LockEPPv
sJc:__Z26GUI_Set_Custom_PropChangedh
vBi:_MethodBuilder_GetHashCode_m1713271764
sDf:__ZNK21DownloadHandlerBuffer8GetBytesEv
d_j:_Marshal__cctor_m802981325
TWf:_Array_get_swapper_TisUIVertex_t1204258818_m1078858558_gshared
ltk:_CameraRefocus_SetFocusPoint_m4159088784
KXg:_MSCompatUnicodeTable_GetResource_m3816716847
K2h:_Interval_get_IsSingleton_m1888598248_AdjustorThunk
CRk:_CachedInvokableCall_1_Invoke_m2815073919_gshared
bkj:__Z49RuntimeInvoker_UInt16_t986882611_Int64_t909078037PK10MethodInfoPvPS2_
sbg:_Array_CreateInstance_m15016505
LMl:__ZL54ThreadStart_t3437517264_CustomAttributesCacheGeneratorP21CustomAttributesCache
pSl:__ZL103DataUtility_t4181890362_CustomAttributesCacheGenerator_DataUtility_INTERNAL_CALL_GetPadding_m1621366113P21CustomAttributesCache
sJg:_CanvasScaler_get_matchWidthOrHeight_m1190816603
je:_stat
_wa:__ZN9ShaderLab10SubProgram7CompileEv
kbm:__ZL82FirstPersonController_t2575113653_CustomAttributesCacheGenerator_m_RunstepLenghtenP21CustomAttributesCache
z2f:_Array_InternalArray__ICollection_CopyTo_TisUInt16_t986882611_m3228377237_gshared
pHh:_List_1_Add_m4157722533_gshared
$7l:__ZL68Navigation_t1571958496_CustomAttributesCacheGenerator_m_SelectOnDownP21CustomAttributesCache
G0b:__ZNSt3__16__treeINS_12__value_typeINS_12basic_stringIcNS_11char_traitsIcEE13stl_allocatorIcL18MemLabelIdentifier54ELi16EEEEPN16MemoryFileSystem4NodeEEENS_19__map_value_compareIS8_SC_NS_4lessIS8_EELb1EEES5_ISC_LS6_54ELi16EEE12__find_equalISC_EERPNS_16__tree_node_baseIPvEESO_RKT_
p0c:__ZN15b2DistanceJoint23InitVelocityConstraintsERK12b2SolverData
i3b:__ZN6CameraD2Ev
E1d:__ZN5physx2Gu21findUniqueConvexEdgesEjPNS0_10ConvexEdgeEjPKNS0_15HullPolygonDataEPKh
Fhk:_Component_BroadcastMessage_m1308086896
WGh:_List_1_get_Item_m4100789973_gshared
Hil:__ZN23InterfaceActionInvoker2IP11Il2CppArrayiE6InvokeEjP11Il2CppClassPvS1_i
P9e:__ZN5physx20NpRigidActorTemplateINS_14PxRigidDynamicEED0Ev
kHf:_RC2_set_KeySize_m2015782960
sEk:_Version_get_Revision_m654005649
Aa:invoke_iiiiiiiiiiii
agm:__ZNSt3__114__split_bufferINS_12basic_stringIcNS_11char_traitsIcEENS_9allocatorIcEEEERNS4_IS6_EEED2Ev
gNd:__ZN5physx43solveContactCoulombPreBlock_WriteBackStaticEPKNS_23PxcSolverConstraintDescEjRNS_16PxcSolverContextEPNS_25PxcThresholdStreamElementEjPi
IZi:_Collection_1_SetItem_m3715941382_gshared
u6g:_NumberFormatInfo_get_CurrencyGroupSeparator_m2480433019
FKe:__ZN10CastFilterD0Ev
R1l:__ZL100UnityWebRequest_t254341728_CustomAttributesCacheGenerator_UnityWebRequest_InternalGetUrl_m1739605410P21CustomAttributesCache
iPl:__ZL120AssetBundleCreateRequest_t1038783543_CustomAttributesCacheGenerator_AssetBundleCreateRequest_get_assetBundle_m2931245245P21CustomAttributesCache
upj:__Z86RuntimeInvoker_Void_t1841601450_Il2CppObject_Int32_t2071877448_KeyframeU26_t3730533748PK10MethodInfoPvPS2_
pZj:_RuntimeCompatibilityAttribute__ctor_m1331212510
Esd:__ZN5physx2Sc5Scene23allocateConstraintBlockEj
Qwb:__Z43Register_UnityEngine_GameObject_SendMessagev
z8f:_LayoutGroup_SetProperty_TisTextAnchor_t112990806_m2734654086_gshared
MSh:_Collection_1_Add_m3107311913_gshared
vXk:__ZN6il2cpp2vm17SetupFieldsLockedEP11Il2CppClassRKNS_2os12FastAutoLockE
Ztd:__ZN5physx2Sc5Scene11onBodySleepEPNS0_7BodySimE
M$:__ZN11AudioSourceD0Ev
mfk:_CanvasRenderer_set_hasPopInstruction_m1388844875
_xd:__ZN5physx2Sc5Actor15onElementDetachERNS0_7ElementE
S0i:_ReadOnlyCollection_1_System_Collections_IList_get_Item_m1784089691_gshared
VIh:_List_1_System_Collections_ICollection_CopyTo_m1530390632_gshared
Ctl:__ZNSt3__112__hash_tableINS_17__hash_value_typeIP14Il2CppIUnknownP15Il2CppComObjectEENS_22__unordered_map_hasherIS3_S6_NS_4hashIS3_EELb1EEENS_21__unordered_map_equalIS3_S6_NS_8equal_toIS3_EELb1EEENS_9allocatorIS6_EEE15__insert_uniqueINS_4pairIS3_S5_EEEENSJ_INS_15__hash_iteratorIPNS_11__hash_nodeIS6_PvEEEEbEEOT_
h$i:_Collection_1_System_Collections_IEnumerable_GetEnumerator_m1452790461_gshared
rHj:_InternalEnumerator_1_System_Collections_IEnumerator_Reset_m3194282029_AdjustorThunk
o9b:__ZN16MemoryFileSystem4NameEv
vYl:__ZL85Joint_t454317436_CustomAttributesCacheGenerator_Joint_INTERNAL_set_anchor_m3684652072P21CustomAttributesCache
rZe:__ZN5physx6shdfnd4sortIPvNS0_4LessIS2_EENS0_19ReflectionAllocatorIN17PxcPoolMallocData10PoolData32EEEEEvPT_jRKT0_RKT1_
Dlf:__ZNSt3__16__treeINS_12__value_typeIN20TextRenderingPrivate7FontRefENS2_6OSFontEEENS_19__map_value_compareIS3_S5_NS_4lessIS3_EELb1EEENS_9allocatorIS5_EEE7destroyEPNS_11__tree_nodeIS5_PvEE
zue:__ZN5physx6shdfnd5ArrayIPNS_2Gu10ConvexMeshENS0_19ReflectionAllocatorIS4_EEE15growAndPushBackERKS4_
$Qh:_List_1_ToArray_m2810936944_gshared
tT:__ZN11AudioSource16UpdateParametersE12SoundChannel
jA:__ZNSt3__17__sort4IRPFbRK16NavMeshCarveDataS3_EPS1_EEjT0_S8_S8_S8_T_
fIk:_Scene_GetNameInternal_m3140297940
zIc:__ZNK8GUIStyle8CalcSizeER10GUIContent
$hm:__ZNSt3__16vectorIP12Il2CppThreadNS_9allocatorIS2_EEE5eraseENS_11__wrap_iterIPKS2_EES9_
AIh:_List_1_CheckIndex_m2328469916_gshared
f5c:__ZN5physx3Cct13BoxController13setHalfHeightEf
njd:__ZN5physx3Scb13ObjectTracker5clearEv
DRh:_List_1_AddRange_m3345533268_gshared
iff:_UNITY_FT_New_Size
g7a:__Z42ScriptingGetComponentsOfTypeFromGameObjectRK26ScriptingGetComponentsArgs
Uee:__Z51Register_UnityEngine_CharacterController_get_heightv
pIe:__ZL23GeomMTDCallback_BoxMeshRN5physx6PxVec3ERfRKNS_10PxGeometryERKNS_11PxTransformES5_S8_
aSh:_List_1_get_Item_m3157283227_gshared
NXl:__ZL104Physics_t634932869_CustomAttributesCacheGenerator_Physics_Raycast_m233619224____queryTriggerInteraction4P21CustomAttributesCache
kSk:_InvokableCall_4_Invoke_m1555001411_gshared
evm:__ZNSt3__114__split_bufferIPNS_6locale5facetERNS_15__sso_allocatorIS3_Lj28EEEEC2EjjS6_
Jqg:_Convert_ToString_m2915777777
jRc:__ZN35ClampVelocityModulePropertyBindings13SetFloatValueER14ParticleSystemif
Gkd:__ZNK5physx7NpCloth22getNbCollisionCapsulesEv
gif:_cf2_hintmap_build
Bqf:_Line_Up
qvf:__Z44Canvas_CUSTOM_GetETC1SupportedCanvasMaterialv
FMk:_Transform_RotateAround_m3410686872
Avh:_Context_set_SentConnectionEnd_m2641458842
kf:_emscripten_glBufferSubData
rWc:__Z9UpdateTplIL22MinMaxGradientEvalMode2EEvRK23ParticleSystemParticlesP11ColorRGBA32RK14MinMaxGradientRK23OptimizedMinMaxGradient8Vector2f
dsk:_Joystick_OnDisable_m1583703244
z$c:__ZN7b2World10CreateBodyEPK9b2BodyDef
POg:_Graphic_set_material_m329335629
BDg:_ExecuteEvents_get_pointerExitHandler_m3250605428
iwb:__Z30GameObject_CUSTOM_GetComponentP15ScriptingObjectS0_
one:__ZlsRK8Scalar4fi
Rxc:__ZN6prcoreL12RemapGenericI15TexFormatRGB88817TexFormatARGB8888EEvPKNS_9InnerInfoE
_zc:__Z17CalculateGlobalRS23TransformAccessReadOnly
TCe:__ZN5physx22NpParticleBaseTemplateINS_15PxParticleFluidENS_15NpParticleFluidEE7releaseEv
kek:_Camera_ScreenPointToRay_m614889538
x_g:_Kernel_multiByteDivide_m735279869
cOe:__ZNK5physx2Gu29EPASupportMapPairRelativeImplINS0_11ConvexHullVES2_E6getDirEv
jhm:__ZNSt3__112__hash_tableINS_17__hash_value_typeINS_4pairIPK14Il2CppAssemblyP11Il2CppClassEEP24Il2CppReflectionAssemblyEENS_22__unordered_map_hasherIS8_SB_17ReflectionMapHashIS8_ELb1EEENS_21__unordered_map_equalIS8_SB_19ReflectionMapEqualsIS8_ELb1EEEN6il2cpp2gc9AllocatorISB_EEE8__rehashEj
ZPi:_Dictionary_2_ToTValue_m542772656_gshared
yBf:__ZN23UnityPurchasingSettings10InitializeER6Object
mkj:__Z157RuntimeInvoker_Void_t1841601450_Int32_t2071877448_Int32_t2071877448_Int32_t2071877448_Int32_t2071877448_Int32_t2071877448_Int32_t2071877448_Int32_t2071877448PK10MethodInfoPvPS2_
a5j:_PatternCompiler_EncodeOp_m3006416096
O9:_unity_z_deflateReset
zje:__ZN5physx2Sc19ContactReportBuffer23reallocateNotThreadSafeEjRjjj
vgi:_SkinChangedDelegate_Invoke_m2801964040
Xxd:__ZN5physx2Sc5Actor19registerInteractionEPNS0_11InteractionE
amb:_LzmaDec_DecodeToDic
jwa:__ZN22MemoryCacherReadBlocks14LockCacheBlockEjPPhS1_
pdg:_Boolean_System_IConvertible_ToChar_m2637404801_AdjustorThunk
_Mf:_SecurityContext_Capture_m2535194991
VAk:_UInt16_System_IConvertible_ToSByte_m3044765342_AdjustorThunk
Gul:__ZL47Byte_t3683104436_CustomAttributesCacheGeneratorP21CustomAttributesCache
eJb:_decompress_onepass
Sem:__ZN4utf88internal15increase_safelyIPKcEENS0_9utf_errorERT_S5_
SKe:__ZN13PhysicsModule19CreateNxHeightFieldEPv
t5f:_Array_qsort_TisUIVertex_t1204258818_TisUIVertex_t1204258818_m512606409_gshared
ogl:__Z21ArrayElementTypeCheckP11Il2CppArrayPv
xEm:_emscripten_glTexSubImage2D__wrapper
YVh:_NameValueCollection_AsSingleString_m10599052
G2:__ZN11UnityEngine15CloudWebService16SessionContainer25GetSessionHeaderJsonArrayERK8UnityStrRNSt3__119basic_ostringstreamIcNS5_11char_traitsIcEENS5_9allocatorIcEEEE
JRj:_Navigation_get_defaultNavigation_m2185194207
Z8l:__ZL94Selectable_t1490392188_CustomAttributesCacheGenerator_Selectable_set_isPointerDown_m2177301980P21CustomAttributesCache
Mjk:_ArgumentCache_get_stringArgument_m3051619173
x9g:_Int32_System_IConvertible_ToSByte_m1449623243_AdjustorThunk
a5g:_AccessViolationException__ctor_m1270251537
